

Microchip MPLAB XC8 Assembler V2.10 build 88905656 
                                                                                               Fri Apr 10 12:21:33 2020

Microchip MPLAB XC8 C Compiler v2.10 (Free license) build 20190730164152 Og1 
     1                           	processor	16F1455
     2                           	opt	pw 120
     3                           	opt	flic
     4                           	psect	idataBANK0,global,class=CODE,delta=2
     5                           	psect	idataBANK1,global,class=CODE,delta=2
     6                           	psect	stringtext1,global,class=STRCODE,delta=2
     7                           	psect	stringtext2,global,class=STRCODE,delta=2
     8                           	psect	stringtext3,global,class=STRCODE,delta=2
     9                           	psect	stringtext4,global,class=STRCODE,delta=2
    10                           	psect	stringtext5,global,class=STRCODE,delta=2
    11                           	psect	stringtext6,global,class=STRCODE,delta=2
    12                           	psect	stringtext7,global,class=STRCODE,delta=2
    13                           	psect	cinit,global,class=CODE,merge=1,delta=2
    14                           	psect	bssCOMMON,global,class=COMMON,space=1,delta=1
    15                           	psect	bssBANK0,global,class=BANK0,space=1,delta=1
    16                           	psect	dataBANK0,global,class=BANK0,space=1,delta=1
    17                           	psect	bssBANK1,global,class=BANK1,space=1,delta=1
    18                           	psect	dataBANK1,global,class=BANK1,space=1,delta=1
    19                           	psect	inittext,global,class=CODE,delta=2
    20                           	psect	clrtext,global,class=CODE,delta=2
    21                           	psect	cstackCOMMON,global,class=COMMON,space=1,delta=1
    22                           	psect	cstackBANK0,global,class=BANK0,space=1,delta=1
    23                           	psect	maintext,global,class=CODE,merge=1,split=1,delta=2
    24                           	psect	text1,local,class=CODE,merge=1,delta=2
    25                           	psect	text2,local,class=CODE,merge=1,delta=2
    26                           	psect	text3,local,class=CODE,merge=1,delta=2,group=1
    27                           	psect	text4,local,class=CODE,merge=1,delta=2
    28                           	psect	text5,local,class=CODE,merge=1,delta=2
    29                           	psect	text6,local,class=CODE,merge=1,delta=2
    30                           	psect	text7,local,class=CODE,merge=1,delta=2
    31                           	psect	text8,local,class=CODE,merge=1,delta=2
    32                           	psect	text9,local,class=CODE,merge=1,delta=2
    33                           	psect	text10,local,class=CODE,merge=1,delta=2
    34                           	psect	text11,local,class=CODE,merge=1,delta=2
    35                           	psect	text12,local,class=CODE,merge=1,delta=2
    36                           	psect	text13,local,class=CODE,merge=1,delta=2
    37                           	psect	text14,local,class=CODE,merge=1,delta=2
    38                           	psect	text15,local,class=CODE,merge=1,delta=2
    39                           	psect	intentry,global,class=CODE,delta=2
    40                           	psect	text17,local,class=CODE,merge=1,delta=2
    41                           	psect	text18,local,class=CODE,merge=1,delta=2
    42                           	psect	text19,local,class=CODE,merge=1,delta=2
    43                           	psect	text20,local,class=CODE,merge=1,delta=2
    44                           	psect	text21,local,class=CODE,merge=1,delta=2
    45                           	psect	text22,local,class=CODE,merge=1,delta=2
    46                           	psect	text23,local,class=CODE,merge=1,delta=2
    47                           	psect	text24,local,class=CODE,merge=1,delta=2
    48                           	psect	text25,local,class=CODE,merge=1,delta=2
    49                           	psect	text26,local,class=CODE,merge=1,delta=2
    50                           	psect	text27,local,class=CODE,merge=1,delta=2
    51                           	psect	text28,local,class=CODE,merge=1,delta=2
    52                           	psect	text29,local,class=CODE,merge=1,delta=2
    53                           	psect	text30,local,class=CODE,merge=1,delta=2
    54                           	psect	text31,local,class=CODE,merge=1,delta=2
    55                           	psect	text32,local,class=CODE,merge=1,delta=2
    56                           	psect	text33,local,class=CODE,merge=1,delta=2
    57                           	dabs	1,0x20,16,_Interfaces
    58                           	dabs	1,0x7E,2
    59  0000                     
    60                           ; Version 2.10
    61                           ; Generated 31/07/2019 GMT
    62                           ; 
    63                           ; Copyright © 2019, Microchip Technology Inc. and its subsidiaries ("Microchip")
    64                           ; All rights reserved.
    65                           ; 
    66                           ; This software is developed by Microchip Technology Inc. and its subsidiaries ("Microch
      +                          ip").
    67                           ; 
    68                           ; Redistribution and use in source and binary forms, with or without modification, are
    69                           ; permitted provided that the following conditions are met:
    70                           ; 
    71                           ;     1. Redistributions of source code must retain the above copyright notice, this lis
      +                          t of
    72                           ;        conditions and the following disclaimer.
    73                           ; 
    74                           ;     2. Redistributions in binary form must reproduce the above copyright notice, this 
      +                          list
    75                           ;        of conditions and the following disclaimer in the documentation and/or other
    76                           ;        materials provided with the distribution.
    77                           ; 
    78                           ;     3. Microchip's name may not be used to endorse or promote products derived from th
      +                          is
    79                           ;        software without specific prior written permission.
    80                           ; 
    81                           ; THIS SOFTWARE IS PROVIDED BY MICROCHIP "AS IS" AND ANY EXPRESS OR IMPLIED WARRANTIES,
    82                           ; INCLUDING, BUT NOT LIMITED TO, THE IMPLIED WARRANTIES OF MERCHANTABILITY AND FITNESS F
      +                          OR
    83                           ; PURPOSE ARE DISCLAIMED.  IN NO EVENT SHALL MICROCHIP BE LIABLE FOR ANY DIRECT, INDIREC
      +                          T,
    84                           ; INCIDENTAL, SPECIAL, EXEMPLARY, OR CONSEQUENTIAL DAMAGES (INCLUDING BUT NOT LIMITED TO
    85                           ; PROCUREMENT OF SUBSTITUTE GOODS OR SERVICES; LOSS OF USE, DATA OR PROFITS; OR BUSINESS
    86                           ; INTERRUPTION) HOWSOEVER CAUSED AND ON ANY THEORY OF LIABILITY, WHETHER IN CONTRACT, ST
      +                          RICT
    87                           ; LIABILITY, OR TORT (INCLUDING NEGLIGENCE OR OTHERWISE) ARISING IN ANY WAY OUT OF THE U
      +                          SE OF
    88                           ; THIS SOFTWARE, EVEN IF ADVISED OF THE POSSIBILITY OF SUCH DAMAGE.
    89                           ; 
    90                           ; 
    91                           ; Code-generator required, PIC16F1455 Definitions
    92                           ; 
    93                           ; SFR Addresses
    94  0000                     	;# 
    95  0001                     	;# 
    96  0002                     	;# 
    97  0003                     	;# 
    98  0004                     	;# 
    99  0005                     	;# 
   100  0006                     	;# 
   101  0007                     	;# 
   102  0008                     	;# 
   103  0009                     	;# 
   104  000A                     	;# 
   105  000B                     	;# 
   106  000C                     	;# 
   107  000E                     	;# 
   108  0011                     	;# 
   109  0012                     	;# 
   110  0015                     	;# 
   111  0016                     	;# 
   112  0016                     	;# 
   113  0017                     	;# 
   114  0018                     	;# 
   115  0019                     	;# 
   116  001A                     	;# 
   117  001B                     	;# 
   118  001C                     	;# 
   119  008C                     	;# 
   120  008E                     	;# 
   121  0091                     	;# 
   122  0092                     	;# 
   123  0095                     	;# 
   124  0096                     	;# 
   125  0097                     	;# 
   126  0098                     	;# 
   127  0099                     	;# 
   128  009A                     	;# 
   129  009B                     	;# 
   130  009B                     	;# 
   131  009C                     	;# 
   132  009D                     	;# 
   133  009E                     	;# 
   134  009F                     	;# 
   135  010C                     	;# 
   136  010E                     	;# 
   137  0111                     	;# 
   138  0112                     	;# 
   139  0113                     	;# 
   140  0114                     	;# 
   141  0115                     	;# 
   142  0116                     	;# 
   143  0117                     	;# 
   144  0118                     	;# 
   145  0119                     	;# 
   146  011D                     	;# 
   147  018C                     	;# 
   148  018E                     	;# 
   149  0191                     	;# 
   150  0191                     	;# 
   151  0192                     	;# 
   152  0193                     	;# 
   153  0193                     	;# 
   154  0194                     	;# 
   155  0195                     	;# 
   156  0196                     	;# 
   157  0197                     	;# 
   158  0199                     	;# 
   159  019A                     	;# 
   160  019B                     	;# 
   161  019B                     	;# 
   162  019C                     	;# 
   163  019D                     	;# 
   164  019E                     	;# 
   165  019F                     	;# 
   166  020C                     	;# 
   167  0211                     	;# 
   168  0211                     	;# 
   169  0212                     	;# 
   170  0212                     	;# 
   171  0213                     	;# 
   172  0213                     	;# 
   173  0214                     	;# 
   174  0214                     	;# 
   175  0215                     	;# 
   176  0215                     	;# 
   177  0215                     	;# 
   178  0216                     	;# 
   179  0216                     	;# 
   180  0217                     	;# 
   181  0217                     	;# 
   182  0391                     	;# 
   183  0392                     	;# 
   184  0393                     	;# 
   185  039A                     	;# 
   186  039B                     	;# 
   187  0611                     	;# 
   188  0612                     	;# 
   189  0613                     	;# 
   190  0613                     	;# 
   191  0614                     	;# 
   192  0615                     	;# 
   193  0616                     	;# 
   194  0616                     	;# 
   195  0691                     	;# 
   196  0692                     	;# 
   197  0693                     	;# 
   198  0694                     	;# 
   199  0695                     	;# 
   200  0E8E                     	;# 
   201  0E8F                     	;# 
   202  0E90                     	;# 
   203  0E91                     	;# 
   204  0E92                     	;# 
   205  0E93                     	;# 
   206  0E94                     	;# 
   207  0E94                     	;# 
   208  0E95                     	;# 
   209  0E96                     	;# 
   210  0E97                     	;# 
   211  0E98                     	;# 
   212  0E99                     	;# 
   213  0E9A                     	;# 
   214  0E9B                     	;# 
   215  0E9C                     	;# 
   216  0E9D                     	;# 
   217  0E9E                     	;# 
   218  0E9F                     	;# 
   219  0FE4                     	;# 
   220  0FE5                     	;# 
   221  0FE6                     	;# 
   222  0FE7                     	;# 
   223  0FE8                     	;# 
   224  0FE9                     	;# 
   225  0FEA                     	;# 
   226  0FEB                     	;# 
   227  0FED                     	;# 
   228  0FEE                     	;# 
   229  0FEF                     	;# 
   230  0000                     	;# 
   231  0001                     	;# 
   232  0002                     	;# 
   233  0003                     	;# 
   234  0004                     	;# 
   235  0005                     	;# 
   236  0006                     	;# 
   237  0007                     	;# 
   238  0008                     	;# 
   239  0009                     	;# 
   240  000A                     	;# 
   241  000B                     	;# 
   242  000C                     	;# 
   243  000E                     	;# 
   244  0011                     	;# 
   245  0012                     	;# 
   246  0015                     	;# 
   247  0016                     	;# 
   248  0016                     	;# 
   249  0017                     	;# 
   250  0018                     	;# 
   251  0019                     	;# 
   252  001A                     	;# 
   253  001B                     	;# 
   254  001C                     	;# 
   255  008C                     	;# 
   256  008E                     	;# 
   257  0091                     	;# 
   258  0092                     	;# 
   259  0095                     	;# 
   260  0096                     	;# 
   261  0097                     	;# 
   262  0098                     	;# 
   263  0099                     	;# 
   264  009A                     	;# 
   265  009B                     	;# 
   266  009B                     	;# 
   267  009C                     	;# 
   268  009D                     	;# 
   269  009E                     	;# 
   270  009F                     	;# 
   271  010C                     	;# 
   272  010E                     	;# 
   273  0111                     	;# 
   274  0112                     	;# 
   275  0113                     	;# 
   276  0114                     	;# 
   277  0115                     	;# 
   278  0116                     	;# 
   279  0117                     	;# 
   280  0118                     	;# 
   281  0119                     	;# 
   282  011D                     	;# 
   283  018C                     	;# 
   284  018E                     	;# 
   285  0191                     	;# 
   286  0191                     	;# 
   287  0192                     	;# 
   288  0193                     	;# 
   289  0193                     	;# 
   290  0194                     	;# 
   291  0195                     	;# 
   292  0196                     	;# 
   293  0197                     	;# 
   294  0199                     	;# 
   295  019A                     	;# 
   296  019B                     	;# 
   297  019B                     	;# 
   298  019C                     	;# 
   299  019D                     	;# 
   300  019E                     	;# 
   301  019F                     	;# 
   302  020C                     	;# 
   303  0211                     	;# 
   304  0211                     	;# 
   305  0212                     	;# 
   306  0212                     	;# 
   307  0213                     	;# 
   308  0213                     	;# 
   309  0214                     	;# 
   310  0214                     	;# 
   311  0215                     	;# 
   312  0215                     	;# 
   313  0215                     	;# 
   314  0216                     	;# 
   315  0216                     	;# 
   316  0217                     	;# 
   317  0217                     	;# 
   318  0391                     	;# 
   319  0392                     	;# 
   320  0393                     	;# 
   321  039A                     	;# 
   322  039B                     	;# 
   323  0611                     	;# 
   324  0612                     	;# 
   325  0613                     	;# 
   326  0613                     	;# 
   327  0614                     	;# 
   328  0615                     	;# 
   329  0616                     	;# 
   330  0616                     	;# 
   331  0691                     	;# 
   332  0692                     	;# 
   333  0693                     	;# 
   334  0694                     	;# 
   335  0695                     	;# 
   336  0E8E                     	;# 
   337  0E8F                     	;# 
   338  0E90                     	;# 
   339  0E91                     	;# 
   340  0E92                     	;# 
   341  0E93                     	;# 
   342  0E94                     	;# 
   343  0E94                     	;# 
   344  0E95                     	;# 
   345  0E96                     	;# 
   346  0E97                     	;# 
   347  0E98                     	;# 
   348  0E99                     	;# 
   349  0E9A                     	;# 
   350  0E9B                     	;# 
   351  0E9C                     	;# 
   352  0E9D                     	;# 
   353  0E9E                     	;# 
   354  0E9F                     	;# 
   355  0FE4                     	;# 
   356  0FE5                     	;# 
   357  0FE6                     	;# 
   358  0FE7                     	;# 
   359  0FE8                     	;# 
   360  0FE9                     	;# 
   361  0FEA                     	;# 
   362  0FEB                     	;# 
   363  0FED                     	;# 
   364  0FEE                     	;# 
   365  0FEF                     	;# 
   366  0000                     	;# 
   367  0001                     	;# 
   368  0002                     	;# 
   369  0003                     	;# 
   370  0004                     	;# 
   371  0005                     	;# 
   372  0006                     	;# 
   373  0007                     	;# 
   374  0008                     	;# 
   375  0009                     	;# 
   376  000A                     	;# 
   377  000B                     	;# 
   378  000C                     	;# 
   379  000E                     	;# 
   380  0011                     	;# 
   381  0012                     	;# 
   382  0015                     	;# 
   383  0016                     	;# 
   384  0016                     	;# 
   385  0017                     	;# 
   386  0018                     	;# 
   387  0019                     	;# 
   388  001A                     	;# 
   389  001B                     	;# 
   390  001C                     	;# 
   391  008C                     	;# 
   392  008E                     	;# 
   393  0091                     	;# 
   394  0092                     	;# 
   395  0095                     	;# 
   396  0096                     	;# 
   397  0097                     	;# 
   398  0098                     	;# 
   399  0099                     	;# 
   400  009A                     	;# 
   401  009B                     	;# 
   402  009B                     	;# 
   403  009C                     	;# 
   404  009D                     	;# 
   405  009E                     	;# 
   406  009F                     	;# 
   407  010C                     	;# 
   408  010E                     	;# 
   409  0111                     	;# 
   410  0112                     	;# 
   411  0113                     	;# 
   412  0114                     	;# 
   413  0115                     	;# 
   414  0116                     	;# 
   415  0117                     	;# 
   416  0118                     	;# 
   417  0119                     	;# 
   418  011D                     	;# 
   419  018C                     	;# 
   420  018E                     	;# 
   421  0191                     	;# 
   422  0191                     	;# 
   423  0192                     	;# 
   424  0193                     	;# 
   425  0193                     	;# 
   426  0194                     	;# 
   427  0195                     	;# 
   428  0196                     	;# 
   429  0197                     	;# 
   430  0199                     	;# 
   431  019A                     	;# 
   432  019B                     	;# 
   433  019B                     	;# 
   434  019C                     	;# 
   435  019D                     	;# 
   436  019E                     	;# 
   437  019F                     	;# 
   438  020C                     	;# 
   439  0211                     	;# 
   440  0211                     	;# 
   441  0212                     	;# 
   442  0212                     	;# 
   443  0213                     	;# 
   444  0213                     	;# 
   445  0214                     	;# 
   446  0214                     	;# 
   447  0215                     	;# 
   448  0215                     	;# 
   449  0215                     	;# 
   450  0216                     	;# 
   451  0216                     	;# 
   452  0217                     	;# 
   453  0217                     	;# 
   454  0391                     	;# 
   455  0392                     	;# 
   456  0393                     	;# 
   457  039A                     	;# 
   458  039B                     	;# 
   459  0611                     	;# 
   460  0612                     	;# 
   461  0613                     	;# 
   462  0613                     	;# 
   463  0614                     	;# 
   464  0615                     	;# 
   465  0616                     	;# 
   466  0616                     	;# 
   467  0691                     	;# 
   468  0692                     	;# 
   469  0693                     	;# 
   470  0694                     	;# 
   471  0695                     	;# 
   472  0E8E                     	;# 
   473  0E8F                     	;# 
   474  0E90                     	;# 
   475  0E91                     	;# 
   476  0E92                     	;# 
   477  0E93                     	;# 
   478  0E94                     	;# 
   479  0E94                     	;# 
   480  0E95                     	;# 
   481  0E96                     	;# 
   482  0E97                     	;# 
   483  0E98                     	;# 
   484  0E99                     	;# 
   485  0E9A                     	;# 
   486  0E9B                     	;# 
   487  0E9C                     	;# 
   488  0E9D                     	;# 
   489  0E9E                     	;# 
   490  0E9F                     	;# 
   491  0FE4                     	;# 
   492  0FE5                     	;# 
   493  0FE6                     	;# 
   494  0FE7                     	;# 
   495  0FE8                     	;# 
   496  0FE9                     	;# 
   497  0FEA                     	;# 
   498  0FEB                     	;# 
   499  0FED                     	;# 
   500  0FEE                     	;# 
   501  0FEF                     	;# 
   502                           
   503                           	psect	idataBANK0
   504  0F5D                     __pidataBANK0:	
   505                           
   506                           ;initializer for _Buffers
   507  0F5D  3408               	retlw	8
   508  0F5E  3451               	retlw	low (_HIDTxBuffer| 0)
   509  0F5F  3408               	retlw	8
   510  0F60  34BB               	retlw	low (_HIDRxBuffer| 0)
   511                           
   512                           	psect	idataBANK1
   513  07AB                     __pidataBANK1:	
   514                           
   515                           ;initializer for _button_key_maps
   516  07AB  3401               	retlw	1
   517  07AC  341B               	retlw	27
   518  07AD  3400               	retlw	0
   519  07AE  3402               	retlw	2
   520  07AF  341D               	retlw	29
   521  07B0  3400               	retlw	0
   522  07B1  3404               	retlw	4
   523  07B2  34E5               	retlw	229
   524  07B3  3400               	retlw	0
   525  07B4  3408               	retlw	8
   526  07B5  3428               	retlw	40
   527  07B6  3400               	retlw	0
   528  07B7  3410               	retlw	16
   529  07B8  3452               	retlw	82
   530  07B9  3400               	retlw	0
   531  07BA  3420               	retlw	32
   532  07BB  3451               	retlw	81
   533  07BC  3400               	retlw	0
   534  07BD  3440               	retlw	64
   535  07BE  3450               	retlw	80
   536  07BF  3400               	retlw	0
   537  07C0  3480               	retlw	128
   538  07C1  344F               	retlw	79
   539  07C2  3400               	retlw	0
   540  07C3  3400               	retlw	0
   541  07C4  3400               	retlw	0
   542  07C5  3400               	retlw	0
   543                           
   544                           	psect	stringtext1
   545  1012                     __pstringtext1:	
   546  1012                     _StringDescriptorPointers:	
   547  1012  3418               	retlw	low (_StringDescriptor0| (0+32768))
   548  1013  3490               	retlw	high (_StringDescriptor0| (0+32768))
   549  1014  348F               	retlw	low (_StringDescriptor1| (0+32768))
   550  1015  3487               	retlw	high (_StringDescriptor1| (0+32768))
   551  1016  34C6               	retlw	low (_StringDescriptor2| (0+32768))
   552  1017  3487               	retlw	high (_StringDescriptor2| (0+32768))
   553  1018                     __end_of_StringDescriptorPointers:	
   554                           
   555                           	psect	stringtext2
   556  064A                     __pstringtext2:	
   557  064A                     _HIDReport:	
   558  064A  3405               	retlw	5
   559  064B  3401               	retlw	1
   560  064C  3409               	retlw	9
   561  064D  3406               	retlw	6
   562  064E  34A1               	retlw	161
   563  064F  3401               	retlw	1
   564  0650  3405               	retlw	5
   565  0651  3407               	retlw	7
   566  0652  3419               	retlw	25
   567  0653  34E0               	retlw	224
   568  0654  3429               	retlw	41
   569  0655  34E7               	retlw	231
   570  0656  3415               	retlw	21
   571  0657  3400               	retlw	0
   572  0658  3425               	retlw	37
   573  0659  3401               	retlw	1
   574  065A  3475               	retlw	117
   575  065B  3401               	retlw	1
   576  065C  3495               	retlw	149
   577  065D  3408               	retlw	8
   578  065E  3481               	retlw	129
   579  065F  3402               	retlw	2
   580  0660  3495               	retlw	149
   581  0661  3401               	retlw	1
   582  0662  3475               	retlw	117
   583  0663  3408               	retlw	8
   584  0664  3481               	retlw	129
   585  0665  3403               	retlw	3
   586  0666  3495               	retlw	149
   587  0667  3405               	retlw	5
   588  0668  3475               	retlw	117
   589  0669  3401               	retlw	1
   590  066A  3405               	retlw	5
   591  066B  3408               	retlw	8
   592  066C  3419               	retlw	25
   593  066D  3401               	retlw	1
   594  066E  3429               	retlw	41
   595  066F  3405               	retlw	5
   596  0670  3491               	retlw	145
   597  0671  3402               	retlw	2
   598  0672  3495               	retlw	149
   599  0673  3401               	retlw	1
   600  0674  3475               	retlw	117
   601  0675  3403               	retlw	3
   602  0676  3491               	retlw	145
   603  0677  3403               	retlw	3
   604  0678  3495               	retlw	149
   605  0679  3406               	retlw	6
   606  067A  3475               	retlw	117
   607  067B  3408               	retlw	8
   608  067C  3415               	retlw	21
   609  067D  3400               	retlw	0
   610  067E  3425               	retlw	37
   611  067F  3465               	retlw	101
   612  0680  3405               	retlw	5
   613  0681  3407               	retlw	7
   614  0682  3419               	retlw	25
   615  0683  3400               	retlw	0
   616  0684  3429               	retlw	41
   617  0685  3465               	retlw	101
   618  0686  3481               	retlw	129
   619  0687  3400               	retlw	0
   620  0688  34C0               	retlw	192
   621  0689                     __end_of_HIDReport:	
   622                           
   623                           	psect	stringtext3
   624  0724                     __pstringtext3:	
   625  0724                     _ConfigurationDescriptor:	
   626  0724  3409               	retlw	9
   627  0725  3402               	retlw	2
   628  0726  3429               	retlw	41
   629  0727  3400               	retlw	0
   630  0728  3401               	retlw	1
   631  0729  3401               	retlw	1
   632  072A  3400               	retlw	0
   633  072B  34A0               	retlw	160
   634  072C  3432               	retlw	50
   635  072D  3409               	retlw	9
   636  072E  3404               	retlw	4
   637  072F  3400               	retlw	0
   638  0730  3400               	retlw	0
   639  0731  3402               	retlw	2
   640  0732  3403               	retlw	3
   641  0733  3401               	retlw	1
   642  0734  3401               	retlw	1
   643  0735  3400               	retlw	0
   644  0736  3409               	retlw	9
   645  0737  3421               	retlw	33
   646  0738  3411               	retlw	17
   647  0739  3401               	retlw	1
   648  073A  3400               	retlw	0
   649  073B  3401               	retlw	1
   650  073C  3422               	retlw	34
   651  073D  343F               	retlw	63
   652  073E  3400               	retlw	0
   653  073F  3407               	retlw	7
   654  0740  3405               	retlw	5
   655  0741  3481               	retlw	129
   656  0742  3403               	retlw	3
   657  0743  3408               	retlw	8
   658  0744  3400               	retlw	0
   659  0745  3401               	retlw	1
   660  0746  3407               	retlw	7
   661  0747  3405               	retlw	5
   662  0748  3401               	retlw	1
   663  0749  3403               	retlw	3
   664  074A  3408               	retlw	8
   665  074B  3400               	retlw	0
   666  074C  3401               	retlw	1
   667  074D                     __end_of_ConfigurationDescriptor:	
   668                           
   669                           	psect	stringtext4
   670  078F                     __pstringtext4:	
   671  078F                     _StringDescriptor1:	
   672  078F  341C               	retlw	28
   673  0790  3403               	retlw	3
   674  0791  344A               	retlw	74
   675  0792  3400               	retlw	0
   676  0793  346F               	retlw	111
   677  0794  3400               	retlw	0
   678  0795  3465               	retlw	101
   679  0796  3400               	retlw	0
   680  0797  3420               	retlw	32
   681  0798  3400               	retlw	0
   682  0799  344F               	retlw	79
   683  079A  3400               	retlw	0
   684  079B  3473               	retlw	115
   685  079C  3400               	retlw	0
   686  079D  3474               	retlw	116
   687  079E  3400               	retlw	0
   688  079F  3472               	retlw	114
   689  07A0  3400               	retlw	0
   690  07A1  3461               	retlw	97
   691  07A2  3400               	retlw	0
   692  07A3  346E               	retlw	110
   693  07A4  3400               	retlw	0
   694  07A5  3464               	retlw	100
   695  07A6  3400               	retlw	0
   696  07A7  3465               	retlw	101
   697  07A8  3400               	retlw	0
   698  07A9  3472               	retlw	114
   699  07AA  3400               	retlw	0
   700  07AB                     __end_of_StringDescriptor1:	
   701                           
   702                           	psect	stringtext5
   703  07C6                     __pstringtext5:	
   704  07C6                     _StringDescriptor2:	
   705  07C6  341A               	retlw	26
   706  07C7  3403               	retlw	3
   707  07C8  344E               	retlw	78
   708  07C9  3400               	retlw	0
   709  07CA  3445               	retlw	69
   710  07CB  3400               	retlw	0
   711  07CC  3453               	retlw	83
   712  07CD  3400               	retlw	0
   713  07CE  3420               	retlw	32
   714  07CF  3400               	retlw	0
   715  07D0  344B               	retlw	75
   716  07D1  3400               	retlw	0
   717  07D2  3465               	retlw	101
   718  07D3  3400               	retlw	0
   719  07D4  3479               	retlw	121
   720  07D5  3400               	retlw	0
   721  07D6  3462               	retlw	98
   722  07D7  3400               	retlw	0
   723  07D8  346F               	retlw	111
   724  07D9  3400               	retlw	0
   725  07DA  3461               	retlw	97
   726  07DB  3400               	retlw	0
   727  07DC  3472               	retlw	114
   728  07DD  3400               	retlw	0
   729  07DE  3464               	retlw	100
   730  07DF  3400               	retlw	0
   731  07E0                     __end_of_StringDescriptor2:	
   732                           
   733                           	psect	stringtext6
   734  1000                     __pstringtext6:	
   735  1000                     _DeviceDescriptor:	
   736  1000  3412               	retlw	18
   737  1001  3401               	retlw	1
   738  1002  3400               	retlw	0
   739  1003  3402               	retlw	2
   740  1004  3400               	retlw	0
   741  1005  3400               	retlw	0
   742  1006  3400               	retlw	0
   743  1007  3408               	retlw	8
   744  1008  34D8               	retlw	216
   745  1009  3404               	retlw	4
   746  100A  34A6               	retlw	166
   747  100B  3401               	retlw	1
   748  100C  3401               	retlw	1
   749  100D  3400               	retlw	0
   750  100E  3401               	retlw	1
   751  100F  3402               	retlw	2
   752  1010  3400               	retlw	0
   753  1011  3401               	retlw	1
   754  1012                     __end_of_DeviceDescriptor:	
   755                           
   756                           	psect	stringtext7
   757  1018                     __pstringtext7:	
   758  1018                     _StringDescriptor0:	
   759  1018  3404               	retlw	4
   760  1019  3403               	retlw	3
   761  101A  3409               	retlw	9
   762  101B  3404               	retlw	4
   763  101C                     __end_of_StringDescriptor0:	
   764  000E                     _PORTCbits	set	14
   765  000C                     _PORTAbits	set	12
   766  000B                     _INTCONbits	set	11
   767  0012                     _PIR2bits	set	18
   768  008C                     _TRISAbits	set	140
   769  008E                     _TRISCbits	set	142
   770  0092                     _PIE2bits	set	146
   771  0095                     _OPTION_REG	set	149
   772  0099                     _OSCCON	set	153
   773  0098                     _OSCTUNE	set	152
   774  010E                     _LATCbits	set	270
   775  010E                     _LATC	set	270
   776  018C                     _ANSELAbits	set	396
   777  018E                     _ANSELCbits	set	398
   778  018E                     _ANSELC	set	398
   779  018C                     _ANSELA	set	396
   780  039B                     _ACTCON	set	923
   781  0E99                     _EndpointFlags	set	3737
   782  0E98                     _UEP0	set	3736
   783  0E97                     _UEIE	set	3735
   784  0E98                     _UEP0bits	set	3736
   785  0E90                     _UIRbits	set	3728
   786  0E92                     _UIEbits	set	3730
   787  0E90                     _UIR	set	3728
   788  0E8E                     _UCON	set	3726
   789  0E93                     _UEIR	set	3731
   790  0E91                     _UCFG	set	3729
   791  0E96                     _UADDR	set	3734
   792  0E8F                     _USTAT	set	3727
   793  0E8E                     _UCONbits	set	3726
   794  0E92                     _UIE	set	3730
   795                           
   796                           ; #config settings
   797  0000                     
   798                           	psect	cinit
   799  0012                     start_initialization:	
   800  0012                     __initialization:	
   801                           
   802                           ; Initialize objects allocated to BANK0
   803  0012  305D               	movlw	low __pidataBANK0
   804  0013  0084               	movwf	4
   805  0014  308F               	movlw	(high __pidataBANK0)| (0+128)
   806  0015  0085               	movwf	5
   807  0016  306A               	movlw	low __pdataBANK0
   808  0017  0086               	movwf	6
   809  0018  3000               	movlw	high __pdataBANK0
   810  0019  0087               	movwf	7
   811  001A  3004               	movlw	4
   812  001B  3187  27FA  3180   	fcall	init_ram
   813                           
   814                           ; Initialize objects allocated to BANK1
   815  001E  30AB               	movlw	low __pidataBANK1
   816  001F  0084               	movwf	4
   817  0020  3087               	movlw	(high __pidataBANK1)| (0+128)
   818  0021  0085               	movwf	5
   819  0022  30A0               	movlw	low __pdataBANK1
   820  0023  0086               	movwf	6
   821  0024  3000               	movlw	high __pdataBANK1
   822  0025  0087               	movwf	7
   823  0026  301B               	movlw	27
   824  0027  3187  27FA  3180   	fcall	init_ram
   825                           
   826                           ; Clear objects allocated to COMMON
   827  002A  01FD               	clrf	__pbssCOMMON& (0+127)
   828                           
   829                           ; Clear objects allocated to BANK0
   830  002B  3030               	movlw	low __pbssBANK0
   831  002C  0084               	movwf	4
   832  002D  3000               	movlw	high __pbssBANK0
   833  002E  0085               	movwf	5
   834  002F  302C               	movlw	44
   835  0030  318F  2761  3180   	fcall	clear_ram0
   836                           
   837                           ; Clear objects allocated to BANK1
   838  0033  30BB               	movlw	low __pbssBANK1
   839  0034  0084               	movwf	4
   840  0035  3000               	movlw	high __pbssBANK1
   841  0036  0085               	movwf	5
   842  0037  3008               	movlw	8
   843  0038  318F  2761  3180   	fcall	clear_ram0
   844  003B                     end_of_initialization:	
   845                           ;End of C runtime variable initialization code
   846                           
   847  003B                     __end_of__initialization:	
   848  003B  107E               	bcf	int$flags,0	;clear compiler interrupt flag (level 1)
   849  003C  0020               	movlb	0
   850  003D  318F  2FD5         	ljmp	_main	;jump to C main() function
   851                           
   852                           	psect	bssCOMMON
   853  007D                     __pbssCOMMON:	
   854  007D                     _inPtr:	
   855  007D                     	ds	1
   856                           
   857                           	psect	bssBANK0
   858  0030                     __pbssBANK0:	
   859  0030                     _wCount:	
   860  0030                     	ds	2
   861  0032                     _ROMoutPtr:	
   862  0032                     	ds	2
   863  0034                     _last_reading:	
   864  0034                     	ds	1
   865  0035                     _transferType:	
   866  0035                     	ds	1
   867  0036                     _outPtr:	
   868  0036                     	ds	1
   869  0037                     _HidRxLen:	
   870  0037                     	ds	1
   871  0038                     _RequestHandled:	
   872  0038                     	ds	1
   873  0039                     _HIDPostProcess:	
   874  0039                     	ds	1
   875  003A                     _CtrlTransferStage:	
   876  003A                     	ds	1
   877  003B                     _SelfPowered:	
   878  003B                     	ds	1
   879  003C                     _DeviceAddress:	
   880  003C                     	ds	1
   881  003D                     _RemoteWakeup:	
   882  003D                     	ds	1
   883  003E                     _last_keypad_reading:	
   884  003E                     	ds	1
   885  003F                     _DeviceState:	
   886  003F                     	ds	1
   887  0040                     _SetupPacket:	
   888  0040                     	ds	9
   889  0049                     _ControlTransferBuffer:	
   890  0049                     	ds	8
   891  0051                     _HIDTxBuffer:	
   892  0051                     	ds	8
   893  0059                     _HidProtocol:	
   894  0059                     	ds	1
   895  005A                     _HidIdleRate:	
   896  005A                     	ds	1
   897  005B                     _CurrentConfiguration:	
   898  005B                     	ds	1
   899                           
   900                           	psect	dataBANK0
   901  006A                     __pdataBANK0:	
   902  006A                     _Buffers:	
   903  006A                     	ds	4
   904                           
   905                           	psect	bssBANK1
   906  00BB                     __pbssBANK1:	
   907  00BB                     _HIDRxBuffer:	
   908  00BB                     	ds	8
   909                           
   910                           	psect	dataBANK1
   911  00A0                     __pdataBANK1:	
   912  00A0                     _button_key_maps:	
   913  00A0                     	ds	27
   914                           
   915                           	psect	inittext
   916  07FA                     init_ram:	
   917  07FA  00FE               	movwf	btemp
   918  07FB                     initloop:	
   919  07FB  0012               	moviw fsr0++
   920  07FC  001E               	movwi fsr1++
   921  07FD  0BFE               	decfsz	btemp,f
   922  07FE  2FFB               	goto	initloop
   923  07FF  3400               	retlw	0
   924                           
   925                           	psect	clrtext
   926  0F61                     clear_ram0:	
   927                           ;	Called with FSR0 containing the base address, and
   928                           ;	WREG with the size to clear
   929                           
   930  0F61  0064               	clrwdt	;clear the watchdog before getting into this loop
   931  0F62                     clrloop0:	
   932  0F62  0180               	clrf	0	;clear RAM location pointed to by FSR
   933  0F63  3101               	addfsr 0,1
   934  0F64  0B89               	decfsz	9,f	;Have we reached the end of clearing yet?
   935  0F65  2F62               	goto	clrloop0	;have we reached the end yet?
   936  0F66  3400               	retlw	0	;all done for this memory range, return
   937                           
   938                           	psect	cstackCOMMON
   939  0070                     __pcstackCOMMON:	
   940  0070                     ?_ProcessUSBTransactions:	
   941  0070                     ?_IsUsbDataAvaialble:	
   942                           ; 1 bytes @ 0x0
   943                           
   944  0070                     ?_ReArmInterface:	
   945                           ; 1 bytes @ 0x0
   946                           
   947  0070                     ?_NES_read_pad:	
   948                           ; 1 bytes @ 0x0
   949                           
   950  0070                     ?_HIDSend:	
   951                           ; 1 bytes @ 0x0
   952                           
   953  0070                     ?_NES_GPIO_Initialize:	
   954                           ; 1 bytes @ 0x0
   955                           
   956  0070                     ?_InitializeUSB:	
   957                           ; 1 bytes @ 0x0
   958                           
   959  0070                     ?_EnableUSBModule:	
   960                           ; 1 bytes @ 0x0
   961                           
   962  0070                     ?_ISRCode:	
   963                           ; 1 bytes @ 0x0
   964                           
   965  0070                     ?_InitializeSystem:	
   966                           ; 1 bytes @ 0x0
   967                           
   968  0070                     ?_EnableInterrupts:	
   969                           ; 1 bytes @ 0x0
   970                           
   971  0070                     ?_PrepareTxBuffer:	
   972                           ; 1 bytes @ 0x0
   973                           
   974  0070                     ?_ProcessIncommingData:	
   975                           ; 1 bytes @ 0x0
   976                           
   977  0070                     ?_CheckUsb:	
   978                           ; 1 bytes @ 0x0
   979                           
   980  0070                     ?_ProcessIO:	
   981                           ; 1 bytes @ 0x0
   982                           
   983  0070                     ?_main:	
   984                           ; 1 bytes @ 0x0
   985                           
   986  0070                     ?_HIDInitEndpoints:	
   987                           ; 1 bytes @ 0x0
   988                           
   989  0070                     ??_HIDInitEndpoints:	
   990                           ; 1 bytes @ 0x0
   991                           
   992  0070                     ?_ProcessHIDRequest:	
   993                           ; 1 bytes @ 0x0
   994                           
   995  0070                     ??_ProcessHIDRequest:	
   996                           ; 1 bytes @ 0x0
   997                           
   998  0070                     ?_GetDescriptor:	
   999                           ; 1 bytes @ 0x0
  1000                           
  1001  0070                     ??_GetDescriptor:	
  1002                           ; 1 bytes @ 0x0
  1003                           
  1004  0070                     ?_GetStatus:	
  1005                           ; 1 bytes @ 0x0
  1006                           
  1007  0070                     ??_GetStatus:	
  1008                           ; 1 bytes @ 0x0
  1009                           
  1010  0070                     ?_SetFeature:	
  1011                           ; 1 bytes @ 0x0
  1012                           
  1013  0070                     ??_SetFeature:	
  1014                           ; 1 bytes @ 0x0
  1015                           
  1016  0070                     ?_ProcessStandardRequest:	
  1017                           ; 1 bytes @ 0x0
  1018                           
  1019  0070                     ?_InDataStage:	
  1020                           ; 1 bytes @ 0x0
  1021                           
  1022  0070                     ??_InDataStage:	
  1023                           ; 1 bytes @ 0x0
  1024                           
  1025  0070                     ?_OutDataStage:	
  1026                           ; 1 bytes @ 0x0
  1027                           
  1028  0070                     ??_OutDataStage:	
  1029                           ; 1 bytes @ 0x0
  1030                           
  1031  0070                     ?_SetupStage:	
  1032                           ; 1 bytes @ 0x0
  1033                           
  1034  0070                     ?_WaitForSetupStage:	
  1035                           ; 1 bytes @ 0x0
  1036                           
  1037  0070                     ??_WaitForSetupStage:	
  1038                           ; 1 bytes @ 0x0
  1039                           
  1040  0070                     ?_ProcessControlTransfer:	
  1041                           ; 1 bytes @ 0x0
  1042                           
  1043  0070                     ?_ResetPPBuffers:	
  1044                           ; 1 bytes @ 0x0
  1045                           
  1046  0070                     ?_UnSuspend:	
  1047                           ; 1 bytes @ 0x0
  1048                           
  1049  0070                     ??_UnSuspend:	
  1050                           ; 1 bytes @ 0x0
  1051                           
  1052  0070                     ?_StartOfFrame:	
  1053                           ; 1 bytes @ 0x0
  1054                           
  1055  0070                     ??_StartOfFrame:	
  1056                           ; 1 bytes @ 0x0
  1057                           
  1058  0070                     ?_Stall:	
  1059                           ; 1 bytes @ 0x0
  1060                           
  1061  0070                     ?_Suspend:	
  1062                           ; 1 bytes @ 0x0
  1063                           
  1064  0070                     ??_Suspend:	
  1065                           ; 1 bytes @ 0x0
  1066                           
  1067  0070                     ?_BusReset:	
  1068                           ; 1 bytes @ 0x0
  1069                           
  1070                           
  1071                           ; 1 bytes @ 0x0
  1072  0070                     	ds	1
  1073  0071                     ??_Stall:	
  1074  0071                     ??_BusReset:	
  1075                           ; 1 bytes @ 0x1
  1076                           
  1077  0071                     ProcessHIDRequest@descriptorType:	
  1078                           ; 1 bytes @ 0x1
  1079                           
  1080  0071                     OutDataStage@i:	
  1081                           ; 1 bytes @ 0x1
  1082                           
  1083                           
  1084                           ; 2 bytes @ 0x1
  1085  0071                     	ds	1
  1086  0072                     ProcessHIDRequest@bRequest:	
  1087  0072                     GetStatus@endpointNum:	
  1088                           ; 1 bytes @ 0x2
  1089                           
  1090  0072                     SetFeature@recipient:	
  1091                           ; 1 bytes @ 0x2
  1092                           
  1093  0072                     InDataStage@i:	
  1094                           ; 1 bytes @ 0x2
  1095                           
  1096                           
  1097                           ; 1 bytes @ 0x2
  1098  0072                     	ds	1
  1099  0073                     GetDescriptor@descriptorIndex:	
  1100  0073                     GetStatus@endpointDir:	
  1101                           ; 1 bytes @ 0x3
  1102                           
  1103  0073                     SetFeature@feature:	
  1104                           ; 1 bytes @ 0x3
  1105                           
  1106  0073                     InDataStage@bufferSize:	
  1107                           ; 1 bytes @ 0x3
  1108                           
  1109  0073                     OutDataStage@bufferSize:	
  1110                           ; 2 bytes @ 0x3
  1111                           
  1112                           
  1113                           ; 2 bytes @ 0x3
  1114  0073                     	ds	1
  1115  0074                     HIDInitEndpoints@i:	
  1116  0074                     GetDescriptor@descriptorType:	
  1117                           ; 1 bytes @ 0x4
  1118                           
  1119  0074                     GetStatus@recipient:	
  1120                           ; 1 bytes @ 0x4
  1121                           
  1122  0074                     SetFeature@endpointNum:	
  1123                           ; 1 bytes @ 0x4
  1124                           
  1125                           
  1126                           ; 1 bytes @ 0x4
  1127  0074                     	ds	1
  1128  0075                     SetFeature@endpointDir:	
  1129                           
  1130                           ; 1 bytes @ 0x5
  1131  0075                     	ds	1
  1132  0076                     ??_ProcessStandardRequest:	
  1133                           
  1134                           ; 1 bytes @ 0x6
  1135  0076                     	ds	1
  1136  0077                     ProcessStandardRequest@request:	
  1137                           
  1138                           ; 1 bytes @ 0x7
  1139  0077                     	ds	1
  1140  0078                     ??_SetupStage:	
  1141                           
  1142                           ; 1 bytes @ 0x8
  1143  0078                     	ds	1
  1144  0079                     ??_ProcessControlTransfer:	
  1145                           
  1146                           ; 1 bytes @ 0x9
  1147  0079                     	ds	2
  1148  007B                     ProcessControlTransfer@PID:	
  1149                           
  1150                           ; 1 bytes @ 0xB
  1151  007B                     	ds	1
  1152  007C                     ??_ProcessUSBTransactions:	
  1153                           
  1154                           ; 1 bytes @ 0xC
  1155  007C                     	ds	1
  1156  007D                     ??_ISRCode:	
  1157                           
  1158                           	psect	cstackBANK0
  1159  005C                     __pcstackBANK0:	
  1160                           ; 1 bytes @ 0xD
  1161                           
  1162  005C                     ??_IsUsbDataAvaialble:	
  1163  005C                     ??_ReArmInterface:	
  1164                           ; 1 bytes @ 0x0
  1165                           
  1166  005C                     ??_NES_read_pad:	
  1167                           ; 1 bytes @ 0x0
  1168                           
  1169  005C                     ??_HIDSend:	
  1170                           ; 1 bytes @ 0x0
  1171                           
  1172  005C                     ??_NES_GPIO_Initialize:	
  1173                           ; 1 bytes @ 0x0
  1174                           
  1175  005C                     ??_InitializeUSB:	
  1176                           ; 1 bytes @ 0x0
  1177                           
  1178  005C                     ??_EnableUSBModule:	
  1179                           ; 1 bytes @ 0x0
  1180                           
  1181  005C                     ??_InitializeSystem:	
  1182                           ; 1 bytes @ 0x0
  1183                           
  1184  005C                     ??_EnableInterrupts:	
  1185                           ; 1 bytes @ 0x0
  1186                           
  1187  005C                     ??_ProcessIncommingData:	
  1188                           ; 1 bytes @ 0x0
  1189                           
  1190  005C                     ??_ResetPPBuffers:	
  1191                           ; 1 bytes @ 0x0
  1192                           
  1193  005C                     ?___bmul:	
  1194                           ; 1 bytes @ 0x0
  1195                           
  1196  005C                     ___bmul@multiplicand:	
  1197                           ; 1 bytes @ 0x0
  1198                           
  1199                           
  1200                           ; 1 bytes @ 0x0
  1201  005C                     	ds	1
  1202  005D                     ??___bmul:	
  1203  005D                     IsUsbDataAvaialble@InterfaceNo:	
  1204                           ; 1 bytes @ 0x1
  1205                           
  1206                           
  1207                           ; 1 bytes @ 0x1
  1208  005D                     	ds	1
  1209  005E                     NES_read_pad@output:	
  1210  005E                     ___bmul@product:	
  1211                           ; 1 bytes @ 0x2
  1212                           
  1213                           
  1214                           ; 1 bytes @ 0x2
  1215  005E                     	ds	1
  1216  005F                     ReArmInterface@InterfaceNo:	
  1217  005F                     HIDSend@InterfaceNo:	
  1218                           ; 1 bytes @ 0x3
  1219                           
  1220  005F                     ___bmul@multiplier:	
  1221                           ; 1 bytes @ 0x3
  1222                           
  1223  005F                     NES_read_pad@i:	
  1224                           ; 1 bytes @ 0x3
  1225                           
  1226                           
  1227                           ; 2 bytes @ 0x3
  1228  005F                     	ds	1
  1229  0060                     ??_PrepareTxBuffer:	
  1230  0060                     ??_CheckUsb:	
  1231                           ; 1 bytes @ 0x4
  1232                           
  1233                           
  1234                           ; 1 bytes @ 0x4
  1235  0060                     	ds	1
  1236  0061                     PrepareTxBuffer@max_buttons:	
  1237                           
  1238                           ; 1 bytes @ 0x5
  1239  0061                     	ds	1
  1240  0062                     PrepareTxBuffer@key:	
  1241                           
  1242                           ; 2 bytes @ 0x6
  1243  0062                     	ds	2
  1244  0064                     PrepareTxBuffer@keypad_reading:	
  1245                           
  1246                           ; 1 bytes @ 0x8
  1247  0064                     	ds	1
  1248  0065                     PrepareTxBuffer@index:	
  1249                           
  1250                           ; 1 bytes @ 0x9
  1251  0065                     	ds	1
  1252  0066                     PrepareTxBuffer@n:	
  1253                           
  1254                           ; 1 bytes @ 0xA
  1255  0066                     	ds	1
  1256  0067                     PrepareTxBuffer@i:	
  1257                           
  1258                           ; 1 bytes @ 0xB
  1259  0067                     	ds	1
  1260  0068                     ??_ProcessIO:	
  1261                           
  1262                           ; 1 bytes @ 0xC
  1263  0068                     	ds	1
  1264  0069                     ProcessIO@reading:	
  1265                           
  1266                           ; 1 bytes @ 0xD
  1267  0069                     	ds	1
  1268  006A                     ??_main:	
  1269                           
  1270                           	psect	maintext
  1271  0FD5                     __pmaintext:	
  1272                           ; 1 bytes @ 0xE
  1273 ;;
  1274 ;;Main: autosize = 0, tempsize = 0, incstack = 0, save=0
  1275 ;;
  1276 ;; *************** function _main *****************
  1277 ;; Defined at:
  1278 ;;		line 177 in file "Source/Main.c"
  1279 ;; Parameters:    Size  Location     Type
  1280 ;;		None
  1281 ;; Auto vars:     Size  Location     Type
  1282 ;;		None
  1283 ;; Return value:  Size  Location     Type
  1284 ;;                  1    wreg      void 
  1285 ;; Registers used:
  1286 ;;		wreg, fsr1l, fsr1h, status,2, status,0, pclath, cstack
  1287 ;; Tracked objects:
  1288 ;;		On entry : B1F/0
  1289 ;;		On exit  : 0/0
  1290 ;;		Unchanged: 0/0
  1291 ;; Data sizes:     COMMON   BANK0   BANK1   BANK2   BANK3   BANK4   BANK5   BANK6   BANK7   BANK8   BANK9  BANK10  BANK1
      +1  BANK12
  1292 ;;      Params:         0       0       0       0       0       0       0       0       0       0       0       0       
      +0       0
  1293 ;;      Locals:         0       0       0       0       0       0       0       0       0       0       0       0       
      +0       0
  1294 ;;      Temps:          0       0       0       0       0       0       0       0       0       0       0       0       
      +0       0
  1295 ;;      Totals:         0       0       0       0       0       0       0       0       0       0       0       0       
      +0       0
  1296 ;;Total ram usage:        0 bytes
  1297 ;; Hardware stack levels required when called:    9
  1298 ;; This function calls:
  1299 ;;		_EnableInterrupts
  1300 ;;		_EnableUSBModule
  1301 ;;		_InitializeSystem
  1302 ;;		_InitializeUSB
  1303 ;;		_NES_GPIO_Initialize
  1304 ;;		_ProcessIO
  1305 ;; This function is called by:
  1306 ;;		Startup code after reset
  1307 ;; This function uses a non-reentrant model
  1308 ;;
  1309                           
  1310                           
  1311                           ;psect for function _main
  1312  0FD5                     _main:	
  1313  0FD5                     l2484:	
  1314                           ;incstack = 0
  1315                           ; Regs used in _main: [wreg+fsr1l+fsr1h+status,2+status,0+pclath+cstack]
  1316                           
  1317                           
  1318                           ;Source/Main.c: 179:     InitializeSystem();
  1319  0FD5  318F  27A4  318F   	fcall	_InitializeSystem
  1320  0FD8                     l2486:	
  1321                           
  1322                           ;Source/Main.c: 180:     NES_GPIO_Initialize();
  1323  0FD8  318F  277F  318F   	fcall	_NES_GPIO_Initialize
  1324  0FDB                     l2488:	
  1325                           
  1326                           ;Source/Main.c: 181:     InitializeUSB();
  1327  0FDB  318F  27B4  318F   	fcall	_InitializeUSB
  1328  0FDE                     l2490:	
  1329                           
  1330                           ;Source/Main.c: 182:     EnableUSBModule();
  1331  0FDE  3187  27E0  318F   	fcall	_EnableUSBModule
  1332  0FE1                     l2492:	
  1333                           
  1334                           ;Source/Main.c: 183:     EnableInterrupts();
  1335  0FE1  318F  2777  318F   	fcall	_EnableInterrupts
  1336  0FE4                     l2494:	
  1337  0FE4  3186  26F9  318F   	fcall	_ProcessIO
  1338  0FE7  2FE4               	goto	l2494
  1339  0FE8  3180  2810         	ljmp	start
  1340  0FEA                     __end_of_main:	
  1341                           
  1342                           	psect	text1
  1343  06F9                     __ptext1:	
  1344 ;; *************** function _ProcessIO *****************
  1345 ;; Defined at:
  1346 ;;		line 160 in file "Source/Main.c"
  1347 ;; Parameters:    Size  Location     Type
  1348 ;;		None
  1349 ;; Auto vars:     Size  Location     Type
  1350 ;;  reading         1   13[BANK0 ] unsigned char 
  1351 ;; Return value:  Size  Location     Type
  1352 ;;                  1    wreg      void 
  1353 ;; Registers used:
  1354 ;;		wreg, fsr1l, fsr1h, status,2, status,0, pclath, cstack
  1355 ;; Tracked objects:
  1356 ;;		On entry : 0/0
  1357 ;;		On exit  : 0/0
  1358 ;;		Unchanged: 0/0
  1359 ;; Data sizes:     COMMON   BANK0   BANK1   BANK2   BANK3   BANK4   BANK5   BANK6   BANK7   BANK8   BANK9  BANK10  BANK1
      +1  BANK12
  1360 ;;      Params:         0       0       0       0       0       0       0       0       0       0       0       0       
      +0       0
  1361 ;;      Locals:         0       1       0       0       0       0       0       0       0       0       0       0       
      +0       0
  1362 ;;      Temps:          0       1       0       0       0       0       0       0       0       0       0       0       
      +0       0
  1363 ;;      Totals:         0       2       0       0       0       0       0       0       0       0       0       0       
      +0       0
  1364 ;;Total ram usage:        2 bytes
  1365 ;; Hardware stack levels used:    1
  1366 ;; Hardware stack levels required when called:    8
  1367 ;; This function calls:
  1368 ;;		_CheckUsb
  1369 ;;		_HIDSend
  1370 ;;		_NES_read_pad
  1371 ;;		_PrepareTxBuffer
  1372 ;; This function is called by:
  1373 ;;		_main
  1374 ;; This function uses a non-reentrant model
  1375 ;;
  1376                           
  1377                           
  1378                           ;psect for function _ProcessIO
  1379  06F9                     _ProcessIO:	
  1380  06F9                     l2430:	
  1381                           ;incstack = 0
  1382                           ; Regs used in _ProcessIO: [wreg+fsr1l+fsr1h+status,2+status,0+pclath+cstack]
  1383                           
  1384                           
  1385                           ;Source/Main.c: 163:     if (((DeviceState == 0x05) && (UCONbits.SUSPND==0))) CheckUsb()
      +                          ;
  1386  06F9  3005               	movlw	5
  1387  06FA  0020               	movlb	0	; select bank0
  1388  06FB  063F               	xorwf	_DeviceState,w
  1389  06FC  1D03               	btfss	3,2
  1390  06FD  2EFF               	goto	u2611
  1391  06FE  2F00               	goto	u2610
  1392  06FF                     u2611:	
  1393  06FF  2F08               	goto	l2436
  1394  0700                     u2610:	
  1395  0700                     l2432:	
  1396  0700  003D               	movlb	29	; select bank29
  1397  0701  188E               	btfsc	14,1	;volatile
  1398  0702  2F04               	goto	u2621
  1399  0703  2F05               	goto	u2620
  1400  0704                     u2621:	
  1401  0704  2F08               	goto	l2436
  1402  0705                     u2620:	
  1403  0705                     l2434:	
  1404  0705  318F  27C4  3186   	fcall	_CheckUsb
  1405  0708                     l2436:	
  1406                           
  1407                           ;Source/Main.c: 166:     uint8_t reading = NES_read_pad();
  1408  0708  3186  2689  3186   	fcall	_NES_read_pad
  1409  070B  0020               	movlb	0	; select bank0
  1410  070C  00E8               	movwf	??_ProcessIO
  1411  070D  0868               	movf	??_ProcessIO,w
  1412  070E  00E9               	movwf	ProcessIO@reading
  1413  070F                     l2438:	
  1414                           
  1415                           ;Source/Main.c: 167:     if (reading == last_keypad_reading ) return;
  1416  070F  0869               	movf	ProcessIO@reading,w
  1417  0710  063E               	xorwf	_last_keypad_reading,w
  1418  0711  1D03               	skipz
  1419  0712  2F14               	goto	u2631
  1420  0713  2F15               	goto	u2630
  1421  0714                     u2631:	
  1422  0714  2F16               	goto	l2442
  1423  0715                     u2630:	
  1424  0715  2F23               	goto	l110
  1425  0716                     l2442:	
  1426                           
  1427                           ;Source/Main.c: 170:     PrepareTxBuffer(reading);
  1428  0716  0869               	movf	ProcessIO@reading,w
  1429  0717  3183  2309  3186   	fcall	_PrepareTxBuffer
  1430                           
  1431                           ;Source/Main.c: 171:     HIDSend(0x00);
  1432  071A  3000               	movlw	0
  1433  071B  3185  2595  3186   	fcall	_HIDSend
  1434  071E                     l2444:	
  1435                           
  1436                           ;Source/Main.c: 174:     last_keypad_reading = reading;
  1437  071E  0020               	movlb	0	; select bank0
  1438  071F  0869               	movf	ProcessIO@reading,w
  1439  0720  00E8               	movwf	??_ProcessIO
  1440  0721  0868               	movf	??_ProcessIO,w
  1441  0722  00BE               	movwf	_last_keypad_reading
  1442  0723                     l110:	
  1443  0723  0008               	return
  1444  0724                     __end_of_ProcessIO:	
  1445                           
  1446                           	psect	text2
  1447  0309                     __ptext2:	
  1448 ;; *************** function _PrepareTxBuffer *****************
  1449 ;; Defined at:
  1450 ;;		line 88 in file "Source/Main.c"
  1451 ;; Parameters:    Size  Location     Type
  1452 ;;  keypad_readi    1    wreg     unsigned char 
  1453 ;; Auto vars:     Size  Location     Type
  1454 ;;  keypad_readi    1    8[BANK0 ] unsigned char 
  1455 ;;  key             2    6[BANK0 ] unsigned short 
  1456 ;;  i               1   11[BANK0 ] unsigned char 
  1457 ;;  index           1    9[BANK0 ] unsigned char 
  1458 ;;  max_buttons     1    5[BANK0 ] unsigned char 
  1459 ;;  n               1   10[BANK0 ] unsigned char 
  1460 ;; Return value:  Size  Location     Type
  1461 ;;                  1    wreg      void 
  1462 ;; Registers used:
  1463 ;;		wreg, fsr1l, fsr1h, status,2, status,0, pclath, cstack
  1464 ;; Tracked objects:
  1465 ;;		On entry : 0/0
  1466 ;;		On exit  : 0/0
  1467 ;;		Unchanged: 0/0
  1468 ;; Data sizes:     COMMON   BANK0   BANK1   BANK2   BANK3   BANK4   BANK5   BANK6   BANK7   BANK8   BANK9  BANK10  BANK1
      +1  BANK12
  1469 ;;      Params:         0       0       0       0       0       0       0       0       0       0       0       0       
      +0       0
  1470 ;;      Locals:         0       7       0       0       0       0       0       0       0       0       0       0       
      +0       0
  1471 ;;      Temps:          0       1       0       0       0       0       0       0       0       0       0       0       
      +0       0
  1472 ;;      Totals:         0       8       0       0       0       0       0       0       0       0       0       0       
      +0       0
  1473 ;;Total ram usage:        8 bytes
  1474 ;; Hardware stack levels used:    1
  1475 ;; Hardware stack levels required when called:    7
  1476 ;; This function calls:
  1477 ;;		___bmul
  1478 ;; This function is called by:
  1479 ;;		_ProcessIO
  1480 ;; This function uses a non-reentrant model
  1481 ;;
  1482                           
  1483                           
  1484                           ;psect for function _PrepareTxBuffer
  1485  0309                     _PrepareTxBuffer:	
  1486                           
  1487                           ;incstack = 0
  1488                           ; Regs used in _PrepareTxBuffer: [wreg+fsr1l+fsr1h+status,2+status,0+pclath+cstack]
  1489                           ;PrepareTxBuffer@keypad_reading stored from wreg
  1490  0309  0020               	movlb	0	; select bank0
  1491  030A  00E4               	movwf	PrepareTxBuffer@keypad_reading
  1492  030B                     l2170:	
  1493                           
  1494                           ;Source/Main.c: 88: void PrepareTxBuffer(uint8_t keypad_reading);Source/Main.c: 89: {;So
      +                          urce/Main.c: 91:     uint8_t n;;Source/Main.c: 94:     for(n = 0 ; n < 0x08; n++)
  1495  030B  01E6               	clrf	PrepareTxBuffer@n
  1496  030C                     l2176:	
  1497                           
  1498                           ;Source/Main.c: 95:     {;Source/Main.c: 96:         HIDTxBuffer[n] = 0x00;
  1499  030C  0866               	movf	PrepareTxBuffer@n,w
  1500  030D  3E51               	addlw	(low (_HIDTxBuffer| 0))& (0+255)
  1501  030E  0086               	movwf	6
  1502  030F  0187               	clrf	7
  1503  0310  0181               	clrf	1
  1504  0311                     l2178:	
  1505                           
  1506                           ;Source/Main.c: 97:     }
  1507  0311  3001               	movlw	1
  1508  0312  00E0               	movwf	??_PrepareTxBuffer
  1509  0313  0860               	movf	??_PrepareTxBuffer,w
  1510  0314  07E6               	addwf	PrepareTxBuffer@n,f
  1511  0315                     l2180:	
  1512  0315  3008               	movlw	8
  1513  0316  0266               	subwf	PrepareTxBuffer@n,w
  1514  0317  1C03               	skipc
  1515  0318  2B1A               	goto	u2141
  1516  0319  2B1B               	goto	u2140
  1517  031A                     u2141:	
  1518  031A  2B0C               	goto	l2176
  1519  031B                     u2140:	
  1520  031B                     l2182:	
  1521                           
  1522                           ;Source/Main.c: 100:     if ( keypad_reading > 0)
  1523  031B  0864               	movf	PrepareTxBuffer@keypad_reading,w
  1524  031C  1903               	btfsc	3,2
  1525  031D  2B1F               	goto	u2151
  1526  031E  2B20               	goto	u2150
  1527  031F                     u2151:	
  1528  031F  2B82               	goto	l96
  1529  0320                     u2150:	
  1530  0320                     l86:	
  1531                           ;Source/Main.c: 101:     {;Source/Main.c: 102:         do { PORTAbits.RA4 = 1; } while(0
      +                          );
  1532                           
  1533  0320  160C               	bsf	12,4	;volatile
  1534  0321                     l2184:	
  1535                           
  1536                           ;Source/Main.c: 104:         uint8_t i = 0;
  1537  0321  01E7               	clrf	PrepareTxBuffer@i
  1538  0322                     l2186:	
  1539                           
  1540                           ;Source/Main.c: 105:         uint8_t index = 2;
  1541  0322  3002               	movlw	2
  1542  0323  00E0               	movwf	??_PrepareTxBuffer
  1543  0324  0860               	movf	??_PrepareTxBuffer,w
  1544  0325  00E5               	movwf	PrepareTxBuffer@index
  1545  0326                     l2188:	
  1546                           
  1547                           ;Source/Main.c: 107:         uint8_t max_buttons = 6;
  1548  0326  3006               	movlw	6
  1549  0327  00E0               	movwf	??_PrepareTxBuffer
  1550  0328  0860               	movf	??_PrepareTxBuffer,w
  1551  0329  00E1               	movwf	PrepareTxBuffer@max_buttons
  1552                           
  1553                           ;Source/Main.c: 108:         while( button_key_maps[i].button != ((void*)0) )
  1554  032A  2B71               	goto	l2208
  1555  032B                     l2190:	
  1556                           
  1557                           ;Source/Main.c: 109:         {;Source/Main.c: 110:             if ( (keypad_reading & bu
      +                          tton_key_maps[i].button) > 0)
  1558  032B  3003               	movlw	3
  1559  032C  0020               	movlb	0	; select bank0
  1560  032D  00E0               	movwf	??_PrepareTxBuffer
  1561  032E  0860               	movf	??_PrepareTxBuffer,w
  1562  032F  00DC               	movwf	___bmul@multiplicand
  1563  0330  0867               	movf	PrepareTxBuffer@i,w
  1564  0331  318F  27EA  3183   	fcall	___bmul
  1565  0334  3EA0               	addlw	(low (_button_key_maps| 0))& (0+255)
  1566  0335  0086               	movwf	6
  1567  0336  0187               	clrf	7
  1568  0337  0801               	movf	1,w
  1569  0338  0020               	movlb	0	; select bank0
  1570  0339  0564               	andwf	PrepareTxBuffer@keypad_reading,w
  1571  033A  1903               	btfsc	3,2
  1572  033B  2B3D               	goto	u2161
  1573  033C  2B3E               	goto	u2160
  1574  033D                     u2161:	
  1575  033D  2B6D               	goto	l2206
  1576  033E                     u2160:	
  1577  033E                     l2192:	
  1578                           
  1579                           ;Source/Main.c: 111:             {;Source/Main.c: 112:                 uint16_t key = bu
      +                          tton_key_maps[i].key;
  1580  033E  3003               	movlw	3
  1581  033F  00E0               	movwf	??_PrepareTxBuffer
  1582  0340  0860               	movf	??_PrepareTxBuffer,w
  1583  0341  00DC               	movwf	___bmul@multiplicand
  1584  0342  0867               	movf	PrepareTxBuffer@i,w
  1585  0343  318F  27EA  3183   	fcall	___bmul
  1586  0346  3EA1               	addlw	(low ((_button_key_maps| 0+1)))& (0+255)
  1587  0347  0086               	movwf	6
  1588  0348  0187               	clrf	7
  1589  0349  3F40               	moviw [0]fsr1
  1590  034A  0020               	movlb	0	; select bank0
  1591  034B  00E2               	movwf	PrepareTxBuffer@key
  1592  034C  3F41               	moviw [1]fsr1
  1593  034D  00E3               	movwf	PrepareTxBuffer@key+1
  1594  034E                     l2194:	
  1595                           
  1596                           ;Source/Main.c: 114:                 if (key == 0xe5)
  1597  034E  30E5               	movlw	229
  1598  034F  0662               	xorwf	PrepareTxBuffer@key,w
  1599  0350  0463               	iorwf	PrepareTxBuffer@key+1,w
  1600  0351  1D03               	btfss	3,2
  1601  0352  2B54               	goto	u2171
  1602  0353  2B55               	goto	u2170
  1603  0354                     u2171:	
  1604  0354  2B5A               	goto	l2198
  1605  0355                     u2170:	
  1606  0355                     l2196:	
  1607                           
  1608                           ;Source/Main.c: 115:                 {;Source/Main.c: 116:                     HIDTxBuff
      +                          er[0] = 0x20;
  1609  0355  3020               	movlw	32
  1610  0356  00E0               	movwf	??_PrepareTxBuffer
  1611  0357  0860               	movf	??_PrepareTxBuffer,w
  1612  0358  00D1               	movwf	_HIDTxBuffer	;volatile
  1613                           
  1614                           ;Source/Main.c: 118:                 }
  1615  0359  2B6D               	goto	l2206
  1616  035A                     l2198:	
  1617                           
  1618                           ;Source/Main.c: 120:                 {;Source/Main.c: 123:                     HIDTxBuff
      +                          er[index++] = key;
  1619  035A  0862               	movf	PrepareTxBuffer@key,w
  1620  035B  00E0               	movwf	??_PrepareTxBuffer
  1621  035C  0865               	movf	PrepareTxBuffer@index,w
  1622  035D  3E51               	addlw	(low (_HIDTxBuffer| 0))& (0+255)
  1623  035E  0086               	movwf	6
  1624  035F  0187               	clrf	7
  1625  0360  0860               	movf	??_PrepareTxBuffer,w
  1626  0361  0081               	movwf	1
  1627  0362                     l2200:	
  1628  0362  3001               	movlw	1
  1629  0363  00E0               	movwf	??_PrepareTxBuffer
  1630  0364  0860               	movf	??_PrepareTxBuffer,w
  1631  0365  07E5               	addwf	PrepareTxBuffer@index,f
  1632  0366                     l2202:	
  1633                           
  1634                           ;Source/Main.c: 124:                     if (index > max_buttons)
  1635  0366  0865               	movf	PrepareTxBuffer@index,w
  1636  0367  0261               	subwf	PrepareTxBuffer@max_buttons,w
  1637  0368  1803               	skipnc
  1638  0369  2B6B               	goto	u2181
  1639  036A  2B6C               	goto	u2180
  1640  036B                     u2181:	
  1641  036B  2B6D               	goto	l2206
  1642  036C                     u2180:	
  1643  036C  2B83               	goto	l98
  1644  036D                     l2206:	
  1645                           
  1646                           ;Source/Main.c: 132:             i++;
  1647  036D  3001               	movlw	1
  1648  036E  00E0               	movwf	??_PrepareTxBuffer
  1649  036F  0860               	movf	??_PrepareTxBuffer,w
  1650  0370  07E7               	addwf	PrepareTxBuffer@i,f
  1651  0371                     l2208:	
  1652                           
  1653                           ;Source/Main.c: 108:         while( button_key_maps[i].button != ((void*)0) )
  1654  0371  3003               	movlw	3
  1655  0372  00E0               	movwf	??_PrepareTxBuffer
  1656  0373  0860               	movf	??_PrepareTxBuffer,w
  1657  0374  00DC               	movwf	___bmul@multiplicand
  1658  0375  0867               	movf	PrepareTxBuffer@i,w
  1659  0376  318F  27EA  3183   	fcall	___bmul
  1660  0379  3EA0               	addlw	(low (_button_key_maps| 0))& (0+255)
  1661  037A  0086               	movwf	6
  1662  037B  0187               	clrf	7
  1663  037C  0801               	movf	1,w
  1664  037D  1D03               	btfss	3,2
  1665  037E  2B80               	goto	u2191
  1666  037F  2B81               	goto	u2190
  1667  0380                     u2191:	
  1668  0380  2B2B               	goto	l2190
  1669  0381                     u2190:	
  1670  0381  2B83               	goto	l98
  1671  0382                     l96:	
  1672                           ;Source/Main.c: 136:     {;Source/Main.c: 137:         do { PORTAbits.RA4 = 0; } while(0
      +                          );
  1673                           
  1674  0382  120C               	bcf	12,4	;volatile
  1675  0383                     l98:	
  1676  0383  0008               	return
  1677  0384                     __end_of_PrepareTxBuffer:	
  1678                           
  1679                           	psect	text3
  1680  0FEA                     __ptext3:	
  1681 ;; *************** function ___bmul *****************
  1682 ;; Defined at:
  1683 ;;		line 4 in file "C:\Program Files (x86)\Microchip\xc8\v2.10\pic\sources\c99\common\Umul8.c"
  1684 ;; Parameters:    Size  Location     Type
  1685 ;;  multiplier      1    wreg     unsigned char 
  1686 ;;  multiplicand    1    0[BANK0 ] unsigned char 
  1687 ;; Auto vars:     Size  Location     Type
  1688 ;;  multiplier      1    3[BANK0 ] unsigned char 
  1689 ;;  product         1    2[BANK0 ] unsigned char 
  1690 ;; Return value:  Size  Location     Type
  1691 ;;                  1    wreg      unsigned char 
  1692 ;; Registers used:
  1693 ;;		wreg, status,2, status,0
  1694 ;; Tracked objects:
  1695 ;;		On entry : 0/0
  1696 ;;		On exit  : 0/0
  1697 ;;		Unchanged: 0/0
  1698 ;; Data sizes:     COMMON   BANK0   BANK1   BANK2   BANK3   BANK4   BANK5   BANK6   BANK7   BANK8   BANK9  BANK10  BANK1
      +1  BANK12
  1699 ;;      Params:         0       1       0       0       0       0       0       0       0       0       0       0       
      +0       0
  1700 ;;      Locals:         0       2       0       0       0       0       0       0       0       0       0       0       
      +0       0
  1701 ;;      Temps:          0       1       0       0       0       0       0       0       0       0       0       0       
      +0       0
  1702 ;;      Totals:         0       4       0       0       0       0       0       0       0       0       0       0       
      +0       0
  1703 ;;Total ram usage:        4 bytes
  1704 ;; Hardware stack levels used:    1
  1705 ;; Hardware stack levels required when called:    6
  1706 ;; This function calls:
  1707 ;;		Nothing
  1708 ;; This function is called by:
  1709 ;;		_PrepareTxBuffer
  1710 ;;		_ReArmInterface
  1711 ;;		_HIDSend
  1712 ;;		_HIDInitEndpoints
  1713 ;; This function uses a non-reentrant model
  1714 ;;
  1715                           
  1716                           
  1717                           ;psect for function ___bmul
  1718  0FEA                     ___bmul:	
  1719                           
  1720                           ;incstack = 0
  1721                           ; Regs used in ___bmul: [wreg+status,2+status,0]
  1722                           ;___bmul@multiplier stored from wreg
  1723  0FEA  0020               	movlb	0	; select bank0
  1724  0FEB  00DF               	movwf	___bmul@multiplier
  1725  0FEC                     l2156:	
  1726  0FEC  01DE               	clrf	___bmul@product
  1727  0FED                     l2158:	
  1728  0FED  1C5F               	btfss	___bmul@multiplier,0
  1729  0FEE  2FF0               	goto	u2121
  1730  0FEF  2FF1               	goto	u2120
  1731  0FF0                     u2121:	
  1732  0FF0  2FF5               	goto	l2162
  1733  0FF1                     u2120:	
  1734  0FF1                     l2160:	
  1735  0FF1  085C               	movf	___bmul@multiplicand,w
  1736  0FF2  00DD               	movwf	??___bmul
  1737  0FF3  085D               	movf	??___bmul,w
  1738  0FF4  07DE               	addwf	___bmul@product,f
  1739  0FF5                     l2162:	
  1740  0FF5  1003               	clrc
  1741  0FF6  0DDC               	rlf	___bmul@multiplicand,f
  1742  0FF7                     l2164:	
  1743  0FF7  1003               	clrc
  1744  0FF8  0CDF               	rrf	___bmul@multiplier,f
  1745  0FF9  085F               	movf	___bmul@multiplier,w
  1746  0FFA  1D03               	btfss	3,2
  1747  0FFB  2FFD               	goto	u2131
  1748  0FFC  2FFE               	goto	u2130
  1749  0FFD                     u2131:	
  1750  0FFD  2FED               	goto	l2158
  1751  0FFE                     u2130:	
  1752  0FFE                     l2166:	
  1753  0FFE  085E               	movf	___bmul@product,w
  1754  0FFF                     l546:	
  1755  0FFF  0008               	return
  1756  1000                     __end_of___bmul:	
  1757                           
  1758                           	psect	text4
  1759  0689                     __ptext4:	
  1760 ;; *************** function _NES_read_pad *****************
  1761 ;; Defined at:
  1762 ;;		line 53 in file "Source/nes_keyboard.c"
  1763 ;; Parameters:    Size  Location     Type
  1764 ;;		None
  1765 ;; Auto vars:     Size  Location     Type
  1766 ;;  i               2    3[BANK0 ] int 
  1767 ;;  output          1    2[BANK0 ] unsigned char 
  1768 ;; Return value:  Size  Location     Type
  1769 ;;                  1    wreg      unsigned char 
  1770 ;; Registers used:
  1771 ;;		wreg, status,2, status,0
  1772 ;; Tracked objects:
  1773 ;;		On entry : 0/0
  1774 ;;		On exit  : 0/0
  1775 ;;		Unchanged: 0/0
  1776 ;; Data sizes:     COMMON   BANK0   BANK1   BANK2   BANK3   BANK4   BANK5   BANK6   BANK7   BANK8   BANK9  BANK10  BANK1
      +1  BANK12
  1777 ;;      Params:         0       0       0       0       0       0       0       0       0       0       0       0       
      +0       0
  1778 ;;      Locals:         0       3       0       0       0       0       0       0       0       0       0       0       
      +0       0
  1779 ;;      Temps:          0       2       0       0       0       0       0       0       0       0       0       0       
      +0       0
  1780 ;;      Totals:         0       5       0       0       0       0       0       0       0       0       0       0       
      +0       0
  1781 ;;Total ram usage:        5 bytes
  1782 ;; Hardware stack levels used:    1
  1783 ;; Hardware stack levels required when called:    6
  1784 ;; This function calls:
  1785 ;;		Nothing
  1786 ;; This function is called by:
  1787 ;;		_ProcessIO
  1788 ;; This function uses a non-reentrant model
  1789 ;;
  1790                           
  1791                           
  1792                           ;psect for function _NES_read_pad
  1793  0689                     _NES_read_pad:	
  1794  0689                     l442:	
  1795                           ;incstack = 0
  1796                           ; Regs used in _NES_read_pad: [wreg+status,2+status,0]
  1797                           ;Source/nes_keyboard.c: 74:   do { LATCbits.LATC4 = 1; } while(0);
  1798                           
  1799  0689  0022               	movlb	2	; select bank2
  1800  068A  160E               	bsf	14,4	;volatile
  1801  068B                     l2216:	
  1802                           
  1803                           ;Source/nes_keyboard.c: 75:   _delay((unsigned long)((12)*(48000000L/4000000.0)));
  1804  068B  3030               	movlw	48
  1805  068C                     u2697:	
  1806  068C  0B89               	decfsz	9,f
  1807  068D  2E8C               	goto	u2697
  1808  068E                     l2218:	
  1809  068E  0022               	movlb	2	; select bank2
  1810  068F  120E               	bcf	14,4	;volatile
  1811  0690                     l2220:	
  1812                           
  1813                           ;Source/nes_keyboard.c: 80:   uint8_t output = 0x00;
  1814  0690  0020               	movlb	0	; select bank0
  1815  0691  01DE               	clrf	NES_read_pad@output
  1816  0692                     l2222:	
  1817                           
  1818                           ;Source/nes_keyboard.c: 81:   int i;;Source/nes_keyboard.c: 82:   for ( i = 0; i < 8; i+
      +                          +)
  1819  0692  01DF               	clrf	NES_read_pad@i
  1820  0693  01E0               	clrf	NES_read_pad@i+1
  1821  0694                     l2226:	
  1822                           
  1823                           ;Source/nes_keyboard.c: 83:   {;Source/nes_keyboard.c: 84:       output |= !( (PORTCbits
      +                          .RC3 & 0x1)) << i;
  1824  0694  1003               	clrc
  1825  0695  0020               	movlb	0	; select bank0
  1826  0696  1D8E               	btfss	14,3	;volatile
  1827  0697  1403               	setc
  1828  0698  3000               	movlw	0
  1829  0699  3D09               	addwfc	9,w
  1830  069A  00DC               	movwf	??_NES_read_pad
  1831  069B  0A5F               	incf	NES_read_pad@i,w
  1832  069C  2E9E               	goto	u2214
  1833  069D                     u2215:	
  1834  069D  35DC               	lslf	??_NES_read_pad,f
  1835  069E                     u2214:	
  1836  069E  0B89               	decfsz	9,f
  1837  069F  2E9D               	goto	u2215
  1838  06A0  085C               	movf	??_NES_read_pad,w
  1839  06A1  00DD               	movwf	??_NES_read_pad+1
  1840  06A2  085D               	movf	??_NES_read_pad+1,w
  1841  06A3  04DE               	iorwf	NES_read_pad@output,f
  1842  06A4                     l2228:	
  1843  06A4  0022               	movlb	2	; select bank2
  1844  06A5  168E               	bsf	14,5	;volatile
  1845  06A6                     l2230:	
  1846                           
  1847                           ;Source/nes_keyboard.c: 86:       _delay((unsigned long)((6)*(48000000L/4000000.0)));
  1848  06A6  3018               	movlw	24
  1849  06A7                     u2707:	
  1850  06A7  0B89               	decfsz	9,f
  1851  06A8  2EA7               	goto	u2707
  1852  06A9                     l2232:	
  1853  06A9  0022               	movlb	2	; select bank2
  1854  06AA  128E               	bcf	14,5	;volatile
  1855  06AB                     l2234:	
  1856                           
  1857                           ;Source/nes_keyboard.c: 88:       _delay((unsigned long)((6)*(48000000L/4000000.0)));
  1858  06AB  3018               	movlw	24
  1859  06AC                     u2717:	
  1860  06AC  0B89               	decfsz	9,f
  1861  06AD  2EAC               	goto	u2717
  1862  06AE                     l2236:	
  1863                           
  1864                           ;Source/nes_keyboard.c: 89:   }
  1865  06AE  3001               	movlw	1
  1866  06AF  0020               	movlb	0	; select bank0
  1867  06B0  07DF               	addwf	NES_read_pad@i,f
  1868  06B1  3000               	movlw	0
  1869  06B2  3DE0               	addwfc	NES_read_pad@i+1,f
  1870  06B3                     l2238:	
  1871  06B3  0860               	movf	NES_read_pad@i+1,w
  1872  06B4  3A80               	xorlw	128
  1873  06B5  00DC               	movwf	??_NES_read_pad
  1874  06B6  3080               	movlw	128
  1875  06B7  025C               	subwf	??_NES_read_pad,w
  1876  06B8  1D03               	skipz
  1877  06B9  2EBC               	goto	u2225
  1878  06BA  3008               	movlw	8
  1879  06BB  025F               	subwf	NES_read_pad@i,w
  1880  06BC                     u2225:	
  1881  06BC  1C03               	skipc
  1882  06BD  2EBF               	goto	u2221
  1883  06BE  2EC0               	goto	u2220
  1884  06BF                     u2221:	
  1885  06BF  2E94               	goto	l2226
  1886  06C0                     u2220:	
  1887  06C0                     l2240:	
  1888                           
  1889                           ;Source/nes_keyboard.c: 91:   return output;
  1890  06C0  0020               	movlb	0	; select bank0
  1891  06C1  085E               	movf	NES_read_pad@output,w
  1892  06C2                     l452:	
  1893  06C2  0008               	return
  1894  06C3                     __end_of_NES_read_pad:	
  1895                           
  1896                           	psect	text5
  1897  0595                     __ptext5:	
  1898 ;; *************** function _HIDSend *****************
  1899 ;; Defined at:
  1900 ;;		line 216 in file "Source/Usb.c"
  1901 ;; Parameters:    Size  Location     Type
  1902 ;;  InterfaceNo     1    wreg     unsigned char 
  1903 ;; Auto vars:     Size  Location     Type
  1904 ;;  InterfaceNo     1    3[BANK0 ] unsigned char 
  1905 ;; Return value:  Size  Location     Type
  1906 ;;                  1    wreg      void 
  1907 ;; Registers used:
  1908 ;;		wreg, fsr1l, fsr1h, status,2, status,0
  1909 ;; Tracked objects:
  1910 ;;		On entry : 0/0
  1911 ;;		On exit  : 0/0
  1912 ;;		Unchanged: 0/0
  1913 ;; Data sizes:     COMMON   BANK0   BANK1   BANK2   BANK3   BANK4   BANK5   BANK6   BANK7   BANK8   BANK9  BANK10  BANK1
      +1  BANK12
  1914 ;;      Params:         0       0       0       0       0       0       0       0       0       0       0       0       
      +0       0
  1915 ;;      Locals:         0       1       0       0       0       0       0       0       0       0       0       0       
      +0       0
  1916 ;;      Temps:          0       3       0       0       0       0       0       0       0       0       0       0       
      +0       0
  1917 ;;      Totals:         0       4       0       0       0       0       0       0       0       0       0       0       
      +0       0
  1918 ;;Total ram usage:        4 bytes
  1919 ;; Hardware stack levels used:    1
  1920 ;; Hardware stack levels required when called:    6
  1921 ;; This function calls:
  1922 ;;		Nothing
  1923 ;; This function is called by:
  1924 ;;		_ProcessIO
  1925 ;; This function uses a non-reentrant model
  1926 ;;
  1927                           
  1928                           
  1929                           ;psect for function _HIDSend
  1930  0595                     _HIDSend:	
  1931                           
  1932                           ;incstack = 0
  1933                           ; Regs used in _HIDSend: [wreg+fsr1l+fsr1h+status,2+status,0]
  1934                           ;HIDSend@InterfaceNo stored from wreg
  1935  0595  0020               	movlb	0	; select bank0
  1936  0596  00DF               	movwf	HIDSend@InterfaceNo
  1937  0597                     l2244:	
  1938                           
  1939                           ;Source/Usb.c: 216: void HIDSend(uint8_t InterfaceNo);Source/Usb.c: 217: {;Source/Usb.c:
      +                           219:     if (Interfaces[InterfaceNo + 1].Input.Stat & 0x80) return;
  1940  0597  085F               	movf	HIDSend@InterfaceNo,w
  1941  0598  00DC               	movwf	??_HIDSend
  1942  0599  3002               	movlw	2
  1943  059A                     u2235:	
  1944  059A  35DC               	lslf	??_HIDSend,f
  1945  059B  3EFF               	addlw	-1
  1946  059C  1D03               	skipz
  1947  059D  2D9A               	goto	u2235
  1948  059E  355C               	lslf	??_HIDSend,w
  1949  059F  3E2C               	addlw	44
  1950  05A0  0086               	movwf	6
  1951  05A1  0187               	clrf	7
  1952  05A2  1F81               	btfss	1,7
  1953  05A3  2DA5               	goto	u2241
  1954  05A4  2DA6               	goto	u2240
  1955  05A5                     u2241:	
  1956  05A5  2DA7               	goto	l2248
  1957  05A6                     u2240:	
  1958  05A6  2DEF               	goto	l221
  1959  05A7                     l2248:	
  1960                           
  1961                           ;Source/Usb.c: 223:     Interfaces[InterfaceNo + 1].Input.Cnt = Buffers[InterfaceNo * 2]
      +                          .Size;
  1962  05A7  085F               	movf	HIDSend@InterfaceNo,w
  1963  05A8  00DC               	movwf	??_HIDSend
  1964  05A9  3001               	movlw	1
  1965  05AA                     u2255:	
  1966  05AA  35DC               	lslf	??_HIDSend,f
  1967  05AB  3EFF               	addlw	-1
  1968  05AC  1D03               	skipz
  1969  05AD  2DAA               	goto	u2255
  1970  05AE  355C               	lslf	??_HIDSend,w
  1971  05AF  3E6A               	addlw	(low (_Buffers| 0))& (0+255)
  1972  05B0  0086               	movwf	6
  1973  05B1  0187               	clrf	7
  1974  05B2  0801               	movf	1,w
  1975  05B3  00DD               	movwf	??_HIDSend+1
  1976  05B4  085F               	movf	HIDSend@InterfaceNo,w
  1977  05B5  00DE               	movwf	??_HIDSend+2
  1978  05B6  3002               	movlw	2
  1979  05B7                     u2265:	
  1980  05B7  35DE               	lslf	??_HIDSend+2,f
  1981  05B8  3EFF               	addlw	-1
  1982  05B9  1D03               	skipz
  1983  05BA  2DB7               	goto	u2265
  1984  05BB  355E               	lslf	??_HIDSend+2,w
  1985  05BC  3E2D               	addlw	45
  1986  05BD  0086               	movwf	6
  1987  05BE  0187               	clrf	7
  1988  05BF  085D               	movf	??_HIDSend+1,w
  1989  05C0  0081               	movwf	1
  1990                           
  1991                           ;Source/Usb.c: 225:     if(Interfaces[InterfaceNo + 1].Input.Stat & 0x40)
  1992  05C1  085F               	movf	HIDSend@InterfaceNo,w
  1993  05C2  00DC               	movwf	??_HIDSend
  1994  05C3  3002               	movlw	2
  1995  05C4                     u2275:	
  1996  05C4  35DC               	lslf	??_HIDSend,f
  1997  05C5  3EFF               	addlw	-1
  1998  05C6  1D03               	skipz
  1999  05C7  2DC4               	goto	u2275
  2000  05C8  355C               	lslf	??_HIDSend,w
  2001  05C9  3E2C               	addlw	44
  2002  05CA  0086               	movwf	6
  2003  05CB  0187               	clrf	7
  2004  05CC  1F01               	btfss	1,6
  2005  05CD  2DCF               	goto	u2281
  2006  05CE  2DD0               	goto	u2280
  2007  05CF                     u2281:	
  2008  05CF  2DE0               	goto	l2252
  2009  05D0                     u2280:	
  2010  05D0                     l2250:	
  2011                           
  2012                           ;Source/Usb.c: 226:         Interfaces[InterfaceNo + 1].Input.Stat = 0x80 | 0x08;
  2013  05D0  3088               	movlw	136
  2014  05D1  00DC               	movwf	??_HIDSend
  2015  05D2  085F               	movf	HIDSend@InterfaceNo,w
  2016  05D3  00DD               	movwf	??_HIDSend+1
  2017  05D4  3002               	movlw	2
  2018  05D5                     u2295:	
  2019  05D5  35DD               	lslf	??_HIDSend+1,f
  2020  05D6  3EFF               	addlw	-1
  2021  05D7  1D03               	skipz
  2022  05D8  2DD5               	goto	u2295
  2023  05D9  355D               	lslf	??_HIDSend+1,w
  2024  05DA  3E2C               	addlw	44
  2025  05DB  0086               	movwf	6
  2026  05DC  0187               	clrf	7
  2027  05DD  085C               	movf	??_HIDSend,w
  2028  05DE  0081               	movwf	1
  2029  05DF  2DEF               	goto	l221
  2030  05E0                     l2252:	
  2031                           
  2032                           ;Source/Usb.c: 228:         Interfaces[InterfaceNo + 1].Input.Stat = 0x80 | 0x40 | 0x08;
  2033  05E0  30C8               	movlw	200
  2034  05E1  00DC               	movwf	??_HIDSend
  2035  05E2  085F               	movf	HIDSend@InterfaceNo,w
  2036  05E3  00DD               	movwf	??_HIDSend+1
  2037  05E4  3002               	movlw	2
  2038  05E5                     u2305:	
  2039  05E5  35DD               	lslf	??_HIDSend+1,f
  2040  05E6  3EFF               	addlw	-1
  2041  05E7  1D03               	skipz
  2042  05E8  2DE5               	goto	u2305
  2043  05E9  355D               	lslf	??_HIDSend+1,w
  2044  05EA  3E2C               	addlw	44
  2045  05EB  0086               	movwf	6
  2046  05EC  0187               	clrf	7
  2047  05ED  085C               	movf	??_HIDSend,w
  2048  05EE  0081               	movwf	1
  2049  05EF                     l221:	
  2050  05EF  0008               	return
  2051  05F0                     __end_of_HIDSend:	
  2052                           
  2053                           	psect	text6
  2054  0FC4                     __ptext6:	
  2055 ;; *************** function _CheckUsb *****************
  2056 ;; Defined at:
  2057 ;;		line 151 in file "Source/Main.c"
  2058 ;; Parameters:    Size  Location     Type
  2059 ;;		None
  2060 ;; Auto vars:     Size  Location     Type
  2061 ;;		None
  2062 ;; Return value:  Size  Location     Type
  2063 ;;                  1    wreg      void 
  2064 ;; Registers used:
  2065 ;;		wreg, fsr1l, fsr1h, status,2, status,0, pclath, cstack
  2066 ;; Tracked objects:
  2067 ;;		On entry : 0/0
  2068 ;;		On exit  : 0/0
  2069 ;;		Unchanged: 0/0
  2070 ;; Data sizes:     COMMON   BANK0   BANK1   BANK2   BANK3   BANK4   BANK5   BANK6   BANK7   BANK8   BANK9  BANK10  BANK1
      +1  BANK12
  2071 ;;      Params:         0       0       0       0       0       0       0       0       0       0       0       0       
      +0       0
  2072 ;;      Locals:         0       0       0       0       0       0       0       0       0       0       0       0       
      +0       0
  2073 ;;      Temps:          0       0       0       0       0       0       0       0       0       0       0       0       
      +0       0
  2074 ;;      Totals:         0       0       0       0       0       0       0       0       0       0       0       0       
      +0       0
  2075 ;;Total ram usage:        0 bytes
  2076 ;; Hardware stack levels used:    1
  2077 ;; Hardware stack levels required when called:    7
  2078 ;; This function calls:
  2079 ;;		_IsUsbDataAvaialble
  2080 ;;		_ProcessIncommingData
  2081 ;;		_ReArmInterface
  2082 ;; This function is called by:
  2083 ;;		_ProcessIO
  2084 ;; This function uses a non-reentrant model
  2085 ;;
  2086                           
  2087                           
  2088                           ;psect for function _CheckUsb
  2089  0FC4                     _CheckUsb:	
  2090  0FC4                     l2210:	
  2091                           ;incstack = 0
  2092                           ; Regs used in _CheckUsb: [wreg+fsr1l+fsr1h+status,2+status,0+pclath+cstack]
  2093                           
  2094                           
  2095                           ;Source/Main.c: 153:     if(IsUsbDataAvaialble(0x00) > 0 )
  2096  0FC4  3000               	movlw	0
  2097  0FC5  3187  274D  318F   	fcall	_IsUsbDataAvaialble
  2098  0FC8  3A00               	xorlw	0
  2099  0FC9  1903               	skipnz
  2100  0FCA  2FCC               	goto	u2201
  2101  0FCB  2FCD               	goto	u2200
  2102  0FCC                     u2201:	
  2103  0FCC  2FD4               	goto	l105
  2104  0FCD                     u2200:	
  2105  0FCD                     l2212:	
  2106                           
  2107                           ;Source/Main.c: 154:     {;Source/Main.c: 155:         ProcessIncommingData();
  2108  0FCD  3180  2003  318F   	fcall	_ProcessIncommingData
  2109  0FD0                     l2214:	
  2110                           
  2111                           ;Source/Main.c: 156:         ReArmInterface(0x00);
  2112  0FD0  3000               	movlw	0
  2113  0FD1  3185  25F0  318F   	fcall	_ReArmInterface
  2114  0FD4                     l105:	
  2115  0FD4  0008               	return
  2116  0FD5                     __end_of_CheckUsb:	
  2117                           
  2118                           	psect	text7
  2119  05F0                     __ptext7:	
  2120 ;; *************** function _ReArmInterface *****************
  2121 ;; Defined at:
  2122 ;;		line 196 in file "Source/Usb.c"
  2123 ;; Parameters:    Size  Location     Type
  2124 ;;  InterfaceNo     1    wreg     unsigned char 
  2125 ;; Auto vars:     Size  Location     Type
  2126 ;;  InterfaceNo     1    3[BANK0 ] unsigned char 
  2127 ;; Return value:  Size  Location     Type
  2128 ;;                  1    wreg      void 
  2129 ;; Registers used:
  2130 ;;		wreg, fsr1l, fsr1h, status,2, status,0
  2131 ;; Tracked objects:
  2132 ;;		On entry : 0/0
  2133 ;;		On exit  : 0/0
  2134 ;;		Unchanged: 0/0
  2135 ;; Data sizes:     COMMON   BANK0   BANK1   BANK2   BANK3   BANK4   BANK5   BANK6   BANK7   BANK8   BANK9  BANK10  BANK1
      +1  BANK12
  2136 ;;      Params:         0       0       0       0       0       0       0       0       0       0       0       0       
      +0       0
  2137 ;;      Locals:         0       1       0       0       0       0       0       0       0       0       0       0       
      +0       0
  2138 ;;      Temps:          0       3       0       0       0       0       0       0       0       0       0       0       
      +0       0
  2139 ;;      Totals:         0       4       0       0       0       0       0       0       0       0       0       0       
      +0       0
  2140 ;;Total ram usage:        4 bytes
  2141 ;; Hardware stack levels used:    1
  2142 ;; Hardware stack levels required when called:    6
  2143 ;; This function calls:
  2144 ;;		Nothing
  2145 ;; This function is called by:
  2146 ;;		_CheckUsb
  2147 ;; This function uses a non-reentrant model
  2148 ;;
  2149                           
  2150                           
  2151                           ;psect for function _ReArmInterface
  2152  05F0                     _ReArmInterface:	
  2153                           
  2154                           ;incstack = 0
  2155                           ; Regs used in _ReArmInterface: [wreg+fsr1l+fsr1h+status,2+status,0]
  2156                           ;ReArmInterface@InterfaceNo stored from wreg
  2157  05F0  0020               	movlb	0	; select bank0
  2158  05F1  00DF               	movwf	ReArmInterface@InterfaceNo
  2159  05F2                     l2068:	
  2160                           
  2161                           ;Source/Usb.c: 196: void ReArmInterface(uint8_t InterfaceNo);Source/Usb.c: 197: {;Source
      +                          /Usb.c: 202:     if(!(Interfaces[InterfaceNo + 1].Output.Stat & 0x80))
  2162  05F2  085F               	movf	ReArmInterface@InterfaceNo,w
  2163  05F3  00DC               	movwf	??_ReArmInterface
  2164  05F4  3002               	movlw	2
  2165  05F5                     u2005:	
  2166  05F5  35DC               	lslf	??_ReArmInterface,f
  2167  05F6  3EFF               	addlw	-1
  2168  05F7  1D03               	skipz
  2169  05F8  2DF5               	goto	u2005
  2170  05F9  355C               	lslf	??_ReArmInterface,w
  2171  05FA  3E28               	addlw	40
  2172  05FB  0086               	movwf	6
  2173  05FC  0187               	clrf	7
  2174  05FD  1B81               	btfsc	1,7
  2175  05FE  2E00               	goto	u2011
  2176  05FF  2E01               	goto	u2010
  2177  0600                     u2011:	
  2178  0600  2E49               	goto	l217
  2179  0601                     u2010:	
  2180  0601                     l2070:	
  2181                           
  2182                           ;Source/Usb.c: 203:     {;Source/Usb.c: 205:         Interfaces[InterfaceNo + 1].Output.
      +                          Cnt = Buffers[(InterfaceNo * 2) + 1].Size;
  2183  0601  085F               	movf	ReArmInterface@InterfaceNo,w
  2184  0602  00DC               	movwf	??_ReArmInterface
  2185  0603  3001               	movlw	1
  2186  0604                     u2025:	
  2187  0604  35DC               	lslf	??_ReArmInterface,f
  2188  0605  3EFF               	addlw	-1
  2189  0606  1D03               	skipz
  2190  0607  2E04               	goto	u2025
  2191  0608  355C               	lslf	??_ReArmInterface,w
  2192  0609  3E6C               	addlw	(low ((_Buffers| 0+2)))& (0+255)
  2193  060A  0086               	movwf	6
  2194  060B  0187               	clrf	7
  2195  060C  0801               	movf	1,w
  2196  060D  00DD               	movwf	??_ReArmInterface+1
  2197  060E  085F               	movf	ReArmInterface@InterfaceNo,w
  2198  060F  00DE               	movwf	??_ReArmInterface+2
  2199  0610  3002               	movlw	2
  2200  0611                     u2035:	
  2201  0611  35DE               	lslf	??_ReArmInterface+2,f
  2202  0612  3EFF               	addlw	-1
  2203  0613  1D03               	skipz
  2204  0614  2E11               	goto	u2035
  2205  0615  355E               	lslf	??_ReArmInterface+2,w
  2206  0616  3E29               	addlw	41
  2207  0617  0086               	movwf	6
  2208  0618  0187               	clrf	7
  2209  0619  085D               	movf	??_ReArmInterface+1,w
  2210  061A  0081               	movwf	1
  2211                           
  2212                           ;Source/Usb.c: 209:         if(Interfaces[InterfaceNo + 1].Output.Stat & 0x40)
  2213  061B  085F               	movf	ReArmInterface@InterfaceNo,w
  2214  061C  00DC               	movwf	??_ReArmInterface
  2215  061D  3002               	movlw	2
  2216  061E                     u2045:	
  2217  061E  35DC               	lslf	??_ReArmInterface,f
  2218  061F  3EFF               	addlw	-1
  2219  0620  1D03               	skipz
  2220  0621  2E1E               	goto	u2045
  2221  0622  355C               	lslf	??_ReArmInterface,w
  2222  0623  3E28               	addlw	40
  2223  0624  0086               	movwf	6
  2224  0625  0187               	clrf	7
  2225  0626  1F01               	btfss	1,6
  2226  0627  2E29               	goto	u2051
  2227  0628  2E2A               	goto	u2050
  2228  0629                     u2051:	
  2229  0629  2E3A               	goto	l2074
  2230  062A                     u2050:	
  2231  062A                     l2072:	
  2232                           
  2233                           ;Source/Usb.c: 210:             Interfaces[InterfaceNo + 1].Output.Stat = 0x80 | 0x08;
  2234  062A  3088               	movlw	136
  2235  062B  00DC               	movwf	??_ReArmInterface
  2236  062C  085F               	movf	ReArmInterface@InterfaceNo,w
  2237  062D  00DD               	movwf	??_ReArmInterface+1
  2238  062E  3002               	movlw	2
  2239  062F                     u2065:	
  2240  062F  35DD               	lslf	??_ReArmInterface+1,f
  2241  0630  3EFF               	addlw	-1
  2242  0631  1D03               	skipz
  2243  0632  2E2F               	goto	u2065
  2244  0633  355D               	lslf	??_ReArmInterface+1,w
  2245  0634  3E28               	addlw	40
  2246  0635  0086               	movwf	6
  2247  0636  0187               	clrf	7
  2248  0637  085C               	movf	??_ReArmInterface,w
  2249  0638  0081               	movwf	1
  2250  0639  2E49               	goto	l217
  2251  063A                     l2074:	
  2252                           
  2253                           ;Source/Usb.c: 212:             Interfaces[InterfaceNo + 1].Output.Stat = 0x80 | 0x40 | 
      +                          0x08;
  2254  063A  30C8               	movlw	200
  2255  063B  00DC               	movwf	??_ReArmInterface
  2256  063C  085F               	movf	ReArmInterface@InterfaceNo,w
  2257  063D  00DD               	movwf	??_ReArmInterface+1
  2258  063E  3002               	movlw	2
  2259  063F                     u2075:	
  2260  063F  35DD               	lslf	??_ReArmInterface+1,f
  2261  0640  3EFF               	addlw	-1
  2262  0641  1D03               	skipz
  2263  0642  2E3F               	goto	u2075
  2264  0643  355D               	lslf	??_ReArmInterface+1,w
  2265  0644  3E28               	addlw	40
  2266  0645  0086               	movwf	6
  2267  0646  0187               	clrf	7
  2268  0647  085C               	movf	??_ReArmInterface,w
  2269  0648  0081               	movwf	1
  2270  0649                     l217:	
  2271  0649  0008               	return
  2272  064A                     __end_of_ReArmInterface:	
  2273                           
  2274                           	psect	text8
  2275  0003                     __ptext8:	
  2276 ;; *************** function _ProcessIncommingData *****************
  2277 ;; Defined at:
  2278 ;;		line 141 in file "Source/Main.c"
  2279 ;; Parameters:    Size  Location     Type
  2280 ;;		None
  2281 ;; Auto vars:     Size  Location     Type
  2282 ;;		None
  2283 ;; Return value:  Size  Location     Type
  2284 ;;                  1    wreg      void 
  2285 ;; Registers used:
  2286 ;;		None
  2287 ;; Tracked objects:
  2288 ;;		On entry : 0/0
  2289 ;;		On exit  : 0/0
  2290 ;;		Unchanged: 0/0
  2291 ;; Data sizes:     COMMON   BANK0   BANK1   BANK2   BANK3   BANK4   BANK5   BANK6   BANK7   BANK8   BANK9  BANK10  BANK1
      +1  BANK12
  2292 ;;      Params:         0       0       0       0       0       0       0       0       0       0       0       0       
      +0       0
  2293 ;;      Locals:         0       0       0       0       0       0       0       0       0       0       0       0       
      +0       0
  2294 ;;      Temps:          0       0       0       0       0       0       0       0       0       0       0       0       
      +0       0
  2295 ;;      Totals:         0       0       0       0       0       0       0       0       0       0       0       0       
      +0       0
  2296 ;;Total ram usage:        0 bytes
  2297 ;; Hardware stack levels used:    1
  2298 ;; Hardware stack levels required when called:    6
  2299 ;; This function calls:
  2300 ;;		Nothing
  2301 ;; This function is called by:
  2302 ;;		_CheckUsb
  2303 ;; This function uses a non-reentrant model
  2304 ;;
  2305                           
  2306                           
  2307                           ;psect for function _ProcessIncommingData
  2308  0003                     _ProcessIncommingData:	
  2309  0003                     l101:	
  2310                           ;incstack = 0
  2311                           ; Regs used in _ProcessIncommingData: []
  2312                           
  2313  0003  0008               	return
  2314  0004                     __end_of_ProcessIncommingData:	
  2315                           
  2316                           	psect	text9
  2317  074D                     __ptext9:	
  2318 ;; *************** function _IsUsbDataAvaialble *****************
  2319 ;; Defined at:
  2320 ;;		line 186 in file "Source/Usb.c"
  2321 ;; Parameters:    Size  Location     Type
  2322 ;;  InterfaceNo     1    wreg     unsigned char 
  2323 ;; Auto vars:     Size  Location     Type
  2324 ;;  InterfaceNo     1    1[BANK0 ] unsigned char 
  2325 ;; Return value:  Size  Location     Type
  2326 ;;                  1    wreg      unsigned char 
  2327 ;; Registers used:
  2328 ;;		wreg, fsr1l, fsr1h, status,2, status,0
  2329 ;; Tracked objects:
  2330 ;;		On entry : 0/0
  2331 ;;		On exit  : 0/0
  2332 ;;		Unchanged: 0/0
  2333 ;; Data sizes:     COMMON   BANK0   BANK1   BANK2   BANK3   BANK4   BANK5   BANK6   BANK7   BANK8   BANK9  BANK10  BANK1
      +1  BANK12
  2334 ;;      Params:         0       0       0       0       0       0       0       0       0       0       0       0       
      +0       0
  2335 ;;      Locals:         0       1       0       0       0       0       0       0       0       0       0       0       
      +0       0
  2336 ;;      Temps:          0       1       0       0       0       0       0       0       0       0       0       0       
      +0       0
  2337 ;;      Totals:         0       2       0       0       0       0       0       0       0       0       0       0       
      +0       0
  2338 ;;Total ram usage:        2 bytes
  2339 ;; Hardware stack levels used:    1
  2340 ;; Hardware stack levels required when called:    6
  2341 ;; This function calls:
  2342 ;;		Nothing
  2343 ;; This function is called by:
  2344 ;;		_CheckUsb
  2345 ;; This function uses a non-reentrant model
  2346 ;;
  2347                           
  2348                           
  2349                           ;psect for function _IsUsbDataAvaialble
  2350  074D                     _IsUsbDataAvaialble:	
  2351                           
  2352                           ;incstack = 0
  2353                           ; Regs used in _IsUsbDataAvaialble: [wreg+fsr1l+fsr1h+status,2+status,0]
  2354                           ;IsUsbDataAvaialble@InterfaceNo stored from wreg
  2355  074D  0020               	movlb	0	; select bank0
  2356  074E  00DD               	movwf	IsUsbDataAvaialble@InterfaceNo
  2357  074F                     l2052:	
  2358                           
  2359                           ;Source/Usb.c: 186: uint8_t IsUsbDataAvaialble(uint8_t InterfaceNo);Source/Usb.c: 187: {
      +                          ;Source/Usb.c: 188:     if(InterfaceNo >= 0x01) return 0;
  2360  074F  085D               	movf	IsUsbDataAvaialble@InterfaceNo,w
  2361  0750  1903               	btfsc	3,2
  2362  0751  2F53               	goto	u1961
  2363  0752  2F54               	goto	u1960
  2364  0753                     u1961:	
  2365  0753  2F56               	goto	l2058
  2366  0754                     u1960:	
  2367  0754                     l2054:	
  2368  0754  3000               	movlw	0
  2369  0755  2F71               	goto	l210
  2370  0756                     l2058:	
  2371                           
  2372                           ;Source/Usb.c: 189:     if(!(Interfaces[InterfaceNo + 1].Output.Stat & 0x80))
  2373  0756  085D               	movf	IsUsbDataAvaialble@InterfaceNo,w
  2374  0757  00DC               	movwf	??_IsUsbDataAvaialble
  2375  0758  3002               	movlw	2
  2376  0759                     u1975:	
  2377  0759  35DC               	lslf	??_IsUsbDataAvaialble,f
  2378  075A  3EFF               	addlw	-1
  2379  075B  1D03               	skipz
  2380  075C  2F59               	goto	u1975
  2381  075D  355C               	lslf	??_IsUsbDataAvaialble,w
  2382  075E  3E28               	addlw	40
  2383  075F  0086               	movwf	6
  2384  0760  0187               	clrf	7
  2385  0761  1B81               	btfsc	1,7
  2386  0762  2F64               	goto	u1981
  2387  0763  2F65               	goto	u1980
  2388  0764                     u1981:	
  2389  0764  2F54               	goto	l2054
  2390  0765                     u1980:	
  2391  0765                     l2060:	
  2392                           
  2393                           ;Source/Usb.c: 190:     {;Source/Usb.c: 191:         return Interfaces[InterfaceNo + 1].
      +                          Output.Cnt;
  2394  0765  085D               	movf	IsUsbDataAvaialble@InterfaceNo,w
  2395  0766  00DC               	movwf	??_IsUsbDataAvaialble
  2396  0767  3002               	movlw	2
  2397  0768                     u1995:	
  2398  0768  35DC               	lslf	??_IsUsbDataAvaialble,f
  2399  0769  3EFF               	addlw	-1
  2400  076A  1D03               	skipz
  2401  076B  2F68               	goto	u1995
  2402  076C  355C               	lslf	??_IsUsbDataAvaialble,w
  2403  076D  3E29               	addlw	41
  2404  076E  0086               	movwf	6
  2405  076F  0187               	clrf	7
  2406  0770  0801               	movf	1,w
  2407  0771                     l210:	
  2408  0771  0008               	return
  2409  0772                     __end_of_IsUsbDataAvaialble:	
  2410                           
  2411                           	psect	text10
  2412  0F7F                     __ptext10:	
  2413 ;; *************** function _NES_GPIO_Initialize *****************
  2414 ;; Defined at:
  2415 ;;		line 42 in file "Source/nes_keyboard.c"
  2416 ;; Parameters:    Size  Location     Type
  2417 ;;		None
  2418 ;; Auto vars:     Size  Location     Type
  2419 ;;		None
  2420 ;; Return value:  Size  Location     Type
  2421 ;;                  1    wreg      void 
  2422 ;; Registers used:
  2423 ;;		None
  2424 ;; Tracked objects:
  2425 ;;		On entry : 0/0
  2426 ;;		On exit  : 0/0
  2427 ;;		Unchanged: 0/0
  2428 ;; Data sizes:     COMMON   BANK0   BANK1   BANK2   BANK3   BANK4   BANK5   BANK6   BANK7   BANK8   BANK9  BANK10  BANK1
      +1  BANK12
  2429 ;;      Params:         0       0       0       0       0       0       0       0       0       0       0       0       
      +0       0
  2430 ;;      Locals:         0       0       0       0       0       0       0       0       0       0       0       0       
      +0       0
  2431 ;;      Temps:          0       0       0       0       0       0       0       0       0       0       0       0       
      +0       0
  2432 ;;      Totals:         0       0       0       0       0       0       0       0       0       0       0       0       
      +0       0
  2433 ;;Total ram usage:        0 bytes
  2434 ;; Hardware stack levels used:    1
  2435 ;; Hardware stack levels required when called:    6
  2436 ;; This function calls:
  2437 ;;		Nothing
  2438 ;; This function is called by:
  2439 ;;		_main
  2440 ;; This function uses a non-reentrant model
  2441 ;;
  2442                           
  2443                           
  2444                           ;psect for function _NES_GPIO_Initialize
  2445  0F7F                     _NES_GPIO_Initialize:	
  2446  0F7F                     l2446:	
  2447                           ;incstack = 0
  2448                           ; Regs used in _NES_GPIO_Initialize: []
  2449                           
  2450                           
  2451                           ;Source/nes_keyboard.c: 44:     ANSELCbits.ANSC3 = 0;
  2452  0F7F  0023               	movlb	3	; select bank3
  2453  0F80  118E               	bcf	14,3	;volatile
  2454                           
  2455                           ;Source/nes_keyboard.c: 45:     TRISCbits.TRISC3 = 1;
  2456  0F81  0021               	movlb	1	; select bank1
  2457  0F82  158E               	bsf	14,3	;volatile
  2458                           
  2459                           ;Source/nes_keyboard.c: 46:     TRISCbits.TRISC4 = 0;
  2460  0F83  120E               	bcf	14,4	;volatile
  2461                           
  2462                           ;Source/nes_keyboard.c: 47:     TRISCbits.TRISC5 = 0;
  2463  0F84  128E               	bcf	14,5	;volatile
  2464                           
  2465                           ;Source/nes_keyboard.c: 49:     ANSELAbits.ANSA4 = 0;
  2466  0F85  0023               	movlb	3	; select bank3
  2467  0F86  120C               	bcf	12,4	;volatile
  2468                           
  2469                           ;Source/nes_keyboard.c: 50:     TRISAbits.TRISA4 = 0;
  2470  0F87  0021               	movlb	1	; select bank1
  2471  0F88  120C               	bcf	12,4	;volatile
  2472  0F89                     l439:	
  2473  0F89  0008               	return
  2474  0F8A                     __end_of_NES_GPIO_Initialize:	
  2475                           
  2476                           	psect	text11
  2477  0FB4                     __ptext11:	
  2478 ;; *************** function _InitializeUSB *****************
  2479 ;; Defined at:
  2480 ;;		line 762 in file "Source/Usb.c"
  2481 ;; Parameters:    Size  Location     Type
  2482 ;;		None
  2483 ;; Auto vars:     Size  Location     Type
  2484 ;;		None
  2485 ;; Return value:  Size  Location     Type
  2486 ;;                  1    wreg      void 
  2487 ;; Registers used:
  2488 ;;		wreg, status,2, status,0, pclath, cstack
  2489 ;; Tracked objects:
  2490 ;;		On entry : 0/0
  2491 ;;		On exit  : 0/0
  2492 ;;		Unchanged: 0/0
  2493 ;; Data sizes:     COMMON   BANK0   BANK1   BANK2   BANK3   BANK4   BANK5   BANK6   BANK7   BANK8   BANK9  BANK10  BANK1
      +1  BANK12
  2494 ;;      Params:         0       0       0       0       0       0       0       0       0       0       0       0       
      +0       0
  2495 ;;      Locals:         0       0       0       0       0       0       0       0       0       0       0       0       
      +0       0
  2496 ;;      Temps:          0       0       0       0       0       0       0       0       0       0       0       0       
      +0       0
  2497 ;;      Totals:         0       0       0       0       0       0       0       0       0       0       0       0       
      +0       0
  2498 ;;Total ram usage:        0 bytes
  2499 ;; Hardware stack levels used:    1
  2500 ;; Hardware stack levels required when called:    7
  2501 ;; This function calls:
  2502 ;;		_ResetPPBuffers
  2503 ;; This function is called by:
  2504 ;;		_main
  2505 ;; This function uses a non-reentrant model
  2506 ;;
  2507                           
  2508                           
  2509                           ;psect for function _InitializeUSB
  2510  0FB4                     _InitializeUSB:	
  2511  0FB4                     l2448:	
  2512                           ;incstack = 0
  2513                           ; Regs used in _InitializeUSB: [wreg+status,2+status,0+pclath+cstack]
  2514                           
  2515                           
  2516                           ;Source/Usb.c: 764:     UCFG = 0x14;
  2517  0FB4  3014               	movlw	20
  2518  0FB5  003D               	movlb	29	; select bank29
  2519  0FB6  0091               	movwf	17	;volatile
  2520  0FB7                     l2450:	
  2521                           
  2522                           ;Source/Usb.c: 765:     DeviceState = 0x00;
  2523  0FB7  0020               	movlb	0	; select bank0
  2524  0FB8  01BF               	clrf	_DeviceState
  2525  0FB9                     l2452:	
  2526                           
  2527                           ;Source/Usb.c: 766:     RemoteWakeup = 0x00;
  2528  0FB9  01BD               	clrf	_RemoteWakeup
  2529  0FBA                     l2454:	
  2530                           
  2531                           ;Source/Usb.c: 767:     CurrentConfiguration = 0x00;
  2532  0FBA  01DB               	clrf	_CurrentConfiguration
  2533  0FBB                     l2456:	
  2534                           
  2535                           ;Source/Usb.c: 768:     UADDR = 0;
  2536  0FBB  003D               	movlb	29	; select bank29
  2537  0FBC  0196               	clrf	22	;volatile
  2538  0FBD                     l2458:	
  2539                           
  2540                           ;Source/Usb.c: 769:     UEIR = 0;
  2541  0FBD  0193               	clrf	19	;volatile
  2542  0FBE                     l2460:	
  2543                           
  2544                           ;Source/Usb.c: 770:     ResetPPBuffers();
  2545  0FBE  318F  2759  318F   	fcall	_ResetPPBuffers
  2546  0FC1                     l2462:	
  2547                           
  2548                           ;Source/Usb.c: 771:     UCONbits.PKTDIS = 0;
  2549  0FC1  003D               	movlb	29	; select bank29
  2550  0FC2  120E               	bcf	14,4	;volatile
  2551  0FC3                     l379:	
  2552  0FC3  0008               	return
  2553  0FC4                     __end_of_InitializeUSB:	
  2554                           
  2555                           	psect	text12
  2556  0F59                     __ptext12:	
  2557 ;; *************** function _ResetPPBuffers *****************
  2558 ;; Defined at:
  2559 ;;		line 753 in file "Source/Usb.c"
  2560 ;; Parameters:    Size  Location     Type
  2561 ;;		None
  2562 ;; Auto vars:     Size  Location     Type
  2563 ;;		None
  2564 ;; Return value:  Size  Location     Type
  2565 ;;                  1    wreg      void 
  2566 ;; Registers used:
  2567 ;;		None
  2568 ;; Tracked objects:
  2569 ;;		On entry : 0/0
  2570 ;;		On exit  : 0/0
  2571 ;;		Unchanged: 0/0
  2572 ;; Data sizes:     COMMON   BANK0   BANK1   BANK2   BANK3   BANK4   BANK5   BANK6   BANK7   BANK8   BANK9  BANK10  BANK1
      +1  BANK12
  2573 ;;      Params:         0       0       0       0       0       0       0       0       0       0       0       0       
      +0       0
  2574 ;;      Locals:         0       0       0       0       0       0       0       0       0       0       0       0       
      +0       0
  2575 ;;      Temps:          0       0       0       0       0       0       0       0       0       0       0       0       
      +0       0
  2576 ;;      Totals:         0       0       0       0       0       0       0       0       0       0       0       0       
      +0       0
  2577 ;;Total ram usage:        0 bytes
  2578 ;; Hardware stack levels used:    1
  2579 ;; Hardware stack levels required when called:    6
  2580 ;; This function calls:
  2581 ;;		Nothing
  2582 ;; This function is called by:
  2583 ;;		_InitializeUSB
  2584 ;; This function uses a non-reentrant model
  2585 ;;
  2586                           
  2587                           
  2588                           ;psect for function _ResetPPBuffers
  2589  0F59                     _ResetPPBuffers:	
  2590  0F59                     l374:	
  2591                           ;incstack = 0
  2592                           ; Regs used in _ResetPPBuffers: []
  2593                           ;Source/Usb.c: 755:     do
  2594                           
  2595                           
  2596                           ;Source/Usb.c: 756:     {;Source/Usb.c: 757:         UCONbits.PPBRST = 1;
  2597  0F59  003D               	movlb	29	; select bank29
  2598  0F5A  170E               	bsf	14,6	;volatile
  2599                           
  2600                           ;Source/Usb.c: 758:  UCONbits.PPBRST = 0;
  2601  0F5B  130E               	bcf	14,6	;volatile
  2602  0F5C                     l376:	
  2603  0F5C  0008               	return
  2604  0F5D                     __end_of_ResetPPBuffers:	
  2605                           
  2606                           	psect	text13
  2607  0FA4                     __ptext13:	
  2608 ;; *************** function _InitializeSystem *****************
  2609 ;; Defined at:
  2610 ;;		line 67 in file "Source/Main.c"
  2611 ;; Parameters:    Size  Location     Type
  2612 ;;		None
  2613 ;; Auto vars:     Size  Location     Type
  2614 ;;		None
  2615 ;; Return value:  Size  Location     Type
  2616 ;;                  1    wreg      void 
  2617 ;; Registers used:
  2618 ;;		wreg, status,2
  2619 ;; Tracked objects:
  2620 ;;		On entry : 0/0
  2621 ;;		On exit  : 0/0
  2622 ;;		Unchanged: 0/0
  2623 ;; Data sizes:     COMMON   BANK0   BANK1   BANK2   BANK3   BANK4   BANK5   BANK6   BANK7   BANK8   BANK9  BANK10  BANK1
      +1  BANK12
  2624 ;;      Params:         0       0       0       0       0       0       0       0       0       0       0       0       
      +0       0
  2625 ;;      Locals:         0       0       0       0       0       0       0       0       0       0       0       0       
      +0       0
  2626 ;;      Temps:          0       0       0       0       0       0       0       0       0       0       0       0       
      +0       0
  2627 ;;      Totals:         0       0       0       0       0       0       0       0       0       0       0       0       
      +0       0
  2628 ;;Total ram usage:        0 bytes
  2629 ;; Hardware stack levels used:    1
  2630 ;; Hardware stack levels required when called:    6
  2631 ;; This function calls:
  2632 ;;		Nothing
  2633 ;; This function is called by:
  2634 ;;		_main
  2635 ;; This function uses a non-reentrant model
  2636 ;;
  2637                           
  2638                           
  2639                           ;psect for function _InitializeSystem
  2640  0FA4                     _InitializeSystem:	
  2641  0FA4                     l2412:	
  2642                           ;incstack = 0
  2643                           ; Regs used in _InitializeSystem: [wreg+status,2]
  2644                           
  2645                           
  2646                           ;Source/Main.c: 69:     ANSELA = 0x00;
  2647  0FA4  0023               	movlb	3	; select bank3
  2648  0FA5  018C               	clrf	12	;volatile
  2649                           
  2650                           ;Source/Main.c: 70:     ANSELC = 0x00;
  2651  0FA6  018E               	clrf	14	;volatile
  2652                           
  2653                           ;Source/Main.c: 71:     OSCTUNE = 0x00;
  2654  0FA7  0021               	movlb	1	; select bank1
  2655  0FA8  0198               	clrf	24	;volatile
  2656  0FA9                     l2414:	
  2657                           
  2658                           ;Source/Main.c: 72:     OSCCON = 0xFC;
  2659  0FA9  30FC               	movlw	252
  2660  0FAA  0099               	movwf	25	;volatile
  2661  0FAB                     l2416:	
  2662                           
  2663                           ;Source/Main.c: 73:     ACTCON = 0x90;
  2664  0FAB  3090               	movlw	144
  2665  0FAC  0027               	movlb	7	; select bank7
  2666  0FAD  009B               	movwf	27	;volatile
  2667  0FAE                     l2418:	
  2668                           
  2669                           ;Source/Main.c: 74:     OPTION_REG = 0xC3;
  2670  0FAE  30C3               	movlw	195
  2671  0FAF  0021               	movlb	1	; select bank1
  2672  0FB0  0095               	movwf	21	;volatile
  2673  0FB1                     l2420:	
  2674                           
  2675                           ;Source/Main.c: 77:     LATC = 0b00000000;
  2676  0FB1  0022               	movlb	2	; select bank2
  2677  0FB2  018E               	clrf	14	;volatile
  2678  0FB3                     l77:	
  2679  0FB3  0008               	return
  2680  0FB4                     __end_of_InitializeSystem:	
  2681                           
  2682                           	psect	text14
  2683  07E0                     __ptext14:	
  2684 ;; *************** function _EnableUSBModule *****************
  2685 ;; Defined at:
  2686 ;;		line 774 in file "Source/Usb.c"
  2687 ;; Parameters:    Size  Location     Type
  2688 ;;		None
  2689 ;; Auto vars:     Size  Location     Type
  2690 ;;		None
  2691 ;; Return value:  Size  Location     Type
  2692 ;;                  1    wreg      void 
  2693 ;; Registers used:
  2694 ;;		wreg, status,2
  2695 ;; Tracked objects:
  2696 ;;		On entry : 0/0
  2697 ;;		On exit  : 0/0
  2698 ;;		Unchanged: 0/0
  2699 ;; Data sizes:     COMMON   BANK0   BANK1   BANK2   BANK3   BANK4   BANK5   BANK6   BANK7   BANK8   BANK9  BANK10  BANK1
      +1  BANK12
  2700 ;;      Params:         0       0       0       0       0       0       0       0       0       0       0       0       
      +0       0
  2701 ;;      Locals:         0       0       0       0       0       0       0       0       0       0       0       0       
      +0       0
  2702 ;;      Temps:          0       1       0       0       0       0       0       0       0       0       0       0       
      +0       0
  2703 ;;      Totals:         0       1       0       0       0       0       0       0       0       0       0       0       
      +0       0
  2704 ;;Total ram usage:        1 bytes
  2705 ;; Hardware stack levels used:    1
  2706 ;; Hardware stack levels required when called:    6
  2707 ;; This function calls:
  2708 ;;		Nothing
  2709 ;; This function is called by:
  2710 ;;		_main
  2711 ;; This function uses a non-reentrant model
  2712 ;;
  2713                           
  2714                           
  2715                           ;psect for function _EnableUSBModule
  2716  07E0                     _EnableUSBModule:	
  2717  07E0                     l2464:	
  2718                           ;incstack = 0
  2719                           ; Regs used in _EnableUSBModule: [wreg+status,2]
  2720                           
  2721                           
  2722                           ;Source/Usb.c: 778:     if(UCONbits.USBEN == 0)
  2723  07E0  003D               	movlb	29	; select bank29
  2724  07E1  198E               	btfsc	14,3	;volatile
  2725  07E2  2FE4               	goto	u2641
  2726  07E3  2FE5               	goto	u2640
  2727  07E4                     u2641:	
  2728  07E4  2FEB               	goto	l383
  2729  07E5                     u2640:	
  2730  07E5                     l2466:	
  2731                           
  2732                           ;Source/Usb.c: 779:     {;Source/Usb.c: 780:         UCON = 0;
  2733  07E5  018E               	clrf	14	;volatile
  2734                           
  2735                           ;Source/Usb.c: 781:         UIE = 0;
  2736  07E6  0192               	clrf	18	;volatile
  2737  07E7                     l2468:	
  2738                           
  2739                           ;Source/Usb.c: 782:         UCONbits.USBEN = 1;
  2740  07E7  158E               	bsf	14,3	;volatile
  2741  07E8                     l2470:	
  2742                           
  2743                           ;Source/Usb.c: 783:         DeviceState = 0x01;
  2744  07E8  0020               	movlb	0	; select bank0
  2745  07E9  01BF               	clrf	_DeviceState
  2746  07EA  0ABF               	incf	_DeviceState,f
  2747  07EB                     l383:	
  2748  07EB  003D               	movlb	29	; select bank29
  2749  07EC  1A8E               	btfsc	14,5	;volatile
  2750  07ED  2FEF               	goto	u2651
  2751  07EE  2FF0               	goto	u2650
  2752  07EF                     u2651:	
  2753  07EF  2FEB               	goto	l383
  2754  07F0                     u2650:	
  2755  07F0                     l2472:	
  2756                           
  2757                           ;Source/Usb.c: 790:     UIR = 0;
  2758  07F0  0190               	clrf	16	;volatile
  2759                           
  2760                           ;Source/Usb.c: 791:     UIE = 0;
  2761  07F1  0192               	clrf	18	;volatile
  2762  07F2                     l2474:	
  2763                           
  2764                           ;Source/Usb.c: 792:     UIEbits.URSTIE = 1;
  2765  07F2  1412               	bsf	18,0	;volatile
  2766  07F3                     l2476:	
  2767                           
  2768                           ;Source/Usb.c: 793:     UIEbits.IDLEIE = 1;
  2769  07F3  1612               	bsf	18,4	;volatile
  2770  07F4                     l2478:	
  2771                           
  2772                           ;Source/Usb.c: 794:     DeviceState = 0x02;
  2773  07F4  3002               	movlw	2
  2774  07F5  0020               	movlb	0	; select bank0
  2775  07F6  00DC               	movwf	??_EnableUSBModule
  2776  07F7  085C               	movf	??_EnableUSBModule,w
  2777  07F8  00BF               	movwf	_DeviceState
  2778  07F9                     l386:	
  2779  07F9  0008               	return
  2780  07FA                     __end_of_EnableUSBModule:	
  2781                           
  2782                           	psect	text15
  2783  0F77                     __ptext15:	
  2784 ;; *************** function _EnableInterrupts *****************
  2785 ;; Defined at:
  2786 ;;		line 80 in file "Source/Main.c"
  2787 ;; Parameters:    Size  Location     Type
  2788 ;;		None
  2789 ;; Auto vars:     Size  Location     Type
  2790 ;;		None
  2791 ;; Return value:  Size  Location     Type
  2792 ;;                  1    wreg      void 
  2793 ;; Registers used:
  2794 ;;		wreg
  2795 ;; Tracked objects:
  2796 ;;		On entry : 0/0
  2797 ;;		On exit  : 0/0
  2798 ;;		Unchanged: 0/0
  2799 ;; Data sizes:     COMMON   BANK0   BANK1   BANK2   BANK3   BANK4   BANK5   BANK6   BANK7   BANK8   BANK9  BANK10  BANK1
      +1  BANK12
  2800 ;;      Params:         0       0       0       0       0       0       0       0       0       0       0       0       
      +0       0
  2801 ;;      Locals:         0       0       0       0       0       0       0       0       0       0       0       0       
      +0       0
  2802 ;;      Temps:          0       0       0       0       0       0       0       0       0       0       0       0       
      +0       0
  2803 ;;      Totals:         0       0       0       0       0       0       0       0       0       0       0       0       
      +0       0
  2804 ;;Total ram usage:        0 bytes
  2805 ;; Hardware stack levels used:    1
  2806 ;; Hardware stack levels required when called:    6
  2807 ;; This function calls:
  2808 ;;		Nothing
  2809 ;; This function is called by:
  2810 ;;		_main
  2811 ;; This function uses a non-reentrant model
  2812 ;;
  2813                           
  2814                           
  2815                           ;psect for function _EnableInterrupts
  2816  0F77                     _EnableInterrupts:	
  2817  0F77                     l2422:	
  2818                           ;incstack = 0
  2819                           ; Regs used in _EnableInterrupts: [wreg]
  2820                           
  2821                           
  2822                           ;Source/Main.c: 82:     UIE = 0x4B;
  2823  0F77  304B               	movlw	75
  2824  0F78  003D               	movlb	29	; select bank29
  2825  0F79  0092               	movwf	18	;volatile
  2826  0F7A                     l2424:	
  2827                           
  2828                           ;Source/Main.c: 83:     INTCONbits.PEIE = 1;
  2829  0F7A  170B               	bsf	11,6	;volatile
  2830  0F7B                     l2426:	
  2831                           
  2832                           ;Source/Main.c: 84:     INTCONbits.GIE = 1;
  2833  0F7B  178B               	bsf	11,7	;volatile
  2834  0F7C                     l2428:	
  2835                           
  2836                           ;Source/Main.c: 85:     PIE2bits.USBIE = 1;
  2837  0F7C  0021               	movlb	1	; select bank1
  2838  0F7D  1512               	bsf	18,2	;volatile
  2839  0F7E                     l80:	
  2840  0F7E  0008               	return
  2841  0F7F                     __end_of_EnableInterrupts:	
  2842                           
  2843                           	psect	intentry
  2844  0004                     __pintentry:	
  2845 ;; *************** function _ISRCode *****************
  2846 ;; Defined at:
  2847 ;;		line 62 in file "Source/Main.c"
  2848 ;; Parameters:    Size  Location     Type
  2849 ;;		None
  2850 ;; Auto vars:     Size  Location     Type
  2851 ;;		None
  2852 ;; Return value:  Size  Location     Type
  2853 ;;                  1    wreg      void 
  2854 ;; Registers used:
  2855 ;;		wreg, fsr0l, fsr0h, fsr1l, fsr1h, status,2, status,0, pclath, cstack
  2856 ;; Tracked objects:
  2857 ;;		On entry : 0/0
  2858 ;;		On exit  : 0/0
  2859 ;;		Unchanged: 0/0
  2860 ;; Data sizes:     COMMON   BANK0   BANK1   BANK2   BANK3   BANK4   BANK5   BANK6   BANK7   BANK8   BANK9  BANK10  BANK1
      +1  BANK12
  2861 ;;      Params:         0       0       0       0       0       0       0       0       0       0       0       0       
      +0       0
  2862 ;;      Locals:         0       0       0       0       0       0       0       0       0       0       0       0       
      +0       0
  2863 ;;      Temps:          0       0       0       0       0       0       0       0       0       0       0       0       
      +0       0
  2864 ;;      Totals:         0       0       0       0       0       0       0       0       0       0       0       0       
      +0       0
  2865 ;;Total ram usage:        0 bytes
  2866 ;; Hardware stack levels used:    1
  2867 ;; Hardware stack levels required when called:    5
  2868 ;; This function calls:
  2869 ;;		_ProcessUSBTransactions
  2870 ;; This function is called by:
  2871 ;;		Interrupt level 1
  2872 ;; This function uses a non-reentrant model
  2873 ;;
  2874                           
  2875  0004                     _ISRCode:	
  2876                           
  2877                           ;incstack = 0
  2878  0004  147E               	bsf	int$flags,0	;set compiler interrupt flag (level 1)
  2879                           
  2880                           ; Regs used in _ISRCode: [wreg-fsr1h+status,2+status,0+pclath+cstack]
  2881  0005  3180               	pagesel	$
  2882  0006                     i1l2480:	
  2883                           
  2884                           ;Source/Main.c: 64:     if (PIR2bits.USBIF) ProcessUSBTransactions();
  2885  0006  0020               	movlb	0	; select bank0
  2886  0007  1D12               	btfss	18,2	;volatile
  2887  0008  280A               	goto	u266_21
  2888  0009  280B               	goto	u266_20
  2889  000A                     u266_21:	
  2890  000A  280E               	goto	i1l74
  2891  000B                     u266_20:	
  2892  000B                     i1l2482:	
  2893  000B  3181  216C  3180   	fcall	_ProcessUSBTransactions
  2894  000E                     i1l74:	
  2895  000E  107E               	bcf	int$flags,0	;clear compiler interrupt flag (level 1)
  2896  000F  0009               	retfie
  2897  0010                     __end_of_ISRCode:	
  2898                           
  2899                           	psect	text17
  2900  016C                     __ptext17:	
  2901 ;; *************** function _ProcessUSBTransactions *****************
  2902 ;; Defined at:
  2903 ;;		line 860 in file "Source/Usb.c"
  2904 ;; Parameters:    Size  Location     Type
  2905 ;;		None
  2906 ;; Auto vars:     Size  Location     Type
  2907 ;;		None
  2908 ;; Return value:  Size  Location     Type
  2909 ;;                  1    wreg      void 
  2910 ;; Registers used:
  2911 ;;		wreg, fsr0l, fsr0h, fsr1l, fsr1h, status,2, status,0, pclath, cstack
  2912 ;; Tracked objects:
  2913 ;;		On entry : 0/0
  2914 ;;		On exit  : 0/0
  2915 ;;		Unchanged: 0/0
  2916 ;; Data sizes:     COMMON   BANK0   BANK1   BANK2   BANK3   BANK4   BANK5   BANK6   BANK7   BANK8   BANK9  BANK10  BANK1
      +1  BANK12
  2917 ;;      Params:         0       0       0       0       0       0       0       0       0       0       0       0       
      +0       0
  2918 ;;      Locals:         0       0       0       0       0       0       0       0       0       0       0       0       
      +0       0
  2919 ;;      Temps:          1       0       0       0       0       0       0       0       0       0       0       0       
      +0       0
  2920 ;;      Totals:         1       0       0       0       0       0       0       0       0       0       0       0       
      +0       0
  2921 ;;Total ram usage:        1 bytes
  2922 ;; Hardware stack levels used:    1
  2923 ;; Hardware stack levels required when called:    4
  2924 ;; This function calls:
  2925 ;;		_BusReset
  2926 ;;		_ProcessControlTransfer
  2927 ;;		_Stall
  2928 ;;		_StartOfFrame
  2929 ;;		_Suspend
  2930 ;;		_UnSuspend
  2931 ;; This function is called by:
  2932 ;;		_ISRCode
  2933 ;; This function uses a non-reentrant model
  2934 ;;
  2935                           
  2936                           
  2937                           ;psect for function _ProcessUSBTransactions
  2938  016C                     _ProcessUSBTransactions:	
  2939  016C                     i1l2334:	
  2940                           ;incstack = 0
  2941                           ; Regs used in _ProcessUSBTransactions: [wreg-fsr1h+status,2+status,0+pclath+cstack]
  2942                           
  2943                           
  2944                           ;Source/Usb.c: 863:     if(DeviceState == 0x00)
  2945  016C  0020               	movlb	0	; select bank0
  2946  016D  083F               	movf	_DeviceState,w
  2947  016E  1D03               	btfss	3,2
  2948  016F  2971               	goto	u244_21
  2949  0170  2972               	goto	u244_20
  2950  0171                     u244_21:	
  2951  0171  2977               	goto	i1l408
  2952  0172                     u244_20:	
  2953  0172                     i1l2336:	
  2954                           
  2955                           ;Source/Usb.c: 864:     {;Source/Usb.c: 865:         UIR = 0;
  2956  0172  003D               	movlb	29	; select bank29
  2957  0173  0190               	clrf	16	;volatile
  2958  0174                     i1l2338:	
  2959                           
  2960                           ;Source/Usb.c: 866:         PIR2bits.USBIF = 0;
  2961  0174  0020               	movlb	0	; select bank0
  2962  0175  1112               	bcf	18,2	;volatile
  2963  0176  29FD               	goto	i1l409
  2964  0177                     i1l408:	
  2965                           ;Source/Usb.c: 868:     }
  2966                           
  2967                           
  2968                           ;Source/Usb.c: 871:     if(UIRbits.ACTVIF && UIEbits.ACTVIE)
  2969  0177  003D               	movlb	29	; select bank29
  2970  0178  1D10               	btfss	16,2	;volatile
  2971  0179  297B               	goto	u245_21
  2972  017A  297C               	goto	u245_20
  2973  017B                     u245_21:	
  2974  017B  2988               	goto	i1l2348
  2975  017C                     u245_20:	
  2976  017C                     i1l2342:	
  2977  017C  1D12               	btfss	18,2	;volatile
  2978  017D  297F               	goto	u246_21
  2979  017E  2980               	goto	u246_20
  2980  017F                     u246_21:	
  2981  017F  2988               	goto	i1l2348
  2982  0180                     u246_20:	
  2983  0180                     i1l2344:	
  2984                           
  2985                           ;Source/Usb.c: 872:     {;Source/Usb.c: 873:         UnSuspend();
  2986  0180  318F  276F  3181   	fcall	_UnSuspend
  2987  0183                     i1l2346:	
  2988                           
  2989                           ;Source/Usb.c: 874:  UIR &= ~(0x04);
  2990  0183  30FB               	movlw	251
  2991  0184  00FC               	movwf	??_ProcessUSBTransactions
  2992  0185  087C               	movf	??_ProcessUSBTransactions,w
  2993  0186  003D               	movlb	29	; select bank29
  2994  0187  0590               	andwf	16,f	;volatile
  2995  0188                     i1l2348:	
  2996                           
  2997                           ;Source/Usb.c: 879:     if(UCONbits.SUSPND == 1)
  2998  0188  1C8E               	btfss	14,1	;volatile
  2999  0189  298B               	goto	u247_21
  3000  018A  298C               	goto	u247_20
  3001  018B                     u247_21:	
  3002  018B  2990               	goto	i1l411
  3003  018C                     u247_20:	
  3004  018C                     i1l2350:	
  3005                           
  3006                           ;Source/Usb.c: 880:     {;Source/Usb.c: 881:         UIR = 0;
  3007  018C  0190               	clrf	16	;volatile
  3008  018D                     i1l2352:	
  3009                           
  3010                           ;Source/Usb.c: 882:         PIR2bits.USBIF = 0;
  3011  018D  0020               	movlb	0	; select bank0
  3012  018E  1112               	bcf	18,2	;volatile
  3013  018F  29FD               	goto	i1l409
  3014  0190                     i1l411:	
  3015                           ;Source/Usb.c: 884:     }
  3016                           
  3017                           
  3018                           ;Source/Usb.c: 887:     if (UIRbits.URSTIF && UIEbits.URSTIE)
  3019  0190  1C10               	btfss	16,0	;volatile
  3020  0191  2993               	goto	u248_21
  3021  0192  2994               	goto	u248_20
  3022  0193                     u248_21:	
  3023  0193  29A0               	goto	i1l2362
  3024  0194                     u248_20:	
  3025  0194                     i1l2356:	
  3026  0194  1C12               	btfss	18,0	;volatile
  3027  0195  2997               	goto	u249_21
  3028  0196  2998               	goto	u249_20
  3029  0197                     u249_21:	
  3030  0197  29A0               	goto	i1l2362
  3031  0198                     u249_20:	
  3032  0198                     i1l2358:	
  3033                           
  3034                           ;Source/Usb.c: 888:     {;Source/Usb.c: 889:         BusReset();
  3035  0198  3187  2772  3181   	fcall	_BusReset
  3036  019B                     i1l2360:	
  3037                           
  3038                           ;Source/Usb.c: 890:      UIR &= ~(0x01);
  3039  019B  30FE               	movlw	254
  3040  019C  00FC               	movwf	??_ProcessUSBTransactions
  3041  019D  087C               	movf	??_ProcessUSBTransactions,w
  3042  019E  003D               	movlb	29	; select bank29
  3043  019F  0590               	andwf	16,f	;volatile
  3044  01A0                     i1l2362:	
  3045                           
  3046                           ;Source/Usb.c: 893:     if (UIRbits.IDLEIF && UIEbits.IDLEIE)
  3047  01A0  1E10               	btfss	16,4	;volatile
  3048  01A1  29A3               	goto	u250_21
  3049  01A2  29A4               	goto	u250_20
  3050  01A3                     u250_21:	
  3051  01A3  29B0               	goto	i1l2370
  3052  01A4                     u250_20:	
  3053  01A4                     i1l2364:	
  3054  01A4  1E12               	btfss	18,4	;volatile
  3055  01A5  29A7               	goto	u251_21
  3056  01A6  29A8               	goto	u251_20
  3057  01A7                     u251_21:	
  3058  01A7  29B0               	goto	i1l2370
  3059  01A8                     u251_20:	
  3060  01A8                     i1l2366:	
  3061                           
  3062                           ;Source/Usb.c: 894:     {;Source/Usb.c: 896:         Suspend();
  3063  01A8  318F  2767  3181   	fcall	_Suspend
  3064  01AB                     i1l2368:	
  3065                           
  3066                           ;Source/Usb.c: 897:      UIR &= ~(0x10);
  3067  01AB  30EF               	movlw	239
  3068  01AC  00FC               	movwf	??_ProcessUSBTransactions
  3069  01AD  087C               	movf	??_ProcessUSBTransactions,w
  3070  01AE  003D               	movlb	29	; select bank29
  3071  01AF  0590               	andwf	16,f	;volatile
  3072  01B0                     i1l2370:	
  3073                           
  3074                           ;Source/Usb.c: 900:     if (UIRbits.SOFIF && UIEbits.SOFIE)
  3075  01B0  1F10               	btfss	16,6	;volatile
  3076  01B1  29B3               	goto	u252_21
  3077  01B2  29B4               	goto	u252_20
  3078  01B3                     u252_21:	
  3079  01B3  29C0               	goto	i1l2378
  3080  01B4                     u252_20:	
  3081  01B4                     i1l2372:	
  3082  01B4  1F12               	btfss	18,6	;volatile
  3083  01B5  29B7               	goto	u253_21
  3084  01B6  29B8               	goto	u253_20
  3085  01B7                     u253_21:	
  3086  01B7  29C0               	goto	i1l2378
  3087  01B8                     u253_20:	
  3088  01B8                     i1l2374:	
  3089                           
  3090                           ;Source/Usb.c: 901:     {;Source/Usb.c: 902:         StartOfFrame();
  3091  01B8  318F  2756  3181   	fcall	_StartOfFrame
  3092  01BB                     i1l2376:	
  3093                           
  3094                           ;Source/Usb.c: 903:         UIR &= ~(0x40);
  3095  01BB  30BF               	movlw	191
  3096  01BC  00FC               	movwf	??_ProcessUSBTransactions
  3097  01BD  087C               	movf	??_ProcessUSBTransactions,w
  3098  01BE  003D               	movlb	29	; select bank29
  3099  01BF  0590               	andwf	16,f	;volatile
  3100  01C0                     i1l2378:	
  3101                           
  3102                           ;Source/Usb.c: 906:     if (UIRbits.STALLIF && UIEbits.STALLIE)
  3103  01C0  1E90               	btfss	16,5	;volatile
  3104  01C1  29C3               	goto	u254_21
  3105  01C2  29C4               	goto	u254_20
  3106  01C3                     u254_21:	
  3107  01C3  29D0               	goto	i1l2386
  3108  01C4                     u254_20:	
  3109  01C4                     i1l2380:	
  3110  01C4  1E92               	btfss	18,5	;volatile
  3111  01C5  29C7               	goto	u255_21
  3112  01C6  29C8               	goto	u255_20
  3113  01C7                     u255_21:	
  3114  01C7  29D0               	goto	i1l2386
  3115  01C8                     u255_20:	
  3116  01C8                     i1l2382:	
  3117                           
  3118                           ;Source/Usb.c: 907:     {;Source/Usb.c: 908:         Stall();
  3119  01C8  318F  278A  3181   	fcall	_Stall
  3120  01CB                     i1l2384:	
  3121                           
  3122                           ;Source/Usb.c: 909:         UIR &= ~(0x20);
  3123  01CB  30DF               	movlw	223
  3124  01CC  00FC               	movwf	??_ProcessUSBTransactions
  3125  01CD  087C               	movf	??_ProcessUSBTransactions,w
  3126  01CE  003D               	movlb	29	; select bank29
  3127  01CF  0590               	andwf	16,f	;volatile
  3128  01D0                     i1l2386:	
  3129                           
  3130                           ;Source/Usb.c: 912:     if (UIRbits.UERRIF && UIEbits.UERRIE)
  3131  01D0  1C90               	btfss	16,1	;volatile
  3132  01D1  29D3               	goto	u256_21
  3133  01D2  29D4               	goto	u256_20
  3134  01D3                     u256_21:	
  3135  01D3  29DE               	goto	i1l2396
  3136  01D4                     u256_20:	
  3137  01D4                     i1l2388:	
  3138  01D4  1C92               	btfss	18,1	;volatile
  3139  01D5  29D7               	goto	u257_21
  3140  01D6  29D8               	goto	u257_20
  3141  01D7                     u257_21:	
  3142  01D7  29DE               	goto	i1l2396
  3143  01D8                     u257_20:	
  3144  01D8                     i1l2390:	
  3145                           
  3146                           ;Source/Usb.c: 913:     {;Source/Usb.c: 916:         UIRbits.UERRIF = 0;
  3147  01D8  1090               	bcf	16,1	;volatile
  3148  01D9                     i1l2392:	
  3149                           
  3150                           ;Source/Usb.c: 917:         UEIR = 0 ;
  3151  01D9  0193               	clrf	19	;volatile
  3152  01DA                     i1l2394:	
  3153                           
  3154                           ;Source/Usb.c: 918:         UIR &= ~(0x02);
  3155  01DA  30FD               	movlw	253
  3156  01DB  00FC               	movwf	??_ProcessUSBTransactions
  3157  01DC  087C               	movf	??_ProcessUSBTransactions,w
  3158  01DD  0590               	andwf	16,f	;volatile
  3159  01DE                     i1l2396:	
  3160                           
  3161                           ;Source/Usb.c: 922:     if (DeviceState < 0x03)
  3162  01DE  3003               	movlw	3
  3163  01DF  0020               	movlb	0	; select bank0
  3164  01E0  023F               	subwf	_DeviceState,w
  3165  01E1  1803               	skipnc
  3166  01E2  29E4               	goto	u258_21
  3167  01E3  29E5               	goto	u258_20
  3168  01E4                     u258_21:	
  3169  01E4  29EA               	goto	i1l417
  3170  01E5                     u258_20:	
  3171  01E5                     i1l2398:	
  3172                           
  3173                           ;Source/Usb.c: 923:     {;Source/Usb.c: 924:         UIR = 0;
  3174  01E5  003D               	movlb	29	; select bank29
  3175  01E6  0190               	clrf	16	;volatile
  3176  01E7                     i1l2400:	
  3177                           
  3178                           ;Source/Usb.c: 925:         PIR2bits.USBIF = 0;
  3179  01E7  0020               	movlb	0	; select bank0
  3180  01E8  1112               	bcf	18,2	;volatile
  3181  01E9  29FD               	goto	i1l409
  3182  01EA                     i1l417:	
  3183                           ;Source/Usb.c: 927:     }
  3184                           
  3185                           
  3186                           ;Source/Usb.c: 930:     if(UIRbits.TRNIF && UIEbits.TRNIE)
  3187  01EA  003D               	movlb	29	; select bank29
  3188  01EB  1D90               	btfss	16,3	;volatile
  3189  01EC  29EE               	goto	u259_21
  3190  01ED  29EF               	goto	u259_20
  3191  01EE                     u259_21:	
  3192  01EE  29FB               	goto	i1l2410
  3193  01EF                     u259_20:	
  3194  01EF                     i1l2404:	
  3195  01EF  1D92               	btfss	18,3	;volatile
  3196  01F0  29F2               	goto	u260_21
  3197  01F1  29F3               	goto	u260_20
  3198  01F2                     u260_21:	
  3199  01F2  29FB               	goto	i1l2410
  3200  01F3                     u260_20:	
  3201  01F3                     i1l2406:	
  3202                           
  3203                           ;Source/Usb.c: 931:     {;Source/Usb.c: 932:         ProcessControlTransfer();
  3204  01F3  3183  23F6  3181   	fcall	_ProcessControlTransfer
  3205  01F6                     i1l2408:	
  3206                           
  3207                           ;Source/Usb.c: 933:         UIR &= ~(0x08);
  3208  01F6  30F7               	movlw	247
  3209  01F7  00FC               	movwf	??_ProcessUSBTransactions
  3210  01F8  087C               	movf	??_ProcessUSBTransactions,w
  3211  01F9  003D               	movlb	29	; select bank29
  3212  01FA  0590               	andwf	16,f	;volatile
  3213  01FB                     i1l2410:	
  3214                           
  3215                           ;Source/Usb.c: 935:     PIR2bits.USBIF = 0;
  3216  01FB  0020               	movlb	0	; select bank0
  3217  01FC  1112               	bcf	18,2	;volatile
  3218  01FD                     i1l409:	
  3219  01FD  0008               	return
  3220  01FE                     __end_of_ProcessUSBTransactions:	
  3221                           
  3222                           	psect	text18
  3223  0F6F                     __ptext18:	
  3224 ;; *************** function _UnSuspend *****************
  3225 ;; Defined at:
  3226 ;;		line 798 in file "Source/Usb.c"
  3227 ;; Parameters:    Size  Location     Type
  3228 ;;		None
  3229 ;; Auto vars:     Size  Location     Type
  3230 ;;		None
  3231 ;; Return value:  Size  Location     Type
  3232 ;;                  1    wreg      void 
  3233 ;; Registers used:
  3234 ;;		wreg, status,2, status,0
  3235 ;; Tracked objects:
  3236 ;;		On entry : 0/0
  3237 ;;		On exit  : 0/0
  3238 ;;		Unchanged: 0/0
  3239 ;; Data sizes:     COMMON   BANK0   BANK1   BANK2   BANK3   BANK4   BANK5   BANK6   BANK7   BANK8   BANK9  BANK10  BANK1
      +1  BANK12
  3240 ;;      Params:         0       0       0       0       0       0       0       0       0       0       0       0       
      +0       0
  3241 ;;      Locals:         0       0       0       0       0       0       0       0       0       0       0       0       
      +0       0
  3242 ;;      Temps:          1       0       0       0       0       0       0       0       0       0       0       0       
      +0       0
  3243 ;;      Totals:         1       0       0       0       0       0       0       0       0       0       0       0       
      +0       0
  3244 ;;Total ram usage:        1 bytes
  3245 ;; Hardware stack levels used:    1
  3246 ;; This function calls:
  3247 ;;		Nothing
  3248 ;; This function is called by:
  3249 ;;		_ProcessUSBTransactions
  3250 ;; This function uses a non-reentrant model
  3251 ;;
  3252                           
  3253                           
  3254                           ;psect for function _UnSuspend
  3255  0F6F                     _UnSuspend:	
  3256  0F6F                     i1l2296:	
  3257                           ;incstack = 0
  3258                           ; Regs used in _UnSuspend: [wreg+status,2+status,0]
  3259                           
  3260                           
  3261                           ;Source/Usb.c: 800:     UCONbits.SUSPND = 0;
  3262  0F6F  003D               	movlb	29	; select bank29
  3263  0F70  108E               	bcf	14,1	;volatile
  3264                           
  3265                           ;Source/Usb.c: 801:     UIEbits.ACTVIE = 0;
  3266  0F71  1112               	bcf	18,2	;volatile
  3267  0F72                     i1l2298:	
  3268                           
  3269                           ;Source/Usb.c: 802:     UIR &= 0xFB;
  3270  0F72  30FB               	movlw	251
  3271  0F73  00F0               	movwf	??_UnSuspend
  3272  0F74  0870               	movf	??_UnSuspend,w
  3273  0F75  0590               	andwf	16,f	;volatile
  3274  0F76                     i1l389:	
  3275  0F76  0008               	return
  3276  0F77                     __end_of_UnSuspend:	
  3277                           
  3278                           	psect	text19
  3279  0F67                     __ptext19:	
  3280 ;; *************** function _Suspend *****************
  3281 ;; Defined at:
  3282 ;;		line 826 in file "Source/Usb.c"
  3283 ;; Parameters:    Size  Location     Type
  3284 ;;		None
  3285 ;; Auto vars:     Size  Location     Type
  3286 ;;		None
  3287 ;; Return value:  Size  Location     Type
  3288 ;;                  1    wreg      void 
  3289 ;; Registers used:
  3290 ;;		wreg, status,2, status,0
  3291 ;; Tracked objects:
  3292 ;;		On entry : 0/0
  3293 ;;		On exit  : 0/0
  3294 ;;		Unchanged: 0/0
  3295 ;; Data sizes:     COMMON   BANK0   BANK1   BANK2   BANK3   BANK4   BANK5   BANK6   BANK7   BANK8   BANK9  BANK10  BANK1
      +1  BANK12
  3296 ;;      Params:         0       0       0       0       0       0       0       0       0       0       0       0       
      +0       0
  3297 ;;      Locals:         0       0       0       0       0       0       0       0       0       0       0       0       
      +0       0
  3298 ;;      Temps:          1       0       0       0       0       0       0       0       0       0       0       0       
      +0       0
  3299 ;;      Totals:         1       0       0       0       0       0       0       0       0       0       0       0       
      +0       0
  3300 ;;Total ram usage:        1 bytes
  3301 ;; Hardware stack levels used:    1
  3302 ;; This function calls:
  3303 ;;		Nothing
  3304 ;; This function is called by:
  3305 ;;		_ProcessUSBTransactions
  3306 ;; This function uses a non-reentrant model
  3307 ;;
  3308                           
  3309                           
  3310                           ;psect for function _Suspend
  3311  0F67                     _Suspend:	
  3312  0F67                     i1l2310:	
  3313                           ;incstack = 0
  3314                           ; Regs used in _Suspend: [wreg+status,2+status,0]
  3315                           
  3316                           
  3317                           ;Source/Usb.c: 828:     UIEbits.ACTVIE = 1;
  3318  0F67  003D               	movlb	29	; select bank29
  3319  0F68  1512               	bsf	18,2	;volatile
  3320  0F69                     i1l2312:	
  3321                           
  3322                           ;Source/Usb.c: 829:     UIR &= 0xEF;
  3323  0F69  30EF               	movlw	239
  3324  0F6A  00F0               	movwf	??_Suspend
  3325  0F6B  0870               	movf	??_Suspend,w
  3326  0F6C  0590               	andwf	16,f	;volatile
  3327  0F6D                     i1l2314:	
  3328                           
  3329                           ;Source/Usb.c: 830:     UCONbits.SUSPND = 1;
  3330  0F6D  148E               	bsf	14,1	;volatile
  3331  0F6E                     i1l399:	
  3332  0F6E  0008               	return
  3333  0F6F                     __end_of_Suspend:	
  3334                           
  3335                           	psect	text20
  3336  0F56                     __ptext20:	
  3337 ;; *************** function _StartOfFrame *****************
  3338 ;; Defined at:
  3339 ;;		line 807 in file "Source/Usb.c"
  3340 ;; Parameters:    Size  Location     Type
  3341 ;;		None
  3342 ;; Auto vars:     Size  Location     Type
  3343 ;;		None
  3344 ;; Return value:  Size  Location     Type
  3345 ;;                  1    wreg      void 
  3346 ;; Registers used:
  3347 ;;		None
  3348 ;; Tracked objects:
  3349 ;;		On entry : 0/0
  3350 ;;		On exit  : 0/0
  3351 ;;		Unchanged: 0/0
  3352 ;; Data sizes:     COMMON   BANK0   BANK1   BANK2   BANK3   BANK4   BANK5   BANK6   BANK7   BANK8   BANK9  BANK10  BANK1
      +1  BANK12
  3353 ;;      Params:         0       0       0       0       0       0       0       0       0       0       0       0       
      +0       0
  3354 ;;      Locals:         0       0       0       0       0       0       0       0       0       0       0       0       
      +0       0
  3355 ;;      Temps:          0       0       0       0       0       0       0       0       0       0       0       0       
      +0       0
  3356 ;;      Totals:         0       0       0       0       0       0       0       0       0       0       0       0       
      +0       0
  3357 ;;Total ram usage:        0 bytes
  3358 ;; Hardware stack levels used:    1
  3359 ;; This function calls:
  3360 ;;		Nothing
  3361 ;; This function is called by:
  3362 ;;		_ProcessUSBTransactions
  3363 ;; This function uses a non-reentrant model
  3364 ;;
  3365                           
  3366                           
  3367                           ;psect for function _StartOfFrame
  3368  0F56                     _StartOfFrame:	
  3369  0F56                     i1l2300:	
  3370                           ;incstack = 0
  3371                           ; Regs used in _StartOfFrame: []
  3372                           
  3373                           
  3374                           ;Source/Usb.c: 810:     UIRbits.SOFIF = 0;
  3375  0F56  003D               	movlb	29	; select bank29
  3376  0F57  1310               	bcf	16,6	;volatile
  3377  0F58                     i1l392:	
  3378  0F58  0008               	return
  3379  0F59                     __end_of_StartOfFrame:	
  3380                           
  3381                           	psect	text21
  3382  0F8A                     __ptext21:	
  3383 ;; *************** function _Stall *****************
  3384 ;; Defined at:
  3385 ;;		line 814 in file "Source/Usb.c"
  3386 ;; Parameters:    Size  Location     Type
  3387 ;;		None
  3388 ;; Auto vars:     Size  Location     Type
  3389 ;;		None
  3390 ;; Return value:  Size  Location     Type
  3391 ;;                  1    wreg      void 
  3392 ;; Registers used:
  3393 ;;		wreg, status,2, status,0, pclath, cstack
  3394 ;; Tracked objects:
  3395 ;;		On entry : 0/0
  3396 ;;		On exit  : 0/0
  3397 ;;		Unchanged: 0/0
  3398 ;; Data sizes:     COMMON   BANK0   BANK1   BANK2   BANK3   BANK4   BANK5   BANK6   BANK7   BANK8   BANK9  BANK10  BANK1
      +1  BANK12
  3399 ;;      Params:         0       0       0       0       0       0       0       0       0       0       0       0       
      +0       0
  3400 ;;      Locals:         0       0       0       0       0       0       0       0       0       0       0       0       
      +0       0
  3401 ;;      Temps:          0       0       0       0       0       0       0       0       0       0       0       0       
      +0       0
  3402 ;;      Totals:         0       0       0       0       0       0       0       0       0       0       0       0       
      +0       0
  3403 ;;Total ram usage:        0 bytes
  3404 ;; Hardware stack levels used:    1
  3405 ;; Hardware stack levels required when called:    1
  3406 ;; This function calls:
  3407 ;;		_WaitForSetupStage
  3408 ;; This function is called by:
  3409 ;;		_ProcessUSBTransactions
  3410 ;; This function uses a non-reentrant model
  3411 ;;
  3412                           
  3413                           
  3414                           ;psect for function _Stall
  3415  0F8A                     _Stall:	
  3416  0F8A                     i1l2302:	
  3417                           ;incstack = 0
  3418                           ; Regs used in _Stall: [wreg+status,2+status,0+pclath+cstack]
  3419                           
  3420                           
  3421                           ;Source/Usb.c: 816:     if(UEP0bits.EPSTALL == 1)
  3422  0F8A  003D               	movlb	29	; select bank29
  3423  0F8B  1C18               	btfss	24,0	;volatile
  3424  0F8C  2F8E               	goto	u242_21
  3425  0F8D  2F8F               	goto	u242_20
  3426  0F8E                     u242_21:	
  3427  0F8E  2F94               	goto	i1l2308
  3428  0F8F                     u242_20:	
  3429  0F8F                     i1l2304:	
  3430                           
  3431                           ;Source/Usb.c: 817:     {;Source/Usb.c: 819:         WaitForSetupStage();
  3432  0F8F  318F  2796  318F   	fcall	_WaitForSetupStage
  3433  0F92                     i1l2306:	
  3434                           
  3435                           ;Source/Usb.c: 820:         UEP0bits.EPSTALL = 0;
  3436  0F92  003D               	movlb	29	; select bank29
  3437  0F93  1018               	bcf	24,0	;volatile
  3438  0F94                     i1l2308:	
  3439                           
  3440                           ;Source/Usb.c: 822:     UIRbits.STALLIF = 0;
  3441  0F94  1290               	bcf	16,5	;volatile
  3442  0F95                     i1l396:	
  3443  0F95  0008               	return
  3444  0F96                     __end_of_Stall:	
  3445                           
  3446                           	psect	text22
  3447  03F6                     __ptext22:	
  3448 ;; *************** function _ProcessControlTransfer *****************
  3449 ;; Defined at:
  3450 ;;		line 693 in file "Source/Usb.c"
  3451 ;; Parameters:    Size  Location     Type
  3452 ;;		None
  3453 ;; Auto vars:     Size  Location     Type
  3454 ;;  PID             1   11[COMMON] unsigned char 
  3455 ;; Return value:  Size  Location     Type
  3456 ;;                  1    wreg      void 
  3457 ;; Registers used:
  3458 ;;		wreg, fsr0l, fsr0h, fsr1l, fsr1h, status,2, status,0, pclath, cstack
  3459 ;; Tracked objects:
  3460 ;;		On entry : 0/0
  3461 ;;		On exit  : 0/0
  3462 ;;		Unchanged: 0/0
  3463 ;; Data sizes:     COMMON   BANK0   BANK1   BANK2   BANK3   BANK4   BANK5   BANK6   BANK7   BANK8   BANK9  BANK10  BANK1
      +1  BANK12
  3464 ;;      Params:         0       0       0       0       0       0       0       0       0       0       0       0       
      +0       0
  3465 ;;      Locals:         1       0       0       0       0       0       0       0       0       0       0       0       
      +0       0
  3466 ;;      Temps:          2       0       0       0       0       0       0       0       0       0       0       0       
      +0       0
  3467 ;;      Totals:         3       0       0       0       0       0       0       0       0       0       0       0       
      +0       0
  3468 ;;Total ram usage:        3 bytes
  3469 ;; Hardware stack levels used:    1
  3470 ;; Hardware stack levels required when called:    3
  3471 ;; This function calls:
  3472 ;;		_InDataStage
  3473 ;;		_OutDataStage
  3474 ;;		_SetupStage
  3475 ;;		_WaitForSetupStage
  3476 ;; This function is called by:
  3477 ;;		_ProcessUSBTransactions
  3478 ;; This function uses a non-reentrant model
  3479 ;;
  3480                           
  3481                           
  3482                           ;psect for function _ProcessControlTransfer
  3483  03F6                     _ProcessControlTransfer:	
  3484  03F6                     i1l2254:	
  3485                           ;incstack = 0
  3486                           ; Regs used in _ProcessControlTransfer: [wreg-fsr1h+status,2+status,0+pclath+cstack]
  3487                           
  3488                           
  3489                           ;Source/Usb.c: 695:     if (USTAT == 0)
  3490  03F6  003D               	movlb	29	; select bank29
  3491  03F7  080F               	movf	15,w	;volatile
  3492  03F8  1D03               	btfss	3,2
  3493  03F9  2BFB               	goto	u231_21
  3494  03FA  2BFC               	goto	u231_20
  3495  03FB                     u231_21:	
  3496  03FB  2C2D               	goto	i1l2272
  3497  03FC                     u231_20:	
  3498  03FC                     i1l2256:	
  3499                           
  3500                           ;Source/Usb.c: 696:     {;Source/Usb.c: 698:         uint8_t PID = (Interfaces[0].Output
      +                          .Stat & 0x3C) >> 2;
  3501  03FC  0020               	movlb	0	; select bank0
  3502  03FD  0820               	movf	32,w	;volatile
  3503  03FE  00F9               	movwf	??_ProcessControlTransfer
  3504  03FF  3002               	movlw	2
  3505  0400                     u232_25:	
  3506  0400  36F9               	lsrf	??_ProcessControlTransfer,f
  3507  0401  0B89               	decfsz	9,f
  3508  0402  2C00               	goto	u232_25
  3509  0403  0879               	movf	??_ProcessControlTransfer,w
  3510  0404  390F               	andlw	15
  3511  0405  00FA               	movwf	??_ProcessControlTransfer+1
  3512  0406  087A               	movf	??_ProcessControlTransfer+1,w
  3513  0407  00FB               	movwf	ProcessControlTransfer@PID
  3514                           
  3515                           ;Source/Usb.c: 699:         if (PID == 0x0D)
  3516  0408  300D               	movlw	13
  3517  0409  067B               	xorwf	ProcessControlTransfer@PID,w
  3518  040A  1D03               	btfss	3,2
  3519  040B  2C0D               	goto	u233_21
  3520  040C  2C0E               	goto	u233_20
  3521  040D                     u233_21:	
  3522  040D  2C12               	goto	i1l2260
  3523  040E                     u233_20:	
  3524  040E                     i1l2258:	
  3525                           
  3526                           ;Source/Usb.c: 701:             SetupStage();
  3527  040E  3184  2465  3183   	fcall	_SetupStage
  3528  0411  2C64               	goto	i1l371
  3529  0412                     i1l2260:	
  3530  0412  033A               	decf	_CtrlTransferStage,w
  3531  0413  1D03               	btfss	3,2
  3532  0414  2C16               	goto	u234_21
  3533  0415  2C17               	goto	u234_20
  3534  0416                     u234_21:	
  3535  0416  2C29               	goto	i1l2270
  3536  0417                     u234_20:	
  3537  0417                     i1l2262:	
  3538                           
  3539                           ;Source/Usb.c: 703:         {;Source/Usb.c: 704:             OutDataStage();
  3540  0417  3186  26C3  3183   	fcall	_OutDataStage
  3541  041A                     i1l2264:	
  3542                           
  3543                           ;Source/Usb.c: 705:             if(Interfaces[0].Output.Stat & 0x40)
  3544  041A  0020               	movlb	0	; select bank0
  3545  041B  1F20               	btfss	32,6	;volatile
  3546  041C  2C1E               	goto	u235_21
  3547  041D  2C1F               	goto	u235_20
  3548  041E                     u235_21:	
  3549  041E  2C24               	goto	i1l2268
  3550  041F                     u235_20:	
  3551  041F                     i1l2266:	
  3552                           
  3553                           ;Source/Usb.c: 706:                 Interfaces[0].Output.Stat = 0x80 | 0x08;
  3554  041F  3088               	movlw	136
  3555  0420  00F9               	movwf	??_ProcessControlTransfer
  3556  0421  0879               	movf	??_ProcessControlTransfer,w
  3557  0422  00A0               	movwf	32	;volatile
  3558  0423  2C64               	goto	i1l371
  3559  0424                     i1l2268:	
  3560                           
  3561                           ;Source/Usb.c: 708:                 Interfaces[0].Output.Stat = 0x80 | 0x40 | 0x08;
  3562  0424  30C8               	movlw	200
  3563  0425  00F9               	movwf	??_ProcessControlTransfer
  3564  0426  0879               	movf	??_ProcessControlTransfer,w
  3565  0427  00A0               	movwf	32	;volatile
  3566  0428  2C64               	goto	i1l371
  3567  0429                     i1l2270:	
  3568                           
  3569                           ;Source/Usb.c: 711:         {;Source/Usb.c: 713:             WaitForSetupStage();
  3570  0429  318F  2796  3183   	fcall	_WaitForSetupStage
  3571  042C  2C64               	goto	i1l371
  3572  042D                     i1l2272:	
  3573  042D  3004               	movlw	4
  3574  042E  060F               	xorwf	15,w	;volatile
  3575  042F  1D03               	btfss	3,2
  3576  0430  2C32               	goto	u236_21
  3577  0431  2C33               	goto	u236_20
  3578  0432                     u236_21:	
  3579  0432  2C64               	goto	i1l371
  3580  0433                     u236_20:	
  3581  0433                     i1l2274:	
  3582                           
  3583                           ;Source/Usb.c: 718:     {;Source/Usb.c: 720:         if ((UADDR == 0) && (DeviceState ==
      +                           0x04))
  3584  0433  0816               	movf	22,w	;volatile
  3585  0434  1D03               	btfss	3,2
  3586  0435  2C37               	goto	u237_21
  3587  0436  2C38               	goto	u237_20
  3588  0437                     u237_21:	
  3589  0437  2C4C               	goto	i1l2284
  3590  0438                     u237_20:	
  3591  0438                     i1l2276:	
  3592  0438  3004               	movlw	4
  3593  0439  0020               	movlb	0	; select bank0
  3594  043A  063F               	xorwf	_DeviceState,w
  3595  043B  1D03               	btfss	3,2
  3596  043C  2C3E               	goto	u238_21
  3597  043D  2C3F               	goto	u238_20
  3598  043E                     u238_21:	
  3599  043E  2C4C               	goto	i1l2284
  3600  043F                     u238_20:	
  3601  043F                     i1l2278:	
  3602                           
  3603                           ;Source/Usb.c: 721:         {;Source/Usb.c: 724:             UADDR = SetupPacket.wValue0
      +                          ;
  3604  043F  0842               	movf	_SetupPacket+2,w	;volatile
  3605  0440  003D               	movlb	29	; select bank29
  3606  0441  0096               	movwf	22	;volatile
  3607  0442                     i1l2280:	
  3608                           
  3609                           ;Source/Usb.c: 725:             if(UADDR == 0)
  3610  0442  0816               	movf	22,w	;volatile
  3611  0443  1D03               	btfss	3,2
  3612  0444  2C46               	goto	u239_21
  3613  0445  2C47               	goto	u239_20
  3614  0446                     u239_21:	
  3615  0446  2C4C               	goto	i1l2284
  3616  0447                     u239_20:	
  3617  0447                     i1l2282:	
  3618                           
  3619                           ;Source/Usb.c: 728:                 DeviceState = 0x03;
  3620  0447  3003               	movlw	3
  3621  0448  00F9               	movwf	??_ProcessControlTransfer
  3622  0449  0879               	movf	??_ProcessControlTransfer,w
  3623  044A  0020               	movlb	0	; select bank0
  3624  044B  00BF               	movwf	_DeviceState
  3625  044C                     i1l2284:	
  3626                           
  3627                           ;Source/Usb.c: 731:         if (CtrlTransferStage == 0x02)
  3628  044C  3002               	movlw	2
  3629  044D  0020               	movlb	0	; select bank0
  3630  044E  063A               	xorwf	_CtrlTransferStage,w
  3631  044F  1D03               	btfss	3,2
  3632  0450  2C52               	goto	u240_21
  3633  0451  2C53               	goto	u240_20
  3634  0452                     u240_21:	
  3635  0452  2C29               	goto	i1l2270
  3636  0453                     u240_20:	
  3637  0453                     i1l2286:	
  3638                           
  3639                           ;Source/Usb.c: 732:         {;Source/Usb.c: 734:             InDataStage();
  3640  0453  3182  2289  3183   	fcall	_InDataStage
  3641  0456                     i1l2288:	
  3642                           
  3643                           ;Source/Usb.c: 737:             if(Interfaces[0].Input.Stat & 0x40)
  3644  0456  0020               	movlb	0	; select bank0
  3645  0457  1F24               	btfss	36,6	;volatile
  3646  0458  2C5A               	goto	u241_21
  3647  0459  2C5B               	goto	u241_20
  3648  045A                     u241_21:	
  3649  045A  2C60               	goto	i1l2292
  3650  045B                     u241_20:	
  3651  045B                     i1l2290:	
  3652                           
  3653                           ;Source/Usb.c: 738:                 Interfaces[0].Input.Stat = 0x80 | 0x08;
  3654  045B  3088               	movlw	136
  3655  045C  00F9               	movwf	??_ProcessControlTransfer
  3656  045D  0879               	movf	??_ProcessControlTransfer,w
  3657  045E  00A4               	movwf	36	;volatile
  3658  045F  2C64               	goto	i1l371
  3659  0460                     i1l2292:	
  3660                           
  3661                           ;Source/Usb.c: 740:                 Interfaces[0].Input.Stat = 0x80 | 0x40 | 0x08;
  3662  0460  30C8               	movlw	200
  3663  0461  00F9               	movwf	??_ProcessControlTransfer
  3664  0462  0879               	movf	??_ProcessControlTransfer,w
  3665  0463  00A4               	movwf	36	;volatile
  3666  0464                     i1l371:	
  3667  0464  0008               	return
  3668  0465                     __end_of_ProcessControlTransfer:	
  3669                           
  3670                           	psect	text23
  3671  0465                     __ptext23:	
  3672 ;; *************** function _SetupStage *****************
  3673 ;; Defined at:
  3674 ;;		line 612 in file "Source/Usb.c"
  3675 ;; Parameters:    Size  Location     Type
  3676 ;;		None
  3677 ;; Auto vars:     Size  Location     Type
  3678 ;;		None
  3679 ;; Return value:  Size  Location     Type
  3680 ;;                  1    wreg      void 
  3681 ;; Registers used:
  3682 ;;		wreg, fsr0l, fsr0h, fsr1l, fsr1h, status,2, status,0, pclath, cstack
  3683 ;; Tracked objects:
  3684 ;;		On entry : 0/0
  3685 ;;		On exit  : 0/0
  3686 ;;		Unchanged: 0/0
  3687 ;; Data sizes:     COMMON   BANK0   BANK1   BANK2   BANK3   BANK4   BANK5   BANK6   BANK7   BANK8   BANK9  BANK10  BANK1
      +1  BANK12
  3688 ;;      Params:         0       0       0       0       0       0       0       0       0       0       0       0       
      +0       0
  3689 ;;      Locals:         0       0       0       0       0       0       0       0       0       0       0       0       
      +0       0
  3690 ;;      Temps:          1       0       0       0       0       0       0       0       0       0       0       0       
      +0       0
  3691 ;;      Totals:         1       0       0       0       0       0       0       0       0       0       0       0       
      +0       0
  3692 ;;Total ram usage:        1 bytes
  3693 ;; Hardware stack levels used:    1
  3694 ;; Hardware stack levels required when called:    2
  3695 ;; This function calls:
  3696 ;;		_InDataStage
  3697 ;;		_ProcessHIDRequest
  3698 ;;		_ProcessStandardRequest
  3699 ;; This function is called by:
  3700 ;;		_ProcessControlTransfer
  3701 ;; This function uses a non-reentrant model
  3702 ;;
  3703                           
  3704                           
  3705                           ;psect for function _SetupStage
  3706  0465                     _SetupStage:	
  3707  0465                     i1l2092:	
  3708                           ;incstack = 0
  3709                           ; Regs used in _SetupStage: [wreg-fsr1h+status,2+status,0+pclath+cstack]
  3710                           
  3711                           
  3712                           ;Source/Usb.c: 616:     Interfaces[0].Input.Stat &= ~0x80;
  3713  0465  307F               	movlw	127
  3714  0466  00F8               	movwf	??_SetupStage
  3715  0467  0878               	movf	??_SetupStage,w
  3716  0468  0020               	movlb	0	; select bank0
  3717  0469  05A4               	andwf	36,f	;volatile
  3718                           
  3719                           ;Source/Usb.c: 617:     Interfaces[0].Output.Stat &= ~0x80;
  3720  046A  307F               	movlw	127
  3721  046B  00F8               	movwf	??_SetupStage
  3722  046C  0878               	movf	??_SetupStage,w
  3723  046D  05A0               	andwf	32,f	;volatile
  3724  046E                     i1l2094:	
  3725                           
  3726                           ;Source/Usb.c: 620:     CtrlTransferStage = 0x00;
  3727  046E  01BA               	clrf	_CtrlTransferStage
  3728  046F                     i1l2096:	
  3729                           
  3730                           ;Source/Usb.c: 621:     RequestHandled = 0;
  3731  046F  01B8               	clrf	_RequestHandled
  3732  0470                     i1l2098:	
  3733                           
  3734                           ;Source/Usb.c: 622:     HIDPostProcess = 0;
  3735  0470  01B9               	clrf	_HIDPostProcess
  3736  0471                     i1l2100:	
  3737                           
  3738                           ;Source/Usb.c: 623:     wCount = 0;
  3739  0471  01B0               	clrf	_wCount
  3740  0472  01B1               	clrf	_wCount+1
  3741  0473                     i1l2102:	
  3742                           
  3743                           ;Source/Usb.c: 626:     ProcessStandardRequest();
  3744  0473  3180  20D9  3184   	fcall	_ProcessStandardRequest
  3745  0476                     i1l2104:	
  3746                           
  3747                           ;Source/Usb.c: 629:     ProcessHIDRequest();
  3748  0476  3180  203F  3184   	fcall	_ProcessHIDRequest
  3749  0479                     i1l2106:	
  3750                           
  3751                           ;Source/Usb.c: 633:     if (!RequestHandled)
  3752  0479  0020               	movlb	0	; select bank0
  3753  047A  0838               	movf	_RequestHandled,w
  3754  047B  1D03               	btfss	3,2
  3755  047C  2C7E               	goto	u209_21
  3756  047D  2C7F               	goto	u209_20
  3757  047E                     u209_21:	
  3758  047E  2C8E               	goto	i1l344
  3759  047F                     u209_20:	
  3760  047F                     i1l2108:	
  3761                           
  3762                           ;Source/Usb.c: 634:     {;Source/Usb.c: 636:         Interfaces[0].Output.Cnt = 0x08;
  3763  047F  3008               	movlw	8
  3764  0480  00A1               	movwf	33	;volatile
  3765  0481                     i1l2110:	
  3766                           
  3767                           ;Source/Usb.c: 637:         Interfaces[0].Output.ADDR = ((unsigned int)(((unsigned long)
      +                          &SetupPacket) & 0xFFFF));
  3768  0481  3040               	movlw	low _SetupPacket
  3769  0482  00A2               	movwf	34	;volatile
  3770  0483  3000               	movlw	high _SetupPacket
  3771  0484  00A3               	movwf	35	;volatile
  3772  0485                     i1l2112:	
  3773                           
  3774                           ;Source/Usb.c: 638:         Interfaces[0].Output.Stat = 0x80 | 0x04;
  3775  0485  3084               	movlw	132
  3776  0486  00F8               	movwf	??_SetupStage
  3777  0487  0878               	movf	??_SetupStage,w
  3778  0488  00A0               	movwf	32	;volatile
  3779  0489                     i1l2114:	
  3780                           
  3781                           ;Source/Usb.c: 639:         Interfaces[0].Input.Stat = 0x80 | 0x04;
  3782  0489  3084               	movlw	132
  3783  048A  00F8               	movwf	??_SetupStage
  3784  048B  0878               	movf	??_SetupStage,w
  3785  048C  00A4               	movwf	36	;volatile
  3786                           
  3787                           ;Source/Usb.c: 640:     }
  3788  048D  2CCC               	goto	i1l2144
  3789  048E                     i1l344:	
  3790                           ;Source/Usb.c: 641:     else if (SetupPacket.bmRequestType & 0x80)
  3791                           
  3792  048E  1FC0               	btfss	_SetupPacket,7	;volatile
  3793  048F  2C91               	goto	u210_21
  3794  0490  2C92               	goto	u210_20
  3795  0491                     u210_21:	
  3796  0491  2CBB               	goto	i1l346
  3797  0492                     u210_20:	
  3798  0492                     i1l2116:	
  3799                           
  3800                           ;Source/Usb.c: 642:     {;Source/Usb.c: 644:         if(SetupPacket.wLength < wCount)
  3801  0492  0831               	movf	_wCount+1,w
  3802  0493  0247               	subwf	_SetupPacket+7,w	;volatile
  3803  0494  1D03               	skipz
  3804  0495  2C98               	goto	u211_25
  3805  0496  0830               	movf	_wCount,w
  3806  0497  0246               	subwf	_SetupPacket+6,w	;volatile
  3807  0498                     u211_25:	
  3808  0498  1803               	skipnc
  3809  0499  2C9B               	goto	u211_21
  3810  049A  2C9C               	goto	u211_20
  3811  049B                     u211_21:	
  3812  049B  2CA0               	goto	i1l2120
  3813  049C                     u211_20:	
  3814  049C                     i1l2118:	
  3815                           
  3816                           ;Source/Usb.c: 645:             wCount = SetupPacket.wLength;
  3817  049C  0847               	movf	_SetupPacket+7,w	;volatile
  3818  049D  00B1               	movwf	_wCount+1
  3819  049E  0846               	movf	_SetupPacket+6,w	;volatile
  3820  049F  00B0               	movwf	_wCount
  3821  04A0                     i1l2120:	
  3822                           
  3823                           ;Source/Usb.c: 646:         InDataStage();
  3824  04A0  3182  2289  3184   	fcall	_InDataStage
  3825  04A3                     i1l2122:	
  3826                           
  3827                           ;Source/Usb.c: 647:         CtrlTransferStage = 0x02;
  3828  04A3  3002               	movlw	2
  3829  04A4  00F8               	movwf	??_SetupStage
  3830  04A5  0878               	movf	??_SetupStage,w
  3831  04A6  0020               	movlb	0	; select bank0
  3832  04A7  00BA               	movwf	_CtrlTransferStage
  3833  04A8                     i1l2124:	
  3834                           
  3835                           ;Source/Usb.c: 649:         Interfaces[0].Output.Cnt = 0x08;
  3836  04A8  3008               	movlw	8
  3837  04A9  00A1               	movwf	33	;volatile
  3838  04AA                     i1l2126:	
  3839                           
  3840                           ;Source/Usb.c: 650:         Interfaces[0].Output.ADDR = ((unsigned int)(((unsigned long)
      +                          &SetupPacket) & 0xFFFF));
  3841  04AA  3040               	movlw	low _SetupPacket
  3842  04AB  00A2               	movwf	34	;volatile
  3843  04AC  3000               	movlw	high _SetupPacket
  3844  04AD  00A3               	movwf	35	;volatile
  3845  04AE                     i1l2128:	
  3846                           
  3847                           ;Source/Usb.c: 651:         Interfaces[0].Output.Stat = 0x80;
  3848  04AE  3080               	movlw	128
  3849  04AF  00F8               	movwf	??_SetupStage
  3850  04B0  0878               	movf	??_SetupStage,w
  3851  04B1  00A0               	movwf	32	;volatile
  3852  04B2                     i1l2130:	
  3853                           
  3854                           ;Source/Usb.c: 654:         Interfaces[0].Input.ADDR = ((unsigned int)(((unsigned long)&
      +                          ControlTransferBuffer) & 0xFFFF));
  3855  04B2  3049               	movlw	low _ControlTransferBuffer
  3856  04B3  00A6               	movwf	38	;volatile
  3857  04B4  3000               	movlw	high _ControlTransferBuffer
  3858  04B5  00A7               	movwf	39	;volatile
  3859  04B6                     i1l2132:	
  3860                           
  3861                           ;Source/Usb.c: 656:         Interfaces[0].Input.Stat = 0x80 | 0x40 | 0x08;
  3862  04B6  30C8               	movlw	200
  3863  04B7  00F8               	movwf	??_SetupStage
  3864  04B8  0878               	movf	??_SetupStage,w
  3865  04B9  00A4               	movwf	36	;volatile
  3866                           
  3867                           ;Source/Usb.c: 657:     }
  3868  04BA  2CCC               	goto	i1l2144
  3869  04BB                     i1l346:	
  3870                           ;Source/Usb.c: 658:     else
  3871                           
  3872                           
  3873                           ;Source/Usb.c: 659:     {;Source/Usb.c: 661:         CtrlTransferStage = 0x01;
  3874  04BB  01BA               	clrf	_CtrlTransferStage
  3875  04BC  0ABA               	incf	_CtrlTransferStage,f
  3876  04BD                     i1l2134:	
  3877                           
  3878                           ;Source/Usb.c: 664:         Interfaces[0].Input.Cnt = 0;
  3879  04BD  01A5               	clrf	37	;volatile
  3880  04BE                     i1l2136:	
  3881                           
  3882                           ;Source/Usb.c: 665:         Interfaces[0].Input.Stat = 0x80 | 0x40 | 0x08;
  3883  04BE  30C8               	movlw	200
  3884  04BF  00F8               	movwf	??_SetupStage
  3885  04C0  0878               	movf	??_SetupStage,w
  3886  04C1  00A4               	movwf	36	;volatile
  3887  04C2                     i1l2138:	
  3888                           
  3889                           ;Source/Usb.c: 668:         Interfaces[0].Output.Cnt = 0x08;
  3890  04C2  3008               	movlw	8
  3891  04C3  00A1               	movwf	33	;volatile
  3892  04C4                     i1l2140:	
  3893                           
  3894                           ;Source/Usb.c: 669:         Interfaces[0].Output.ADDR = ((unsigned int)(((unsigned long)
      +                          &ControlTransferBuffer) & 0xFFFF));
  3895  04C4  3049               	movlw	low _ControlTransferBuffer
  3896  04C5  00A2               	movwf	34	;volatile
  3897  04C6  3000               	movlw	high _ControlTransferBuffer
  3898  04C7  00A3               	movwf	35	;volatile
  3899  04C8                     i1l2142:	
  3900                           
  3901                           ;Source/Usb.c: 671:         Interfaces[0].Output.Stat = 0x80 | 0x40 | 0x08;
  3902  04C8  30C8               	movlw	200
  3903  04C9  00F8               	movwf	??_SetupStage
  3904  04CA  0878               	movf	??_SetupStage,w
  3905  04CB  00A0               	movwf	32	;volatile
  3906  04CC                     i1l2144:	
  3907                           
  3908                           ;Source/Usb.c: 675:     UCONbits.PKTDIS = 0;
  3909  04CC  003D               	movlb	29	; select bank29
  3910  04CD  120E               	bcf	14,4	;volatile
  3911  04CE                     i1l349:	
  3912  04CE  0008               	return
  3913  04CF                     __end_of_SetupStage:	
  3914                           
  3915                           	psect	text24
  3916  00D9                     __ptext24:	
  3917 ;; *************** function _ProcessStandardRequest *****************
  3918 ;; Defined at:
  3919 ;;		line 475 in file "Source/Usb.c"
  3920 ;; Parameters:    Size  Location     Type
  3921 ;;		None
  3922 ;; Auto vars:     Size  Location     Type
  3923 ;;  request         1    7[COMMON] unsigned char 
  3924 ;; Return value:  Size  Location     Type
  3925 ;;                  1    wreg      void 
  3926 ;; Registers used:
  3927 ;;		wreg, fsr0l, fsr0h, fsr1l, fsr1h, status,2, status,0, pclath, cstack
  3928 ;; Tracked objects:
  3929 ;;		On entry : 0/0
  3930 ;;		On exit  : 0/0
  3931 ;;		Unchanged: 0/0
  3932 ;; Data sizes:     COMMON   BANK0   BANK1   BANK2   BANK3   BANK4   BANK5   BANK6   BANK7   BANK8   BANK9  BANK10  BANK1
      +1  BANK12
  3933 ;;      Params:         0       0       0       0       0       0       0       0       0       0       0       0       
      +0       0
  3934 ;;      Locals:         1       0       0       0       0       0       0       0       0       0       0       0       
      +0       0
  3935 ;;      Temps:          1       0       0       0       0       0       0       0       0       0       0       0       
      +0       0
  3936 ;;      Totals:         2       0       0       0       0       0       0       0       0       0       0       0       
      +0       0
  3937 ;;Total ram usage:        2 bytes
  3938 ;; Hardware stack levels used:    1
  3939 ;; Hardware stack levels required when called:    1
  3940 ;; This function calls:
  3941 ;;		_GetDescriptor
  3942 ;;		_GetStatus
  3943 ;;		_HIDInitEndpoints
  3944 ;;		_SetFeature
  3945 ;; This function is called by:
  3946 ;;		_SetupStage
  3947 ;; This function uses a non-reentrant model
  3948 ;;
  3949                           
  3950                           
  3951                           ;psect for function _ProcessStandardRequest
  3952  00D9                     _ProcessStandardRequest:	
  3953  00D9                     i1l1942:	
  3954                           ;incstack = 0
  3955                           ; Regs used in _ProcessStandardRequest: [wreg-fsr1h+status,2+status,0+pclath+cstack]
  3956                           
  3957                           
  3958                           ;Source/Usb.c: 477:     uint8_t request = SetupPacket.bRequest;
  3959  00D9  0020               	movlb	0	; select bank0
  3960  00DA  0841               	movf	_SetupPacket+1,w	;volatile
  3961  00DB  00F6               	movwf	??_ProcessStandardRequest
  3962  00DC  0876               	movf	??_ProcessStandardRequest,w
  3963  00DD  00F7               	movwf	ProcessStandardRequest@request
  3964  00DE                     i1l1944:	
  3965                           
  3966                           ;Source/Usb.c: 479:     if((SetupPacket.bmRequestType & 0x60) != 0x00)
  3967  00DE  0840               	movf	_SetupPacket,w	;volatile
  3968  00DF  3960               	andlw	96
  3969  00E0  1903               	btfsc	3,2
  3970  00E1  28E3               	goto	u180_21
  3971  00E2  28E4               	goto	u180_20
  3972  00E3                     u180_21:	
  3973  00E3  28E5               	goto	i1l1948
  3974  00E4                     u180_20:	
  3975  00E4  296B               	goto	i1l298
  3976  00E5                     i1l1948:	
  3977                           
  3978                           ;Source/Usb.c: 484:     if (request == 0x05)
  3979  00E5  3005               	movlw	5
  3980  00E6  0677               	xorwf	ProcessStandardRequest@request,w
  3981  00E7  1D03               	btfss	3,2
  3982  00E8  28EA               	goto	u181_21
  3983  00E9  28EB               	goto	u181_20
  3984  00EA                     u181_21:	
  3985  00EA  28F6               	goto	i1l1954
  3986  00EB                     u181_20:	
  3987  00EB                     i1l1950:	
  3988                           
  3989                           ;Source/Usb.c: 485:     {;Source/Usb.c: 490:             RequestHandled = 1;
  3990  00EB  01B8               	clrf	_RequestHandled
  3991  00EC  0AB8               	incf	_RequestHandled,f
  3992  00ED                     i1l1952:	
  3993                           
  3994                           ;Source/Usb.c: 491:             DeviceState = 0x04;
  3995  00ED  3004               	movlw	4
  3996  00EE  00F6               	movwf	??_ProcessStandardRequest
  3997  00EF  0876               	movf	??_ProcessStandardRequest,w
  3998  00F0  00BF               	movwf	_DeviceState
  3999                           
  4000                           ;Source/Usb.c: 492:             DeviceAddress = SetupPacket.wValue0;
  4001  00F1  0842               	movf	_SetupPacket+2,w	;volatile
  4002  00F2  00F6               	movwf	??_ProcessStandardRequest
  4003  00F3  0876               	movf	??_ProcessStandardRequest,w
  4004  00F4  00BC               	movwf	_DeviceAddress
  4005                           
  4006                           ;Source/Usb.c: 493:     }
  4007  00F5  296B               	goto	i1l298
  4008  00F6                     i1l1954:	
  4009  00F6  3006               	movlw	6
  4010  00F7  0677               	xorwf	ProcessStandardRequest@request,w
  4011  00F8  1D03               	btfss	3,2
  4012  00F9  28FB               	goto	u182_21
  4013  00FA  28FC               	goto	u182_20
  4014  00FB                     u182_21:	
  4015  00FB  2900               	goto	i1l1958
  4016  00FC                     u182_20:	
  4017  00FC                     i1l1956:	
  4018                           
  4019                           ;Source/Usb.c: 495:     {;Source/Usb.c: 496:             GetDescriptor();
  4020  00FC  3185  2534  3180   	fcall	_GetDescriptor
  4021                           
  4022                           ;Source/Usb.c: 497:     }
  4023  00FF  296B               	goto	i1l298
  4024  0100                     i1l1958:	
  4025  0100  3009               	movlw	9
  4026  0101  0677               	xorwf	ProcessStandardRequest@request,w
  4027  0102  1D03               	btfss	3,2
  4028  0103  2905               	goto	u183_21
  4029  0104  2906               	goto	u183_20
  4030  0105                     u183_21:	
  4031  0105  291E               	goto	i1l1972
  4032  0106                     u183_20:	
  4033  0106                     i1l1960:	
  4034                           
  4035                           ;Source/Usb.c: 499:     {;Source/Usb.c: 500:             RequestHandled = 1;
  4036  0106  01B8               	clrf	_RequestHandled
  4037  0107  0AB8               	incf	_RequestHandled,f
  4038  0108                     i1l1962:	
  4039                           
  4040                           ;Source/Usb.c: 501:             CurrentConfiguration = SetupPacket.wValue0;
  4041  0108  0842               	movf	_SetupPacket+2,w	;volatile
  4042  0109  00F6               	movwf	??_ProcessStandardRequest
  4043  010A  0876               	movf	??_ProcessStandardRequest,w
  4044  010B  00DB               	movwf	_CurrentConfiguration
  4045  010C                     i1l1964:	
  4046                           
  4047                           ;Source/Usb.c: 504:             if (CurrentConfiguration == 0)
  4048  010C  085B               	movf	_CurrentConfiguration,w
  4049  010D  1D03               	btfss	3,2
  4050  010E  2910               	goto	u184_21
  4051  010F  2911               	goto	u184_20
  4052  0110                     u184_21:	
  4053  0110  2916               	goto	i1l1968
  4054  0111                     u184_20:	
  4055  0111                     i1l1966:	
  4056                           
  4057                           ;Source/Usb.c: 507:                 DeviceState = 0x04;
  4058  0111  3004               	movlw	4
  4059  0112  00F6               	movwf	??_ProcessStandardRequest
  4060  0113  0876               	movf	??_ProcessStandardRequest,w
  4061  0114  00BF               	movwf	_DeviceState
  4062  0115  296B               	goto	i1l298
  4063  0116                     i1l1968:	
  4064                           
  4065                           ;Source/Usb.c: 509:             {;Source/Usb.c: 511:                 DeviceState = 0x05;
  4066  0116  3005               	movlw	5
  4067  0117  00F6               	movwf	??_ProcessStandardRequest
  4068  0118  0876               	movf	??_ProcessStandardRequest,w
  4069  0119  00BF               	movwf	_DeviceState
  4070  011A                     i1l1970:	
  4071                           
  4072                           ;Source/Usb.c: 514:                 HIDInitEndpoints();
  4073  011A  3181  21FE  3180   	fcall	_HIDInitEndpoints
  4074  011D  296B               	goto	i1l298
  4075  011E                     i1l1972:	
  4076  011E  3008               	movlw	8
  4077  011F  0677               	xorwf	ProcessStandardRequest@request,w
  4078  0120  1D03               	btfss	3,2
  4079  0121  2923               	goto	u185_21
  4080  0122  2924               	goto	u185_20
  4081  0123                     u185_21:	
  4082  0123  2930               	goto	i1l1980
  4083  0124                     u185_20:	
  4084  0124                     i1l1974:	
  4085                           
  4086                           ;Source/Usb.c: 521:     {;Source/Usb.c: 522:             RequestHandled = 1;
  4087  0124  01B8               	clrf	_RequestHandled
  4088  0125  0AB8               	incf	_RequestHandled,f
  4089  0126                     i1l1976:	
  4090                           
  4091                           ;Source/Usb.c: 523:             outPtr = (uint8_t*)&CurrentConfiguration;
  4092  0126  305B               	movlw	(low (_CurrentConfiguration| 0))& (0+255)
  4093  0127  00F6               	movwf	??_ProcessStandardRequest
  4094  0128  0876               	movf	??_ProcessStandardRequest,w
  4095  0129  00B6               	movwf	_outPtr
  4096                           
  4097                           ;Source/Usb.c: 524:             wCount = 1;
  4098  012A  3001               	movlw	1
  4099  012B  00B0               	movwf	_wCount
  4100  012C  3000               	movlw	0
  4101  012D  00B1               	movwf	_wCount+1
  4102  012E                     i1l1978:	
  4103                           
  4104                           ;Source/Usb.c: 525:    transferType=0;
  4105  012E  01B5               	clrf	_transferType
  4106                           
  4107                           ;Source/Usb.c: 526:     }
  4108  012F  296B               	goto	i1l298
  4109  0130                     i1l1980:	
  4110  0130  0877               	movf	ProcessStandardRequest@request,w
  4111  0131  1D03               	btfss	3,2
  4112  0132  2934               	goto	u186_21
  4113  0133  2935               	goto	u186_20
  4114  0134                     u186_21:	
  4115  0134  2939               	goto	i1l1984
  4116  0135                     u186_20:	
  4117  0135                     i1l1982:	
  4118                           
  4119                           ;Source/Usb.c: 528:     {;Source/Usb.c: 529:             GetStatus();
  4120  0135  3184  24CF  3180   	fcall	_GetStatus
  4121                           
  4122                           ;Source/Usb.c: 530:     }
  4123  0138  296B               	goto	i1l298
  4124  0139                     i1l1984:	
  4125  0139  0377               	decf	ProcessStandardRequest@request,w
  4126  013A  1903               	btfsc	3,2
  4127  013B  293D               	goto	u187_21
  4128  013C  293E               	goto	u187_20
  4129  013D                     u187_21:	
  4130  013D  2944               	goto	i1l1988
  4131  013E                     u187_20:	
  4132  013E                     i1l1986:	
  4133  013E  3003               	movlw	3
  4134  013F  0677               	xorwf	ProcessStandardRequest@request,w
  4135  0140  1D03               	btfss	3,2
  4136  0141  2943               	goto	u188_21
  4137  0142  2944               	goto	u188_20
  4138  0143                     u188_21:	
  4139  0143  2948               	goto	i1l1990
  4140  0144                     u188_20:	
  4141  0144                     i1l1988:	
  4142                           
  4143                           ;Source/Usb.c: 533:     {;Source/Usb.c: 534:             SetFeature();
  4144  0144  3183  2384  3180   	fcall	_SetFeature
  4145                           
  4146                           ;Source/Usb.c: 535:     }
  4147  0147  296B               	goto	i1l298
  4148  0148                     i1l1990:	
  4149  0148  300A               	movlw	10
  4150  0149  0677               	xorwf	ProcessStandardRequest@request,w
  4151  014A  1D03               	btfss	3,2
  4152  014B  294D               	goto	u189_21
  4153  014C  294E               	goto	u189_20
  4154  014D                     u189_21:	
  4155  014D  295B               	goto	i1l2000
  4156  014E                     u189_20:	
  4157  014E                     i1l1992:	
  4158                           
  4159                           ;Source/Usb.c: 537:     {;Source/Usb.c: 540:             RequestHandled = 1;
  4160  014E  01B8               	clrf	_RequestHandled
  4161  014F  0AB8               	incf	_RequestHandled,f
  4162  0150                     i1l1994:	
  4163                           
  4164                           ;Source/Usb.c: 541:             ControlTransferBuffer[0] = 0;
  4165  0150  01C9               	clrf	_ControlTransferBuffer	;volatile
  4166  0151                     i1l1996:	
  4167                           
  4168                           ;Source/Usb.c: 542:             outPtr = (uint8_t*)&ControlTransferBuffer;
  4169  0151  3049               	movlw	(low (_ControlTransferBuffer| 0))& (0+255)
  4170  0152  00F6               	movwf	??_ProcessStandardRequest
  4171  0153  0876               	movf	??_ProcessStandardRequest,w
  4172  0154  00B6               	movwf	_outPtr
  4173  0155                     i1l1998:	
  4174                           
  4175                           ;Source/Usb.c: 543:             wCount = 1;
  4176  0155  3001               	movlw	1
  4177  0156  00B0               	movwf	_wCount
  4178  0157  3000               	movlw	0
  4179  0158  00B1               	movwf	_wCount+1
  4180                           
  4181                           ;Source/Usb.c: 544:    transferType=0;
  4182  0159  01B5               	clrf	_transferType
  4183                           
  4184                           ;Source/Usb.c: 545:     }
  4185  015A  296B               	goto	i1l298
  4186  015B                     i1l2000:	
  4187  015B  300B               	movlw	11
  4188  015C  0677               	xorwf	ProcessStandardRequest@request,w
  4189  015D  1D03               	btfss	3,2
  4190  015E  2960               	goto	u190_21
  4191  015F  2961               	goto	u190_20
  4192  0160                     u190_21:	
  4193  0160  2964               	goto	i1l2004
  4194  0161                     u190_20:	
  4195  0161                     i1l2002:	
  4196                           
  4197                           ;Source/Usb.c: 547:     {;Source/Usb.c: 549:             RequestHandled = 1;
  4198  0161  01B8               	clrf	_RequestHandled
  4199  0162  0AB8               	incf	_RequestHandled,f
  4200                           
  4201                           ;Source/Usb.c: 550:     }
  4202  0163  296B               	goto	i1l298
  4203  0164                     i1l2004:	
  4204  0164  3007               	movlw	7
  4205  0165  0677               	xorwf	ProcessStandardRequest@request,w
  4206  0166  1D03               	btfss	3,2
  4207  0167  2969               	goto	u191_21
  4208  0168  296A               	goto	u191_20
  4209  0169                     u191_21:	
  4210  0169  296B               	goto	i1l2008
  4211  016A                     u191_20:	
  4212  016A  296B               	goto	i1l298
  4213  016B                     i1l2008:	
  4214  016B                     i1l298:	
  4215  016B  0008               	return
  4216  016C                     __end_of_ProcessStandardRequest:	
  4217                           
  4218                           	psect	text25
  4219  0384                     __ptext25:	
  4220 ;; *************** function _SetFeature *****************
  4221 ;; Defined at:
  4222 ;;		line 429 in file "Source/Usb.c"
  4223 ;; Parameters:    Size  Location     Type
  4224 ;;		None
  4225 ;; Auto vars:     Size  Location     Type
  4226 ;;  endpointDir     1    5[COMMON] unsigned char 
  4227 ;;  endpointNum     1    4[COMMON] unsigned char 
  4228 ;;  feature         1    3[COMMON] unsigned char 
  4229 ;;  recipient       1    2[COMMON] unsigned char 
  4230 ;; Return value:  Size  Location     Type
  4231 ;;                  1    wreg      void 
  4232 ;; Registers used:
  4233 ;;		wreg, fsr1l, fsr1h, status,2, status,0
  4234 ;; Tracked objects:
  4235 ;;		On entry : 0/0
  4236 ;;		On exit  : 0/0
  4237 ;;		Unchanged: 0/0
  4238 ;; Data sizes:     COMMON   BANK0   BANK1   BANK2   BANK3   BANK4   BANK5   BANK6   BANK7   BANK8   BANK9  BANK10  BANK1
      +1  BANK12
  4239 ;;      Params:         0       0       0       0       0       0       0       0       0       0       0       0       
      +0       0
  4240 ;;      Locals:         4       0       0       0       0       0       0       0       0       0       0       0       
      +0       0
  4241 ;;      Temps:          2       0       0       0       0       0       0       0       0       0       0       0       
      +0       0
  4242 ;;      Totals:         6       0       0       0       0       0       0       0       0       0       0       0       
      +0       0
  4243 ;;Total ram usage:        6 bytes
  4244 ;; Hardware stack levels used:    1
  4245 ;; This function calls:
  4246 ;;		Nothing
  4247 ;; This function is called by:
  4248 ;;		_ProcessStandardRequest
  4249 ;; This function uses a non-reentrant model
  4250 ;;
  4251                           
  4252                           
  4253                           ;psect for function _SetFeature
  4254  0384                     _SetFeature:	
  4255  0384                     i1l1834:	
  4256                           ;incstack = 0
  4257                           ; Regs used in _SetFeature: [wreg+fsr1l+fsr1h+status,2+status,0]
  4258                           
  4259                           
  4260                           ;Source/Usb.c: 431:     uint8_t recipient = SetupPacket.bmRequestType & 0x1F;
  4261  0384  0020               	movlb	0	; select bank0
  4262  0385  0840               	movf	_SetupPacket,w	;volatile
  4263  0386  391F               	andlw	31
  4264  0387  00F0               	movwf	??_SetFeature
  4265  0388  0870               	movf	??_SetFeature,w
  4266  0389  00F2               	movwf	SetFeature@recipient
  4267  038A                     i1l1836:	
  4268                           
  4269                           ;Source/Usb.c: 432:     uint8_t feature = SetupPacket.wValue0;
  4270  038A  0842               	movf	_SetupPacket+2,w	;volatile
  4271  038B  00F0               	movwf	??_SetFeature
  4272  038C  0870               	movf	??_SetFeature,w
  4273  038D  00F3               	movwf	SetFeature@feature
  4274  038E                     i1l1838:	
  4275                           
  4276                           ;Source/Usb.c: 434:     if (recipient == 0x00)
  4277  038E  0872               	movf	SetFeature@recipient,w
  4278  038F  1D03               	btfss	3,2
  4279  0390  2B92               	goto	u158_21
  4280  0391  2B93               	goto	u158_20
  4281  0392                     u158_21:	
  4282  0392  2BA5               	goto	i1l1850
  4283  0393                     u158_20:	
  4284  0393                     i1l1840:	
  4285                           
  4286                           ;Source/Usb.c: 435:     {;Source/Usb.c: 437:         if (feature == 0x01)
  4287  0393  0373               	decf	SetFeature@feature,w
  4288  0394  1D03               	btfss	3,2
  4289  0395  2B97               	goto	u159_21
  4290  0396  2B98               	goto	u159_20
  4291  0397                     u159_21:	
  4292  0397  2BF5               	goto	i1l294
  4293  0398                     u159_20:	
  4294  0398                     i1l1842:	
  4295                           
  4296                           ;Source/Usb.c: 438:         {;Source/Usb.c: 439:             RequestHandled = 1;
  4297  0398  01B8               	clrf	_RequestHandled
  4298  0399  0AB8               	incf	_RequestHandled,f
  4299  039A                     i1l1844:	
  4300                           
  4301                           ;Source/Usb.c: 440:             if (SetupPacket.bRequest == 0x03)
  4302  039A  3003               	movlw	3
  4303  039B  0641               	xorwf	_SetupPacket+1,w	;volatile
  4304  039C  1D03               	btfss	3,2
  4305  039D  2B9F               	goto	u160_21
  4306  039E  2BA0               	goto	u160_20
  4307  039F                     u160_21:	
  4308  039F  2BA3               	goto	i1l1848
  4309  03A0                     u160_20:	
  4310  03A0                     i1l1846:	
  4311                           
  4312                           ;Source/Usb.c: 441:                 RemoteWakeup = 1;
  4313  03A0  01BD               	clrf	_RemoteWakeup
  4314  03A1  0ABD               	incf	_RemoteWakeup,f
  4315  03A2  2BF5               	goto	i1l294
  4316  03A3                     i1l1848:	
  4317                           
  4318                           ;Source/Usb.c: 443:                 RemoteWakeup = 0;
  4319  03A3  01BD               	clrf	_RemoteWakeup
  4320  03A4  2BF5               	goto	i1l294
  4321  03A5                     i1l1850:	
  4322  03A5  3002               	movlw	2
  4323  03A6  0672               	xorwf	SetFeature@recipient,w
  4324  03A7  1D03               	btfss	3,2
  4325  03A8  2BAA               	goto	u161_21
  4326  03A9  2BAB               	goto	u161_20
  4327  03AA                     u161_21:	
  4328  03AA  2BF5               	goto	i1l294
  4329  03AB                     u161_20:	
  4330  03AB                     i1l1852:	
  4331                           
  4332                           ;Source/Usb.c: 448:     {;Source/Usb.c: 450:         uint8_t endpointNum = SetupPacket.w
      +                          Index0 & 0x0F;
  4333  03AB  0844               	movf	_SetupPacket+4,w	;volatile
  4334  03AC  390F               	andlw	15
  4335  03AD  00F0               	movwf	??_SetFeature
  4336  03AE  0870               	movf	??_SetFeature,w
  4337  03AF  00F4               	movwf	SetFeature@endpointNum
  4338                           
  4339                           ;Source/Usb.c: 451:         uint8_t endpointDir = SetupPacket.wIndex0 & 0x80;
  4340  03B0  0844               	movf	_SetupPacket+4,w	;volatile
  4341  03B1  3980               	andlw	128
  4342  03B2  00F0               	movwf	??_SetFeature
  4343  03B3  0870               	movf	??_SetFeature,w
  4344  03B4  00F5               	movwf	SetFeature@endpointDir
  4345  03B5                     i1l1854:	
  4346                           
  4347                           ;Source/Usb.c: 452:         if ((feature == 0x00) && (endpointNum != 0))
  4348  03B5  0873               	movf	SetFeature@feature,w
  4349  03B6  1D03               	btfss	3,2
  4350  03B7  2BB9               	goto	u162_21
  4351  03B8  2BBA               	goto	u162_20
  4352  03B9                     u162_21:	
  4353  03B9  2BF5               	goto	i1l294
  4354  03BA                     u162_20:	
  4355  03BA                     i1l1856:	
  4356  03BA  0874               	movf	SetFeature@endpointNum,w
  4357  03BB  1903               	btfsc	3,2
  4358  03BC  2BBE               	goto	u163_21
  4359  03BD  2BBF               	goto	u163_20
  4360  03BE                     u163_21:	
  4361  03BE  2BF5               	goto	i1l294
  4362  03BF                     u163_20:	
  4363  03BF                     i1l1858:	
  4364                           
  4365                           ;Source/Usb.c: 453:         {;Source/Usb.c: 455:             RequestHandled = 1;
  4366  03BF  01B8               	clrf	_RequestHandled
  4367  03C0  0AB8               	incf	_RequestHandled,f
  4368  03C1                     i1l1860:	
  4369                           
  4370                           ;Source/Usb.c: 458:             inPtr = (uint8_t *)&Interfaces[0].Output + (endpointNum 
      +                          * 8);
  4371  03C1  0874               	movf	SetFeature@endpointNum,w
  4372  03C2  00F0               	movwf	??_SetFeature
  4373  03C3  3002               	movlw	2
  4374  03C4                     u164_25:	
  4375  03C4  35F0               	lslf	??_SetFeature,f
  4376  03C5  3EFF               	addlw	-1
  4377  03C6  1D03               	skipz
  4378  03C7  2BC4               	goto	u164_25
  4379  03C8  3570               	lslf	??_SetFeature,w
  4380  03C9  3E20               	addlw	32
  4381  03CA  00F1               	movwf	??_SetFeature+1
  4382  03CB  0871               	movf	??_SetFeature+1,w
  4383  03CC  00FD               	movwf	_inPtr
  4384                           
  4385                           ;Source/Usb.c: 459:             if (endpointDir)
  4386  03CD  0875               	movf	SetFeature@endpointDir,w
  4387  03CE  1903               	btfsc	3,2
  4388  03CF  2BD1               	goto	u165_21
  4389  03D0  2BD2               	goto	u165_20
  4390  03D1                     u165_21:	
  4391  03D1  2BD6               	goto	i1l289
  4392  03D2                     u165_20:	
  4393  03D2                     i1l1862:	
  4394                           
  4395                           ;Source/Usb.c: 460:                 inPtr += 4;
  4396  03D2  3004               	movlw	4
  4397  03D3  00F0               	movwf	??_SetFeature
  4398  03D4  0870               	movf	??_SetFeature,w
  4399  03D5  07FD               	addwf	_inPtr,f
  4400  03D6                     i1l289:	
  4401                           
  4402                           ;Source/Usb.c: 462:             if(SetupPacket.bRequest == 0x03)
  4403  03D6  3003               	movlw	3
  4404  03D7  0641               	xorwf	_SetupPacket+1,w	;volatile
  4405  03D8  1D03               	btfss	3,2
  4406  03D9  2BDB               	goto	u166_21
  4407  03DA  2BDC               	goto	u166_20
  4408  03DB                     u166_21:	
  4409  03DB  2BE4               	goto	i1l1866
  4410  03DC                     u166_20:	
  4411  03DC                     i1l1864:	
  4412                           
  4413                           ;Source/Usb.c: 463:                 *inPtr = 0x84;
  4414  03DC  3084               	movlw	132
  4415  03DD  00F0               	movwf	??_SetFeature
  4416  03DE  087D               	movf	_inPtr,w
  4417  03DF  0086               	movwf	6
  4418  03E0  0187               	clrf	7
  4419  03E1  0870               	movf	??_SetFeature,w
  4420  03E2  0081               	movwf	1
  4421  03E3  2BF5               	goto	i1l294
  4422  03E4                     i1l1866:	
  4423                           
  4424                           ;Source/Usb.c: 465:             {;Source/Usb.c: 466:                 if(endpointDir == 1
      +                          )
  4425  03E4  0375               	decf	SetFeature@endpointDir,w
  4426  03E5  1D03               	btfss	3,2
  4427  03E6  2BE8               	goto	u167_21
  4428  03E7  2BE9               	goto	u167_20
  4429  03E8                     u167_21:	
  4430  03E8  2BEE               	goto	i1l1870
  4431  03E9                     u167_20:	
  4432  03E9                     i1l1868:	
  4433                           
  4434                           ;Source/Usb.c: 467:                     *inPtr = 0x00;
  4435  03E9  087D               	movf	_inPtr,w
  4436  03EA  0086               	movwf	6
  4437  03EB  0187               	clrf	7
  4438  03EC  0181               	clrf	1
  4439  03ED  2BF5               	goto	i1l294
  4440  03EE                     i1l1870:	
  4441                           
  4442                           ;Source/Usb.c: 469:                     *inPtr = 0x88;
  4443  03EE  3088               	movlw	136
  4444  03EF  00F0               	movwf	??_SetFeature
  4445  03F0  087D               	movf	_inPtr,w
  4446  03F1  0086               	movwf	6
  4447  03F2  0187               	clrf	7
  4448  03F3  0870               	movf	??_SetFeature,w
  4449  03F4  0081               	movwf	1
  4450  03F5                     i1l294:	
  4451  03F5  0008               	return
  4452  03F6                     __end_of_SetFeature:	
  4453                           
  4454                           	psect	text26
  4455  01FE                     __ptext26:	
  4456 ;; *************** function _HIDInitEndpoints *****************
  4457 ;; Defined at:
  4458 ;;		line 233 in file "Source/Usb.c"
  4459 ;; Parameters:    Size  Location     Type
  4460 ;;		None
  4461 ;; Auto vars:     Size  Location     Type
  4462 ;;  i               1    4[COMMON] unsigned char 
  4463 ;; Return value:  Size  Location     Type
  4464 ;;                  1    wreg      void 
  4465 ;; Registers used:
  4466 ;;		wreg, fsr1l, fsr1h, status,2, status,0
  4467 ;; Tracked objects:
  4468 ;;		On entry : 0/0
  4469 ;;		On exit  : 0/0
  4470 ;;		Unchanged: 0/0
  4471 ;; Data sizes:     COMMON   BANK0   BANK1   BANK2   BANK3   BANK4   BANK5   BANK6   BANK7   BANK8   BANK9  BANK10  BANK1
      +1  BANK12
  4472 ;;      Params:         0       0       0       0       0       0       0       0       0       0       0       0       
      +0       0
  4473 ;;      Locals:         1       0       0       0       0       0       0       0       0       0       0       0       
      +0       0
  4474 ;;      Temps:          4       0       0       0       0       0       0       0       0       0       0       0       
      +0       0
  4475 ;;      Totals:         5       0       0       0       0       0       0       0       0       0       0       0       
      +0       0
  4476 ;;Total ram usage:        5 bytes
  4477 ;; Hardware stack levels used:    1
  4478 ;; This function calls:
  4479 ;;		Nothing
  4480 ;; This function is called by:
  4481 ;;		_ProcessStandardRequest
  4482 ;; This function uses a non-reentrant model
  4483 ;;
  4484                           
  4485                           
  4486                           ;psect for function _HIDInitEndpoints
  4487  01FE                     _HIDInitEndpoints:	
  4488  01FE                     i1l1744:	
  4489                           ;incstack = 0
  4490                           ; Regs used in _HIDInitEndpoints: [wreg+fsr1l+fsr1h+status,2+status,0]
  4491                           
  4492                           
  4493                           ;Source/Usb.c: 235:     uint8_t i = 0;
  4494  01FE  01F4               	clrf	HIDInitEndpoints@i
  4495                           
  4496                           ;Source/Usb.c: 237:     HidRxLen =0;
  4497  01FF  0020               	movlb	0	; select bank0
  4498  0200  01B7               	clrf	_HidRxLen
  4499                           
  4500                           ;Source/Usb.c: 239:     for (i = 0 ; i < 0x01; i++)
  4501  0201  01F4               	clrf	HIDInitEndpoints@i
  4502  0202                     i1l1750:	
  4503                           
  4504                           ;Source/Usb.c: 240:     {;Source/Usb.c: 242:         EndpointFlags[i] = 0x1E;
  4505  0202  301E               	movlw	30
  4506  0203  00F0               	movwf	??_HIDInitEndpoints
  4507  0204  0874               	movf	HIDInitEndpoints@i,w
  4508  0205  3E99               	addlw	153
  4509  0206  0086               	movwf	6
  4510  0207  300E               	movlw	14	; select bank29/30
  4511  0208  0087               	movwf	7
  4512  0209  0870               	movf	??_HIDInitEndpoints,w
  4513  020A  0081               	movwf	1
  4514                           
  4515                           ;Source/Usb.c: 244:         Interfaces[i + 1].Output.Cnt = Buffers[(i * 2) + 1].Size;
  4516  020B  0874               	movf	HIDInitEndpoints@i,w
  4517  020C  00F0               	movwf	??_HIDInitEndpoints
  4518  020D  3001               	movlw	1
  4519  020E                     u135_25:	
  4520  020E  35F0               	lslf	??_HIDInitEndpoints,f
  4521  020F  3EFF               	addlw	-1
  4522  0210  1D03               	skipz
  4523  0211  2A0E               	goto	u135_25
  4524  0212  3570               	lslf	??_HIDInitEndpoints,w
  4525  0213  3E6C               	addlw	(low ((_Buffers| 0+2)))& (0+255)
  4526  0214  0086               	movwf	6
  4527  0215  0187               	clrf	7
  4528  0216  0801               	movf	1,w
  4529  0217  00F1               	movwf	??_HIDInitEndpoints+1
  4530  0218  0874               	movf	HIDInitEndpoints@i,w
  4531  0219  00F2               	movwf	??_HIDInitEndpoints+2
  4532  021A  3002               	movlw	2
  4533  021B                     u136_25:	
  4534  021B  35F2               	lslf	??_HIDInitEndpoints+2,f
  4535  021C  3EFF               	addlw	-1
  4536  021D  1D03               	skipz
  4537  021E  2A1B               	goto	u136_25
  4538  021F  3572               	lslf	??_HIDInitEndpoints+2,w
  4539  0220  3E29               	addlw	41
  4540  0221  0086               	movwf	6
  4541  0222  0187               	clrf	7
  4542  0223  0871               	movf	??_HIDInitEndpoints+1,w
  4543  0224  0081               	movwf	1
  4544                           
  4545                           ;Source/Usb.c: 247:         Interfaces[i + 1].Output.ADDR = ((unsigned int)(((unsigned l
      +                          ong)Buffers[(i * 2) + 1].Buffer) & 0xFFFF));
  4546  0225  0874               	movf	HIDInitEndpoints@i,w
  4547  0226  00F0               	movwf	??_HIDInitEndpoints
  4548  0227  3001               	movlw	1
  4549  0228                     u137_25:	
  4550  0228  35F0               	lslf	??_HIDInitEndpoints,f
  4551  0229  3EFF               	addlw	-1
  4552  022A  1D03               	skipz
  4553  022B  2A28               	goto	u137_25
  4554  022C  3570               	lslf	??_HIDInitEndpoints,w
  4555  022D  3E6D               	addlw	(low ((_Buffers| 0+3)))& (0+255)
  4556  022E  0086               	movwf	6
  4557  022F  0187               	clrf	7
  4558  0230  0801               	movf	1,w
  4559  0231  00F1               	movwf	??_HIDInitEndpoints+1
  4560  0232  3000               	movlw	0
  4561  0233  00F2               	movwf	??_HIDInitEndpoints+2
  4562  0234  0874               	movf	HIDInitEndpoints@i,w
  4563  0235  00F3               	movwf	??_HIDInitEndpoints+3
  4564  0236  3002               	movlw	2
  4565  0237                     u138_25:	
  4566  0237  35F3               	lslf	??_HIDInitEndpoints+3,f
  4567  0238  3EFF               	addlw	-1
  4568  0239  1D03               	skipz
  4569  023A  2A37               	goto	u138_25
  4570  023B  3573               	lslf	??_HIDInitEndpoints+3,w
  4571  023C  3E2A               	addlw	42
  4572  023D  0086               	movwf	6
  4573  023E  0187               	clrf	7
  4574  023F  0871               	movf	??_HIDInitEndpoints+1,w
  4575  0240  3FC0               	movwi [0]fsr1
  4576  0241  0872               	movf	??_HIDInitEndpoints+2,w
  4577  0242  3FC1               	movwi [1]fsr1
  4578                           
  4579                           ;Source/Usb.c: 249:         Interfaces[i + 1].Output.Stat = 0x80 | 0x08;
  4580  0243  3088               	movlw	136
  4581  0244  00F0               	movwf	??_HIDInitEndpoints
  4582  0245  0874               	movf	HIDInitEndpoints@i,w
  4583  0246  00F1               	movwf	??_HIDInitEndpoints+1
  4584  0247  3002               	movlw	2
  4585  0248                     u139_25:	
  4586  0248  35F1               	lslf	??_HIDInitEndpoints+1,f
  4587  0249  3EFF               	addlw	-1
  4588  024A  1D03               	skipz
  4589  024B  2A48               	goto	u139_25
  4590  024C  3571               	lslf	??_HIDInitEndpoints+1,w
  4591  024D  3E28               	addlw	40
  4592  024E  0086               	movwf	6
  4593  024F  0187               	clrf	7
  4594  0250  0870               	movf	??_HIDInitEndpoints,w
  4595  0251  0081               	movwf	1
  4596                           
  4597                           ;Source/Usb.c: 252:         Interfaces[i + 1].Input.ADDR = ((unsigned int)(((unsigned lo
      +                          ng)Buffers[(i * 2)].Buffer) & 0xFFFF));
  4598  0252  0874               	movf	HIDInitEndpoints@i,w
  4599  0253  00F0               	movwf	??_HIDInitEndpoints
  4600  0254  3001               	movlw	1
  4601  0255                     u140_25:	
  4602  0255  35F0               	lslf	??_HIDInitEndpoints,f
  4603  0256  3EFF               	addlw	-1
  4604  0257  1D03               	skipz
  4605  0258  2A55               	goto	u140_25
  4606  0259  3570               	lslf	??_HIDInitEndpoints,w
  4607  025A  3E6B               	addlw	(low ((_Buffers| 0+1)))& (0+255)
  4608  025B  0086               	movwf	6
  4609  025C  0187               	clrf	7
  4610  025D  0801               	movf	1,w
  4611  025E  00F1               	movwf	??_HIDInitEndpoints+1
  4612  025F  3000               	movlw	0
  4613  0260  00F2               	movwf	??_HIDInitEndpoints+2
  4614  0261  0874               	movf	HIDInitEndpoints@i,w
  4615  0262  00F3               	movwf	??_HIDInitEndpoints+3
  4616  0263  3002               	movlw	2
  4617  0264                     u141_25:	
  4618  0264  35F3               	lslf	??_HIDInitEndpoints+3,f
  4619  0265  3EFF               	addlw	-1
  4620  0266  1D03               	skipz
  4621  0267  2A64               	goto	u141_25
  4622  0268  3573               	lslf	??_HIDInitEndpoints+3,w
  4623  0269  3E2E               	addlw	46
  4624  026A  0086               	movwf	6
  4625  026B  0187               	clrf	7
  4626  026C  0871               	movf	??_HIDInitEndpoints+1,w
  4627  026D  3FC0               	movwi [0]fsr1
  4628  026E  0872               	movf	??_HIDInitEndpoints+2,w
  4629  026F  3FC1               	movwi [1]fsr1
  4630                           
  4631                           ;Source/Usb.c: 253:         Interfaces[i + 1].Input.Stat = 0x40;
  4632  0270  3040               	movlw	64
  4633  0271  00F0               	movwf	??_HIDInitEndpoints
  4634  0272  0874               	movf	HIDInitEndpoints@i,w
  4635  0273  00F1               	movwf	??_HIDInitEndpoints+1
  4636  0274  3002               	movlw	2
  4637  0275                     u142_25:	
  4638  0275  35F1               	lslf	??_HIDInitEndpoints+1,f
  4639  0276  3EFF               	addlw	-1
  4640  0277  1D03               	skipz
  4641  0278  2A75               	goto	u142_25
  4642  0279  3571               	lslf	??_HIDInitEndpoints+1,w
  4643  027A  3E2C               	addlw	44
  4644  027B  0086               	movwf	6
  4645  027C  0187               	clrf	7
  4646  027D  0870               	movf	??_HIDInitEndpoints,w
  4647  027E  0081               	movwf	1
  4648  027F                     i1l1752:	
  4649                           
  4650                           ;Source/Usb.c: 254:     }
  4651  027F  3001               	movlw	1
  4652  0280  00F0               	movwf	??_HIDInitEndpoints
  4653  0281  0870               	movf	??_HIDInitEndpoints,w
  4654  0282  07F4               	addwf	HIDInitEndpoints@i,f
  4655  0283                     i1l1754:	
  4656  0283  0874               	movf	HIDInitEndpoints@i,w
  4657  0284  1903               	btfsc	3,2
  4658  0285  2A87               	goto	u143_21
  4659  0286  2A88               	goto	u143_20
  4660  0287                     u143_21:	
  4661  0287  2A02               	goto	i1l1750
  4662  0288                     u143_20:	
  4663  0288                     i1l228:	
  4664  0288  0008               	return
  4665  0289                     __end_of_HIDInitEndpoints:	
  4666                           
  4667                           	psect	text27
  4668  04CF                     __ptext27:	
  4669 ;; *************** function _GetStatus *****************
  4670 ;; Defined at:
  4671 ;;		line 382 in file "Source/Usb.c"
  4672 ;; Parameters:    Size  Location     Type
  4673 ;;		None
  4674 ;; Auto vars:     Size  Location     Type
  4675 ;;  endpointDir     1    3[COMMON] unsigned char 
  4676 ;;  endpointNum     1    2[COMMON] unsigned char 
  4677 ;;  recipient       1    4[COMMON] unsigned char 
  4678 ;; Return value:  Size  Location     Type
  4679 ;;                  1    wreg      void 
  4680 ;; Registers used:
  4681 ;;		wreg, fsr1l, fsr1h, status,2, status,0
  4682 ;; Tracked objects:
  4683 ;;		On entry : 0/0
  4684 ;;		On exit  : 0/0
  4685 ;;		Unchanged: 0/0
  4686 ;; Data sizes:     COMMON   BANK0   BANK1   BANK2   BANK3   BANK4   BANK5   BANK6   BANK7   BANK8   BANK9  BANK10  BANK1
      +1  BANK12
  4687 ;;      Params:         0       0       0       0       0       0       0       0       0       0       0       0       
      +0       0
  4688 ;;      Locals:         3       0       0       0       0       0       0       0       0       0       0       0       
      +0       0
  4689 ;;      Temps:          2       0       0       0       0       0       0       0       0       0       0       0       
      +0       0
  4690 ;;      Totals:         5       0       0       0       0       0       0       0       0       0       0       0       
      +0       0
  4691 ;;Total ram usage:        5 bytes
  4692 ;; Hardware stack levels used:    1
  4693 ;; This function calls:
  4694 ;;		Nothing
  4695 ;; This function is called by:
  4696 ;;		_ProcessStandardRequest
  4697 ;; This function uses a non-reentrant model
  4698 ;;
  4699                           
  4700                           
  4701                           ;psect for function _GetStatus
  4702  04CF                     _GetStatus:	
  4703  04CF                     i1l1790:	
  4704                           ;incstack = 0
  4705                           ; Regs used in _GetStatus: [wreg+fsr1l+fsr1h+status,2+status,0]
  4706                           
  4707                           
  4708                           ;Source/Usb.c: 385:     uint8_t recipient = SetupPacket.bmRequestType & 0x1F;
  4709  04CF  0020               	movlb	0	; select bank0
  4710  04D0  0840               	movf	_SetupPacket,w	;volatile
  4711  04D1  391F               	andlw	31
  4712  04D2  00F0               	movwf	??_GetStatus
  4713  04D3  0870               	movf	??_GetStatus,w
  4714  04D4  00F4               	movwf	GetStatus@recipient
  4715  04D5                     i1l1792:	
  4716                           
  4717                           ;Source/Usb.c: 386:     ControlTransferBuffer[0] = 0;
  4718  04D5  01C9               	clrf	_ControlTransferBuffer	;volatile
  4719  04D6                     i1l1794:	
  4720                           
  4721                           ;Source/Usb.c: 387:     ControlTransferBuffer[1] = 0;
  4722  04D6  01CA               	clrf	_ControlTransferBuffer+1	;volatile
  4723  04D7                     i1l1796:	
  4724                           
  4725                           ;Source/Usb.c: 390:     if (recipient == 0x00)
  4726  04D7  0874               	movf	GetStatus@recipient,w
  4727  04D8  1D03               	btfss	3,2
  4728  04D9  2CDB               	goto	u149_21
  4729  04DA  2CDC               	goto	u149_20
  4730  04DB                     u149_21:	
  4731  04DB  2CEB               	goto	i1l1808
  4732  04DC                     u149_20:	
  4733  04DC                     i1l1798:	
  4734                           
  4735                           ;Source/Usb.c: 391:     {;Source/Usb.c: 393:         RequestHandled = 1;
  4736  04DC  01B8               	clrf	_RequestHandled
  4737  04DD  0AB8               	incf	_RequestHandled,f
  4738  04DE                     i1l1800:	
  4739                           
  4740                           ;Source/Usb.c: 395:         if (SelfPowered)
  4741  04DE  083B               	movf	_SelfPowered,w
  4742  04DF  1903               	btfsc	3,2
  4743  04E0  2CE2               	goto	u150_21
  4744  04E1  2CE3               	goto	u150_20
  4745  04E2                     u150_21:	
  4746  04E2  2CE4               	goto	i1l1804
  4747  04E3                     u150_20:	
  4748  04E3                     i1l1802:	
  4749                           
  4750                           ;Source/Usb.c: 396:             ControlTransferBuffer[0] |= 0x01;
  4751  04E3  1449               	bsf	_ControlTransferBuffer,0	;volatile
  4752  04E4                     i1l1804:	
  4753                           
  4754                           ;Source/Usb.c: 397:         if (RemoteWakeup)
  4755  04E4  083D               	movf	_RemoteWakeup,w
  4756  04E5  1903               	btfsc	3,2
  4757  04E6  2CE8               	goto	u151_21
  4758  04E7  2CE9               	goto	u151_20
  4759  04E8                     u151_21:	
  4760  04E8  2D25               	goto	i1l1828
  4761  04E9                     u151_20:	
  4762  04E9                     i1l1806:	
  4763                           
  4764                           ;Source/Usb.c: 398:             ControlTransferBuffer[0] |= 0x02;
  4765  04E9  14C9               	bsf	_ControlTransferBuffer,1	;volatile
  4766  04EA  2D25               	goto	i1l1828
  4767  04EB                     i1l1808:	
  4768  04EB  0374               	decf	GetStatus@recipient,w
  4769  04EC  1D03               	btfss	3,2
  4770  04ED  2CEF               	goto	u152_21
  4771  04EE  2CF0               	goto	u152_20
  4772  04EF                     u152_21:	
  4773  04EF  2CF3               	goto	i1l1812
  4774  04F0                     u152_20:	
  4775  04F0                     i1l1810:	
  4776                           
  4777                           ;Source/Usb.c: 401:     {;Source/Usb.c: 403:         RequestHandled = 1;
  4778  04F0  01B8               	clrf	_RequestHandled
  4779  04F1  0AB8               	incf	_RequestHandled,f
  4780                           
  4781                           ;Source/Usb.c: 404:     }
  4782  04F2  2D25               	goto	i1l1828
  4783  04F3                     i1l1812:	
  4784  04F3  3002               	movlw	2
  4785  04F4  0674               	xorwf	GetStatus@recipient,w
  4786  04F5  1D03               	btfss	3,2
  4787  04F6  2CF8               	goto	u153_21
  4788  04F7  2CF9               	goto	u153_20
  4789  04F8                     u153_21:	
  4790  04F8  2D25               	goto	i1l1828
  4791  04F9                     u153_20:	
  4792  04F9                     i1l1814:	
  4793                           
  4794                           ;Source/Usb.c: 406:     {;Source/Usb.c: 408:         uint8_t endpointNum = SetupPacket.w
      +                          Index0 & 0x0F;
  4795  04F9  0844               	movf	_SetupPacket+4,w	;volatile
  4796  04FA  390F               	andlw	15
  4797  04FB  00F0               	movwf	??_GetStatus
  4798  04FC  0870               	movf	??_GetStatus,w
  4799  04FD  00F2               	movwf	GetStatus@endpointNum
  4800                           
  4801                           ;Source/Usb.c: 409:         uint8_t endpointDir = SetupPacket.wIndex0 & 0x80;
  4802  04FE  0844               	movf	_SetupPacket+4,w	;volatile
  4803  04FF  3980               	andlw	128
  4804  0500  00F0               	movwf	??_GetStatus
  4805  0501  0870               	movf	??_GetStatus,w
  4806  0502  00F3               	movwf	GetStatus@endpointDir
  4807  0503                     i1l1816:	
  4808                           
  4809                           ;Source/Usb.c: 410:         RequestHandled = 1;
  4810  0503  01B8               	clrf	_RequestHandled
  4811  0504  0AB8               	incf	_RequestHandled,f
  4812  0505                     i1l1818:	
  4813                           
  4814                           ;Source/Usb.c: 413:         inPtr = (uint8_t *)&Interfaces[0].Output + (endpointNum * 8)
      +                          ;
  4815  0505  0872               	movf	GetStatus@endpointNum,w
  4816  0506  00F0               	movwf	??_GetStatus
  4817  0507  3002               	movlw	2
  4818  0508                     u154_25:	
  4819  0508  35F0               	lslf	??_GetStatus,f
  4820  0509  3EFF               	addlw	-1
  4821  050A  1D03               	skipz
  4822  050B  2D08               	goto	u154_25
  4823  050C  3570               	lslf	??_GetStatus,w
  4824  050D  3E20               	addlw	32
  4825  050E  00F1               	movwf	??_GetStatus+1
  4826  050F  0871               	movf	??_GetStatus+1,w
  4827  0510  00FD               	movwf	_inPtr
  4828  0511                     i1l1820:	
  4829                           
  4830                           ;Source/Usb.c: 414:         if (endpointDir)
  4831  0511  0873               	movf	GetStatus@endpointDir,w
  4832  0512  1903               	btfsc	3,2
  4833  0513  2D15               	goto	u155_21
  4834  0514  2D16               	goto	u155_20
  4835  0515                     u155_21:	
  4836  0515  2D1A               	goto	i1l1824
  4837  0516                     u155_20:	
  4838  0516                     i1l1822:	
  4839                           
  4840                           ;Source/Usb.c: 415:             inPtr += 4;
  4841  0516  3004               	movlw	4
  4842  0517  00F0               	movwf	??_GetStatus
  4843  0518  0870               	movf	??_GetStatus,w
  4844  0519  07FD               	addwf	_inPtr,f
  4845  051A                     i1l1824:	
  4846                           
  4847                           ;Source/Usb.c: 416:         if(*inPtr & 0x04)
  4848  051A  087D               	movf	_inPtr,w
  4849  051B  0086               	movwf	6
  4850  051C  0187               	clrf	7
  4851  051D  1D01               	btfss	1,2
  4852  051E  2D20               	goto	u156_21
  4853  051F  2D21               	goto	u156_20
  4854  0520                     u156_21:	
  4855  0520  2D25               	goto	i1l1828
  4856  0521                     u156_20:	
  4857  0521                     i1l1826:	
  4858                           
  4859                           ;Source/Usb.c: 417:             ControlTransferBuffer[0] = 0x01;
  4860  0521  3001               	movlw	1
  4861  0522  00F0               	movwf	??_GetStatus
  4862  0523  0870               	movf	??_GetStatus,w
  4863  0524  00C9               	movwf	_ControlTransferBuffer	;volatile
  4864  0525                     i1l1828:	
  4865                           
  4866                           ;Source/Usb.c: 420:     if (RequestHandled)
  4867  0525  0838               	movf	_RequestHandled,w
  4868  0526  1903               	btfsc	3,2
  4869  0527  2D29               	goto	u157_21
  4870  0528  2D2A               	goto	u157_20
  4871  0529                     u157_21:	
  4872  0529  2D33               	goto	i1l279
  4873  052A                     u157_20:	
  4874  052A                     i1l1830:	
  4875                           
  4876                           ;Source/Usb.c: 421:     {;Source/Usb.c: 422:         outPtr = (uint8_t *)&ControlTransfe
      +                          rBuffer;
  4877  052A  3049               	movlw	(low (_ControlTransferBuffer| 0))& (0+255)
  4878  052B  00F0               	movwf	??_GetStatus
  4879  052C  0870               	movf	??_GetStatus,w
  4880  052D  00B6               	movwf	_outPtr
  4881                           
  4882                           ;Source/Usb.c: 423:         wCount = 2;
  4883  052E  3002               	movlw	2
  4884  052F  00B0               	movwf	_wCount
  4885  0530  3000               	movlw	0
  4886  0531  00B1               	movwf	_wCount+1
  4887  0532                     i1l1832:	
  4888                           
  4889                           ;Source/Usb.c: 424:   transferType=0;
  4890  0532  01B5               	clrf	_transferType
  4891  0533                     i1l279:	
  4892  0533  0008               	return
  4893  0534                     __end_of_GetStatus:	
  4894                           
  4895                           	psect	text28
  4896  0534                     __ptext28:	
  4897 ;; *************** function _GetDescriptor *****************
  4898 ;; Defined at:
  4899 ;;		line 343 in file "Source/Usb.c"
  4900 ;; Parameters:    Size  Location     Type
  4901 ;;		None
  4902 ;; Auto vars:     Size  Location     Type
  4903 ;;  descriptorTy    1    4[COMMON] unsigned char 
  4904 ;;  descriptorIn    1    3[COMMON] unsigned char 
  4905 ;; Return value:  Size  Location     Type
  4906 ;;                  1    wreg      void 
  4907 ;; Registers used:
  4908 ;;		wreg, fsr0l, fsr0h, status,2, status,0, pclath
  4909 ;; Tracked objects:
  4910 ;;		On entry : 0/0
  4911 ;;		On exit  : 0/0
  4912 ;;		Unchanged: 0/0
  4913 ;; Data sizes:     COMMON   BANK0   BANK1   BANK2   BANK3   BANK4   BANK5   BANK6   BANK7   BANK8   BANK9  BANK10  BANK1
      +1  BANK12
  4914 ;;      Params:         0       0       0       0       0       0       0       0       0       0       0       0       
      +0       0
  4915 ;;      Locals:         2       0       0       0       0       0       0       0       0       0       0       0       
      +0       0
  4916 ;;      Temps:          3       0       0       0       0       0       0       0       0       0       0       0       
      +0       0
  4917 ;;      Totals:         5       0       0       0       0       0       0       0       0       0       0       0       
      +0       0
  4918 ;;Total ram usage:        5 bytes
  4919 ;; Hardware stack levels used:    1
  4920 ;; This function calls:
  4921 ;;		Nothing
  4922 ;; This function is called by:
  4923 ;;		_ProcessStandardRequest
  4924 ;; This function uses a non-reentrant model
  4925 ;;
  4926                           
  4927                           
  4928                           ;psect for function _GetDescriptor
  4929  0534                     _GetDescriptor:	
  4930  0534                     i1l1756:	
  4931                           ;incstack = 0
  4932                           ; Regs used in _GetDescriptor: [wreg-fsr0h+status,2+status,0+pclath]
  4933                           
  4934                           
  4935                           ;Source/Usb.c: 345:     if(SetupPacket.bmRequestType == 0x80)
  4936  0534  3080               	movlw	128
  4937  0535  0020               	movlb	0	; select bank0
  4938  0536  0640               	xorwf	_SetupPacket,w	;volatile
  4939  0537  1D03               	btfss	3,2
  4940  0538  2D3A               	goto	u144_21
  4941  0539  2D3B               	goto	u144_20
  4942  053A                     u144_21:	
  4943  053A  2D94               	goto	i1l266
  4944  053B                     u144_20:	
  4945  053B                     i1l1758:	
  4946                           
  4947                           ;Source/Usb.c: 346:     {;Source/Usb.c: 347:         uint8_t descriptorType = SetupPacke
      +                          t.wValue1;
  4948  053B  0843               	movf	_SetupPacket+3,w	;volatile
  4949  053C  00F0               	movwf	??_GetDescriptor
  4950  053D  0870               	movf	??_GetDescriptor,w
  4951  053E  00F4               	movwf	GetDescriptor@descriptorType
  4952                           
  4953                           ;Source/Usb.c: 348:         uint8_t descriptorIndex = SetupPacket.wValue0;
  4954  053F  0842               	movf	_SetupPacket+2,w	;volatile
  4955  0540  00F0               	movwf	??_GetDescriptor
  4956  0541  0870               	movf	??_GetDescriptor,w
  4957  0542  00F3               	movwf	GetDescriptor@descriptorIndex
  4958  0543                     i1l1760:	
  4959                           
  4960                           ;Source/Usb.c: 350:         if (descriptorType == 0x01)
  4961  0543  0374               	decf	GetDescriptor@descriptorType,w
  4962  0544  1D03               	btfss	3,2
  4963  0545  2D47               	goto	u145_21
  4964  0546  2D48               	goto	u145_20
  4965  0547                     u145_21:	
  4966  0547  2D55               	goto	i1l1768
  4967  0548                     u145_20:	
  4968  0548                     i1l1762:	
  4969                           
  4970                           ;Source/Usb.c: 351:         {;Source/Usb.c: 352:                 RequestHandled = 1;
  4971  0548  01B8               	clrf	_RequestHandled
  4972  0549  0AB8               	incf	_RequestHandled,f
  4973  054A                     i1l1764:	
  4974                           
  4975                           ;Source/Usb.c: 353:                 ROMoutPtr = (const uint8_t *) & DeviceDescriptor;
  4976  054A  3000               	movlw	low (_DeviceDescriptor| (0+32768))
  4977  054B  00B2               	movwf	_ROMoutPtr
  4978  054C  3090               	movlw	high (_DeviceDescriptor| (0+32768))
  4979  054D  00B3               	movwf	_ROMoutPtr+1
  4980                           
  4981                           ;Source/Usb.c: 354:                 wCount = sizeof(DeviceDescriptor);
  4982  054E  3012               	movlw	18
  4983  054F  00B0               	movwf	_wCount
  4984  0550  3000               	movlw	0
  4985  0551  00B1               	movwf	_wCount+1
  4986  0552                     i1l1766:	
  4987                           
  4988                           ;Source/Usb.c: 355:                 transferType=1;
  4989  0552  01B5               	clrf	_transferType
  4990  0553  0AB5               	incf	_transferType,f
  4991                           
  4992                           ;Source/Usb.c: 356:         }
  4993  0554  2D94               	goto	i1l266
  4994  0555                     i1l1768:	
  4995  0555  3002               	movlw	2
  4996  0556  0674               	xorwf	GetDescriptor@descriptorType,w
  4997  0557  1D03               	btfss	3,2
  4998  0558  2D5A               	goto	u146_21
  4999  0559  2D5B               	goto	u146_20
  5000  055A                     u146_21:	
  5001  055A  2D66               	goto	i1l1776
  5002  055B                     u146_20:	
  5003  055B                     i1l1770:	
  5004                           
  5005                           ;Source/Usb.c: 358:         {;Source/Usb.c: 359:                 RequestHandled = 1;
  5006  055B  01B8               	clrf	_RequestHandled
  5007  055C  0AB8               	incf	_RequestHandled,f
  5008  055D                     i1l1772:	
  5009                           
  5010                           ;Source/Usb.c: 360:                 ROMoutPtr = (const uint8_t*)&ConfigurationDescriptor
      +                          ;
  5011  055D  3024               	movlw	low (_ConfigurationDescriptor| (0+32768))
  5012  055E  00B2               	movwf	_ROMoutPtr
  5013  055F  3087               	movlw	high (_ConfigurationDescriptor| (0+32768))
  5014  0560  00B3               	movwf	_ROMoutPtr+1
  5015                           
  5016                           ;Source/Usb.c: 361:                 wCount = sizeof(ConfigurationDescriptor);
  5017  0561  3029               	movlw	41
  5018  0562  00B0               	movwf	_wCount
  5019  0563  3000               	movlw	0
  5020  0564  00B1               	movwf	_wCount+1
  5021  0565  2D52               	goto	i1l1766
  5022  0566                     i1l1776:	
  5023  0566  3003               	movlw	3
  5024  0567  0674               	xorwf	GetDescriptor@descriptorType,w
  5025  0568  1D03               	btfss	3,2
  5026  0569  2D6B               	goto	u147_21
  5027  056A  2D6C               	goto	u147_20
  5028  056B                     u147_21:	
  5029  056B  2D94               	goto	i1l259
  5030  056C                     u147_20:	
  5031  056C                     i1l1778:	
  5032                           
  5033                           ;Source/Usb.c: 365:         {;Source/Usb.c: 366:                 RequestHandled = 1;
  5034  056C  01B8               	clrf	_RequestHandled
  5035  056D  0AB8               	incf	_RequestHandled,f
  5036  056E                     i1l1780:	
  5037                           
  5038                           ;Source/Usb.c: 367:                 if(descriptorIndex >= 0x03)
  5039  056E  3003               	movlw	3
  5040  056F  0273               	subwf	GetDescriptor@descriptorIndex,w
  5041  0570  1C03               	skipc
  5042  0571  2D73               	goto	u148_21
  5043  0572  2D74               	goto	u148_20
  5044  0573                     u148_21:	
  5045  0573  2D79               	goto	i1l1784
  5046  0574                     u148_20:	
  5047  0574                     i1l1782:	
  5048                           
  5049                           ;Source/Usb.c: 368:                     ROMoutPtr = (const uint8_t*)&StringDescriptor0;
  5050  0574  3018               	movlw	low (_StringDescriptor0| (0+32768))
  5051  0575  00B2               	movwf	_ROMoutPtr
  5052  0576  3090               	movlw	high (_StringDescriptor0| (0+32768))
  5053  0577  00B3               	movwf	_ROMoutPtr+1
  5054  0578  2D88               	goto	i1l1786
  5055  0579                     i1l1784:	
  5056                           
  5057                           ;Source/Usb.c: 370:                     ROMoutPtr = *(StringDescriptorPointers + descrip
      +                          torIndex);
  5058  0579  0873               	movf	GetDescriptor@descriptorIndex,w
  5059  057A  00F0               	movwf	??_GetDescriptor
  5060  057B  01F1               	clrf	??_GetDescriptor+1
  5061  057C  35F0               	lslf	??_GetDescriptor,f
  5062  057D  0DF1               	rlf	??_GetDescriptor+1,f
  5063  057E  3012               	movlw	low (_StringDescriptorPointers| (0+32768))
  5064  057F  0770               	addwf	??_GetDescriptor,w
  5065  0580  0084               	movwf	4
  5066  0581  3090               	movlw	high (_StringDescriptorPointers| (0+32768))
  5067  0582  3D71               	addwfc	??_GetDescriptor+1,w
  5068  0583  0085               	movwf	5
  5069  0584  3F00               	moviw [0]fsr0
  5070  0585  00B2               	movwf	_ROMoutPtr
  5071  0586  3F01               	moviw [1]fsr0
  5072  0587  00B3               	movwf	_ROMoutPtr+1
  5073  0588                     i1l1786:	
  5074                           
  5075                           ;Source/Usb.c: 372:                 wCount = *ROMoutPtr;
  5076  0588  0832               	movf	_ROMoutPtr,w
  5077  0589  0084               	movwf	4
  5078  058A  0833               	movf	_ROMoutPtr+1,w
  5079  058B  0085               	movwf	5
  5080  058C  0800               	movf	0,w	;code access
  5081  058D  00F0               	movwf	??_GetDescriptor
  5082  058E  01F1               	clrf	??_GetDescriptor+1
  5083  058F  0870               	movf	??_GetDescriptor,w
  5084  0590  00B0               	movwf	_wCount
  5085  0591  0871               	movf	??_GetDescriptor+1,w
  5086  0592  00B1               	movwf	_wCount+1
  5087  0593  2D52               	goto	i1l1766
  5088  0594                     i1l259:	
  5089  0594                     i1l266:	
  5090  0594  0008               	return
  5091  0595                     __end_of_GetDescriptor:	
  5092                           
  5093                           	psect	text29
  5094  003F                     __ptext29:	
  5095 ;; *************** function _ProcessHIDRequest *****************
  5096 ;; Defined at:
  5097 ;;		line 258 in file "Source/Usb.c"
  5098 ;; Parameters:    Size  Location     Type
  5099 ;;		None
  5100 ;; Auto vars:     Size  Location     Type
  5101 ;;  descriptorTy    1    1[COMMON] unsigned char 
  5102 ;;  bRequest        1    2[COMMON] unsigned char 
  5103 ;; Return value:  Size  Location     Type
  5104 ;;                  1    wreg      void 
  5105 ;; Registers used:
  5106 ;;		wreg, status,2, status,0
  5107 ;; Tracked objects:
  5108 ;;		On entry : 0/0
  5109 ;;		On exit  : 0/0
  5110 ;;		Unchanged: 0/0
  5111 ;; Data sizes:     COMMON   BANK0   BANK1   BANK2   BANK3   BANK4   BANK5   BANK6   BANK7   BANK8   BANK9  BANK10  BANK1
      +1  BANK12
  5112 ;;      Params:         0       0       0       0       0       0       0       0       0       0       0       0       
      +0       0
  5113 ;;      Locals:         2       0       0       0       0       0       0       0       0       0       0       0       
      +0       0
  5114 ;;      Temps:          1       0       0       0       0       0       0       0       0       0       0       0       
      +0       0
  5115 ;;      Totals:         3       0       0       0       0       0       0       0       0       0       0       0       
      +0       0
  5116 ;;Total ram usage:        3 bytes
  5117 ;; Hardware stack levels used:    1
  5118 ;; This function calls:
  5119 ;;		Nothing
  5120 ;; This function is called by:
  5121 ;;		_SetupStage
  5122 ;; This function uses a non-reentrant model
  5123 ;;
  5124                           
  5125                           
  5126                           ;psect for function _ProcessHIDRequest
  5127  003F                     _ProcessHIDRequest:	
  5128  003F                     i1l1872:	
  5129                           ;incstack = 0
  5130                           ; Regs used in _ProcessHIDRequest: [wreg+status,2+status,0]
  5131                           
  5132                           
  5133                           ;Source/Usb.c: 260:     uint8_t bRequest;;Source/Usb.c: 263:     if((SetupPacket.bmReque
      +                          stType & 0x1F) != 0x01 || (SetupPacket.wIndex0 != 0x00)) return;
  5134  003F  301F               	movlw	31
  5135  0040  0020               	movlb	0	; select bank0
  5136  0041  0540               	andwf	_SetupPacket,w	;volatile
  5137  0042  00F0               	movwf	??_ProcessHIDRequest
  5138  0043  0370               	decf	??_ProcessHIDRequest,w
  5139  0044  1D03               	btfss	3,2
  5140  0045  2847               	goto	u168_21
  5141  0046  2848               	goto	u168_20
  5142  0047                     u168_21:	
  5143  0047  28D8               	goto	i1l234
  5144  0048                     u168_20:	
  5145  0048                     i1l1874:	
  5146  0048  0844               	movf	_SetupPacket+4,w	;volatile
  5147  0049  1903               	btfsc	3,2
  5148  004A  284C               	goto	u169_21
  5149  004B  284D               	goto	u169_20
  5150  004C                     u169_21:	
  5151  004C  284F               	goto	i1l1876
  5152  004D                     u169_20:	
  5153  004D  28D8               	goto	i1l234
  5154  004E                     i1l233:	
  5155  004E  28D8               	goto	i1l234
  5156  004F                     i1l1876:	
  5157                           
  5158                           ;Source/Usb.c: 265:     bRequest = SetupPacket.bRequest;
  5159  004F  0841               	movf	_SetupPacket+1,w	;volatile
  5160  0050  00F0               	movwf	??_ProcessHIDRequest
  5161  0051  0870               	movf	??_ProcessHIDRequest,w
  5162  0052  00F2               	movwf	ProcessHIDRequest@bRequest
  5163  0053                     i1l1878:	
  5164                           
  5165                           ;Source/Usb.c: 267:     if (bRequest == 0x06)
  5166  0053  3006               	movlw	6
  5167  0054  0672               	xorwf	ProcessHIDRequest@bRequest,w
  5168  0055  1D03               	btfss	3,2
  5169  0056  2858               	goto	u170_21
  5170  0057  2859               	goto	u170_20
  5171  0058                     u170_21:	
  5172  0058  2881               	goto	i1l1902
  5173  0059                     u170_20:	
  5174  0059                     i1l1880:	
  5175                           
  5176                           ;Source/Usb.c: 268:     {;Source/Usb.c: 270:         uint8_t descriptorType = SetupPacke
      +                          t.wValue1;
  5177  0059  0843               	movf	_SetupPacket+3,w	;volatile
  5178  005A  00F0               	movwf	??_ProcessHIDRequest
  5179  005B  0870               	movf	??_ProcessHIDRequest,w
  5180  005C  00F1               	movwf	ProcessHIDRequest@descriptorType
  5181  005D                     i1l1882:	
  5182                           
  5183                           ;Source/Usb.c: 271:         if (descriptorType == 0x21)
  5184  005D  3021               	movlw	33
  5185  005E  0671               	xorwf	ProcessHIDRequest@descriptorType,w
  5186  005F  1D03               	btfss	3,2
  5187  0060  2862               	goto	u171_21
  5188  0061  2863               	goto	u171_20
  5189  0062                     u171_21:	
  5190  0062  2870               	goto	i1l1890
  5191  0063                     u171_20:	
  5192  0063                     i1l1884:	
  5193                           
  5194                           ;Source/Usb.c: 272:         {;Source/Usb.c: 273:             RequestHandled = 1;
  5195  0063  01B8               	clrf	_RequestHandled
  5196  0064  0AB8               	incf	_RequestHandled,f
  5197  0065                     i1l1886:	
  5198                           
  5199                           ;Source/Usb.c: 274:             ROMoutPtr = (const uint8_t*)&ConfigurationDescriptor.HID
      +                          Descriptor;
  5200  0065  302D               	movlw	low ((_ConfigurationDescriptor| (0+32768)+9))
  5201  0066  00B2               	movwf	_ROMoutPtr
  5202  0067  3087               	movlw	high ((_ConfigurationDescriptor| (0+32768)+9))
  5203  0068  00B3               	movwf	_ROMoutPtr+1
  5204                           
  5205                           ;Source/Usb.c: 275:             wCount = sizeof(ConfigurationDescriptor.HIDDescriptor);
  5206  0069  3020               	movlw	32
  5207  006A  00B0               	movwf	_wCount
  5208  006B  3000               	movlw	0
  5209  006C  00B1               	movwf	_wCount+1
  5210  006D                     i1l1888:	
  5211                           
  5212                           ;Source/Usb.c: 276:             transferType=1;
  5213  006D  01B5               	clrf	_transferType
  5214  006E  0AB5               	incf	_transferType,f
  5215                           
  5216                           ;Source/Usb.c: 277:         }
  5217  006F  2881               	goto	i1l1902
  5218  0070                     i1l1890:	
  5219  0070  3022               	movlw	34
  5220  0071  0671               	xorwf	ProcessHIDRequest@descriptorType,w
  5221  0072  1D03               	btfss	3,2
  5222  0073  2875               	goto	u172_21
  5223  0074  2876               	goto	u172_20
  5224  0075                     u172_21:	
  5225  0075  2881               	goto	i1l1898
  5226  0076                     u172_20:	
  5227  0076                     i1l1892:	
  5228                           
  5229                           ;Source/Usb.c: 279:         {;Source/Usb.c: 280:             RequestHandled = 1;
  5230  0076  01B8               	clrf	_RequestHandled
  5231  0077  0AB8               	incf	_RequestHandled,f
  5232  0078                     i1l1894:	
  5233                           
  5234                           ;Source/Usb.c: 281:             ROMoutPtr = (const uint8_t*)HIDReport;
  5235  0078  304A               	movlw	low (_HIDReport| (0+32768))
  5236  0079  00B2               	movwf	_ROMoutPtr
  5237  007A  3086               	movlw	high (_HIDReport| (0+32768))
  5238  007B  00B3               	movwf	_ROMoutPtr+1
  5239                           
  5240                           ;Source/Usb.c: 282:             wCount = sizeof(HIDReport);
  5241  007C  303F               	movlw	63
  5242  007D  00B0               	movwf	_wCount
  5243  007E  3000               	movlw	0
  5244  007F  00B1               	movwf	_wCount+1
  5245  0080  286D               	goto	i1l1888
  5246  0081                     i1l1898:	
  5247  0081                     i1l1902:	
  5248                           
  5249                           ;Source/Usb.c: 293:     if ((SetupPacket.bmRequestType & 0x60) != 0x20)
  5250  0081  3060               	movlw	96
  5251  0082  0540               	andwf	_SetupPacket,w	;volatile
  5252  0083  00F0               	movwf	??_ProcessHIDRequest
  5253  0084  3020               	movlw	32
  5254  0085  0670               	xorwf	??_ProcessHIDRequest,w
  5255  0086  1903               	btfsc	3,2
  5256  0087  2889               	goto	u173_21
  5257  0088  288A               	goto	u173_20
  5258  0089                     u173_21:	
  5259  0089  288B               	goto	i1l1906
  5260  008A                     u173_20:	
  5261  008A  28D8               	goto	i1l234
  5262  008B                     i1l1906:	
  5263                           
  5264                           ;Source/Usb.c: 299:     if (bRequest == 0x01)
  5265  008B  0372               	decf	ProcessHIDRequest@bRequest,w
  5266  008C  1D03               	btfss	3,2
  5267  008D  288F               	goto	u174_21
  5268  008E  2890               	goto	u174_20
  5269  008F                     u174_21:	
  5270  008F  2891               	goto	i1l1910
  5271  0090                     u174_20:	
  5272  0090  28D8               	goto	i1l234
  5273  0091                     i1l1910:	
  5274  0091  3009               	movlw	9
  5275  0092  0672               	xorwf	ProcessHIDRequest@bRequest,w
  5276  0093  1D03               	btfss	3,2
  5277  0094  2896               	goto	u175_21
  5278  0095  2897               	goto	u175_20
  5279  0096                     u175_21:	
  5280  0096  289C               	goto	i1l1914
  5281  0097                     u175_20:	
  5282  0097                     i1l1912:	
  5283                           
  5284                           ;Source/Usb.c: 304:     {;Source/Usb.c: 305:         HIDPostProcess = 1;
  5285  0097  01B9               	clrf	_HIDPostProcess
  5286  0098  0AB9               	incf	_HIDPostProcess,f
  5287                           
  5288                           ;Source/Usb.c: 306:         RequestHandled = 1;
  5289  0099  01B8               	clrf	_RequestHandled
  5290  009A  0AB8               	incf	_RequestHandled,f
  5291                           
  5292                           ;Source/Usb.c: 307:     }
  5293  009B  28D8               	goto	i1l234
  5294  009C                     i1l1914:	
  5295  009C  3002               	movlw	2
  5296  009D  0672               	xorwf	ProcessHIDRequest@bRequest,w
  5297  009E  1D03               	btfss	3,2
  5298  009F  28A1               	goto	u176_21
  5299  00A0  28A2               	goto	u176_20
  5300  00A1                     u176_21:	
  5301  00A1  28AE               	goto	i1l1922
  5302  00A2                     u176_20:	
  5303  00A2                     i1l1916:	
  5304                           
  5305                           ;Source/Usb.c: 310:     {;Source/Usb.c: 311:         RequestHandled = 1;
  5306  00A2  01B8               	clrf	_RequestHandled
  5307  00A3  0AB8               	incf	_RequestHandled,f
  5308  00A4                     i1l1918:	
  5309                           
  5310                           ;Source/Usb.c: 312:         outPtr = &HidIdleRate;
  5311  00A4  305A               	movlw	(low (_HidIdleRate| 0))& (0+255)
  5312  00A5  00F0               	movwf	??_ProcessHIDRequest
  5313  00A6  0870               	movf	??_ProcessHIDRequest,w
  5314  00A7  00B6               	movwf	_outPtr
  5315                           
  5316                           ;Source/Usb.c: 313:         wCount = 1;
  5317  00A8  3001               	movlw	1
  5318  00A9  00B0               	movwf	_wCount
  5319  00AA  3000               	movlw	0
  5320  00AB  00B1               	movwf	_wCount+1
  5321  00AC                     i1l1920:	
  5322                           
  5323                           ;Source/Usb.c: 314:         transferType=0;
  5324  00AC  01B5               	clrf	_transferType
  5325                           
  5326                           ;Source/Usb.c: 315:     }
  5327  00AD  28D8               	goto	i1l234
  5328  00AE                     i1l1922:	
  5329  00AE  300A               	movlw	10
  5330  00AF  0672               	xorwf	ProcessHIDRequest@bRequest,w
  5331  00B0  1D03               	btfss	3,2
  5332  00B1  28B3               	goto	u177_21
  5333  00B2  28B4               	goto	u177_20
  5334  00B3                     u177_21:	
  5335  00B3  28BB               	goto	i1l1928
  5336  00B4                     u177_20:	
  5337  00B4                     i1l1924:	
  5338                           
  5339                           ;Source/Usb.c: 318:     {;Source/Usb.c: 319:         RequestHandled = 1;
  5340  00B4  01B8               	clrf	_RequestHandled
  5341  00B5  0AB8               	incf	_RequestHandled,f
  5342  00B6                     i1l1926:	
  5343                           
  5344                           ;Source/Usb.c: 320:         HidIdleRate = SetupPacket.wValue1;
  5345  00B6  0843               	movf	_SetupPacket+3,w	;volatile
  5346  00B7  00F0               	movwf	??_ProcessHIDRequest
  5347  00B8  0870               	movf	??_ProcessHIDRequest,w
  5348  00B9  00DA               	movwf	_HidIdleRate
  5349                           
  5350                           ;Source/Usb.c: 321:     }
  5351  00BA  28D8               	goto	i1l234
  5352  00BB                     i1l1928:	
  5353  00BB  3003               	movlw	3
  5354  00BC  0672               	xorwf	ProcessHIDRequest@bRequest,w
  5355  00BD  1D03               	btfss	3,2
  5356  00BE  28C0               	goto	u178_21
  5357  00BF  28C1               	goto	u178_20
  5358  00C0                     u178_21:	
  5359  00C0  28CC               	goto	i1l1936
  5360  00C1                     u178_20:	
  5361  00C1                     i1l1930:	
  5362                           
  5363                           ;Source/Usb.c: 324:     {;Source/Usb.c: 325:         RequestHandled = 1;
  5364  00C1  01B8               	clrf	_RequestHandled
  5365  00C2  0AB8               	incf	_RequestHandled,f
  5366  00C3                     i1l1932:	
  5367                           
  5368                           ;Source/Usb.c: 326:         outPtr = &HidProtocol;
  5369  00C3  3059               	movlw	(low (_HidProtocol| 0))& (0+255)
  5370  00C4  00F0               	movwf	??_ProcessHIDRequest
  5371  00C5  0870               	movf	??_ProcessHIDRequest,w
  5372  00C6  00B6               	movwf	_outPtr
  5373                           
  5374                           ;Source/Usb.c: 327:         wCount = 1;
  5375  00C7  3001               	movlw	1
  5376  00C8  00B0               	movwf	_wCount
  5377  00C9  3000               	movlw	0
  5378  00CA  00B1               	movwf	_wCount+1
  5379  00CB  28AC               	goto	i1l1920
  5380  00CC                     i1l1936:	
  5381  00CC  300B               	movlw	11
  5382  00CD  0672               	xorwf	ProcessHIDRequest@bRequest,w
  5383  00CE  1D03               	btfss	3,2
  5384  00CF  28D1               	goto	u179_21
  5385  00D0  28D2               	goto	u179_20
  5386  00D1                     u179_21:	
  5387  00D1  284E               	goto	i1l233
  5388  00D2                     u179_20:	
  5389  00D2                     i1l1938:	
  5390                           
  5391                           ;Source/Usb.c: 332:     {;Source/Usb.c: 333:         RequestHandled = 1;
  5392  00D2  01B8               	clrf	_RequestHandled
  5393  00D3  0AB8               	incf	_RequestHandled,f
  5394  00D4                     i1l1940:	
  5395                           
  5396                           ;Source/Usb.c: 334:         HidProtocol = SetupPacket.wValue0;
  5397  00D4  0842               	movf	_SetupPacket+2,w	;volatile
  5398  00D5  00F0               	movwf	??_ProcessHIDRequest
  5399  00D6  0870               	movf	??_ProcessHIDRequest,w
  5400  00D7  00D9               	movwf	_HidProtocol
  5401  00D8                     i1l234:	
  5402                           ;Source/Usb.c: 335:     }
  5403                           
  5404  00D8  0008               	return
  5405  00D9                     __end_of_ProcessHIDRequest:	
  5406                           
  5407                           	psect	text30
  5408  0289                     __ptext30:	
  5409 ;; *************** function _InDataStage *****************
  5410 ;; Defined at:
  5411 ;;		line 563 in file "Source/Usb.c"
  5412 ;; Parameters:    Size  Location     Type
  5413 ;;		None
  5414 ;; Auto vars:     Size  Location     Type
  5415 ;;  bufferSize      2    3[COMMON] unsigned short 
  5416 ;;  i               1    2[COMMON] unsigned char 
  5417 ;; Return value:  Size  Location     Type
  5418 ;;                  1    wreg      void 
  5419 ;; Registers used:
  5420 ;;		wreg, fsr0l, fsr0h, fsr1l, fsr1h, status,2, status,0, pclath
  5421 ;; Tracked objects:
  5422 ;;		On entry : 0/0
  5423 ;;		On exit  : 0/0
  5424 ;;		Unchanged: 0/0
  5425 ;; Data sizes:     COMMON   BANK0   BANK1   BANK2   BANK3   BANK4   BANK5   BANK6   BANK7   BANK8   BANK9  BANK10  BANK1
      +1  BANK12
  5426 ;;      Params:         0       0       0       0       0       0       0       0       0       0       0       0       
      +0       0
  5427 ;;      Locals:         3       0       0       0       0       0       0       0       0       0       0       0       
      +0       0
  5428 ;;      Temps:          2       0       0       0       0       0       0       0       0       0       0       0       
      +0       0
  5429 ;;      Totals:         5       0       0       0       0       0       0       0       0       0       0       0       
      +0       0
  5430 ;;Total ram usage:        5 bytes
  5431 ;; Hardware stack levels used:    1
  5432 ;; This function calls:
  5433 ;;		Nothing
  5434 ;; This function is called by:
  5435 ;;		_SetupStage
  5436 ;;		_ProcessControlTransfer
  5437 ;; This function uses a non-reentrant model
  5438 ;;
  5439                           
  5440                           
  5441                           ;psect for function _InDataStage
  5442  0289                     _InDataStage:	
  5443  0289                     i1l2012:	
  5444                           ;incstack = 0
  5445                           ; Regs used in _InDataStage: [wreg-fsr1h+status,2+status,0+pclath]
  5446                           
  5447                           
  5448                           ;Source/Usb.c: 565:     uint8_t i;;Source/Usb.c: 566:     uint16_t bufferSize;;Source/Us
      +                          b.c: 569:     if(wCount < 0x08)
  5449  0289  3000               	movlw	0
  5450  028A  0020               	movlb	0	; select bank0
  5451  028B  0231               	subwf	_wCount+1,w
  5452  028C  3008               	movlw	8
  5453  028D  1903               	skipnz
  5454  028E  0230               	subwf	_wCount,w
  5455  028F  1803               	skipnc
  5456  0290  2A92               	goto	u192_21
  5457  0291  2A93               	goto	u192_20
  5458  0292                     u192_21:	
  5459  0292  2A98               	goto	i1l2016
  5460  0293                     u192_20:	
  5461  0293                     i1l2014:	
  5462                           
  5463                           ;Source/Usb.c: 570:         bufferSize = wCount;
  5464  0293  0831               	movf	_wCount+1,w
  5465  0294  00F4               	movwf	InDataStage@bufferSize+1
  5466  0295  0830               	movf	_wCount,w
  5467  0296  00F3               	movwf	InDataStage@bufferSize
  5468  0297  2A9C               	goto	i1l2018
  5469  0298                     i1l2016:	
  5470                           
  5471                           ;Source/Usb.c: 572:         bufferSize = 0x08;
  5472  0298  3008               	movlw	8
  5473  0299  00F3               	movwf	InDataStage@bufferSize
  5474  029A  3000               	movlw	0
  5475  029B  00F4               	movwf	InDataStage@bufferSize+1
  5476  029C                     i1l2018:	
  5477                           
  5478                           ;Source/Usb.c: 575:     Interfaces[0].Input.Stat &= ~(0x01 | 0x02);
  5479  029C  30FC               	movlw	252
  5480  029D  00F0               	movwf	??_InDataStage
  5481  029E  0870               	movf	??_InDataStage,w
  5482  029F  05A4               	andwf	36,f	;volatile
  5483  02A0                     i1l2020:	
  5484                           
  5485                           ;Source/Usb.c: 576:     Interfaces[0].Input.Stat |= (uint8_t)((bufferSize & 0x0300) >> 8
      +                          );
  5486  02A0  0874               	movf	InDataStage@bufferSize+1,w
  5487  02A1  3903               	andlw	3
  5488  02A2  00F0               	movwf	??_InDataStage
  5489  02A3  0870               	movf	??_InDataStage,w
  5490  02A4  04A4               	iorwf	36,f	;volatile
  5491                           
  5492                           ;Source/Usb.c: 577:     Interfaces[0].Input.Cnt = (uint8_t)(bufferSize & 0xFF);
  5493  02A5  0873               	movf	InDataStage@bufferSize,w
  5494  02A6  00F0               	movwf	??_InDataStage
  5495  02A7  0870               	movf	??_InDataStage,w
  5496  02A8  00A5               	movwf	37	;volatile
  5497  02A9                     i1l2022:	
  5498                           
  5499                           ;Source/Usb.c: 578:     Interfaces[0].Input.ADDR = ((unsigned int)(((unsigned long)&Cont
      +                          rolTransferBuffer) & 0xFFFF));
  5500  02A9  3049               	movlw	low _ControlTransferBuffer
  5501  02AA  00A6               	movwf	38	;volatile
  5502  02AB  3000               	movlw	high _ControlTransferBuffer
  5503  02AC  00A7               	movwf	39	;volatile
  5504  02AD                     i1l2024:	
  5505                           
  5506                           ;Source/Usb.c: 583:     wCount = wCount - bufferSize;
  5507  02AD  0873               	movf	InDataStage@bufferSize,w
  5508  02AE  0230               	subwf	_wCount,w
  5509  02AF  00B0               	movwf	_wCount
  5510  02B0  0874               	movf	InDataStage@bufferSize+1,w
  5511  02B1  3B31               	subwfb	_wCount+1,w
  5512  02B2  00B1               	movwf	_wCount+1
  5513                           
  5514                           ;Source/Usb.c: 586:     inPtr = (uint8_t *)&ControlTransferBuffer;
  5515  02B3  3049               	movlw	(low (_ControlTransferBuffer| 0))& (0+255)
  5516  02B4  00F0               	movwf	??_InDataStage
  5517  02B5  0870               	movf	??_InDataStage,w
  5518  02B6  00FD               	movwf	_inPtr
  5519  02B7                     i1l2026:	
  5520                           
  5521                           ;Source/Usb.c: 587:  if(transferType==1) for(i=0;i<bufferSize;i++) *inPtr++ = *ROMoutPtr
      +                          ++;
  5522  02B7  0335               	decf	_transferType,w
  5523  02B8  1D03               	btfss	3,2
  5524  02B9  2ABB               	goto	u193_21
  5525  02BA  2ABC               	goto	u193_20
  5526  02BB                     u193_21:	
  5527  02BB  2AE3               	goto	i1l2040
  5528  02BC                     u193_20:	
  5529  02BC                     i1l2028:	
  5530  02BC  01F2               	clrf	InDataStage@i
  5531  02BD  2AD5               	goto	i1l2038
  5532  02BE                     i1l2030:	
  5533  02BE  0832               	movf	_ROMoutPtr,w
  5534  02BF  0084               	movwf	4
  5535  02C0  0833               	movf	_ROMoutPtr+1,w
  5536  02C1  0085               	movwf	5
  5537  02C2  0800               	movf	0,w	;code access
  5538  02C3  00F0               	movwf	??_InDataStage
  5539  02C4  087D               	movf	_inPtr,w
  5540  02C5  0086               	movwf	6
  5541  02C6  0187               	clrf	7
  5542  02C7  0870               	movf	??_InDataStage,w
  5543  02C8  0081               	movwf	1
  5544  02C9                     i1l2032:	
  5545  02C9  3001               	movlw	1
  5546  02CA  07B2               	addwf	_ROMoutPtr,f
  5547  02CB  3000               	movlw	0
  5548  02CC  3DB3               	addwfc	_ROMoutPtr+1,f
  5549  02CD                     i1l2034:	
  5550  02CD  3001               	movlw	1
  5551  02CE  00F0               	movwf	??_InDataStage
  5552  02CF  0870               	movf	??_InDataStage,w
  5553  02D0  07FD               	addwf	_inPtr,f
  5554  02D1                     i1l2036:	
  5555  02D1  3001               	movlw	1
  5556  02D2  00F0               	movwf	??_InDataStage
  5557  02D3  0870               	movf	??_InDataStage,w
  5558  02D4  07F2               	addwf	InDataStage@i,f
  5559  02D5                     i1l2038:	
  5560  02D5  0872               	movf	InDataStage@i,w
  5561  02D6  00F0               	movwf	??_InDataStage
  5562  02D7  01F1               	clrf	??_InDataStage+1
  5563  02D8  0874               	movf	InDataStage@bufferSize+1,w
  5564  02D9  0271               	subwf	??_InDataStage+1,w
  5565  02DA  1D03               	skipz
  5566  02DB  2ADE               	goto	u194_25
  5567  02DC  0873               	movf	InDataStage@bufferSize,w
  5568  02DD  0270               	subwf	??_InDataStage,w
  5569  02DE                     u194_25:	
  5570  02DE  1C03               	skipc
  5571  02DF  2AE1               	goto	u194_21
  5572  02E0  2AE2               	goto	u194_20
  5573  02E1                     u194_21:	
  5574  02E1  2ABE               	goto	i1l2030
  5575  02E2                     u194_20:	
  5576  02E2  2B08               	goto	i1l335
  5577  02E3                     i1l2040:	
  5578  02E3  01F2               	clrf	InDataStage@i
  5579  02E4  2AFB               	goto	i1l2050
  5580  02E5                     i1l2042:	
  5581  02E5  0836               	movf	_outPtr,w
  5582  02E6  0086               	movwf	6
  5583  02E7  0187               	clrf	7
  5584  02E8  0801               	movf	1,w
  5585  02E9  00F0               	movwf	??_InDataStage
  5586  02EA  087D               	movf	_inPtr,w
  5587  02EB  0086               	movwf	6
  5588  02EC  0187               	clrf	7
  5589  02ED  0870               	movf	??_InDataStage,w
  5590  02EE  0081               	movwf	1
  5591  02EF                     i1l2044:	
  5592  02EF  3001               	movlw	1
  5593  02F0  00F0               	movwf	??_InDataStage
  5594  02F1  0870               	movf	??_InDataStage,w
  5595  02F2  07B6               	addwf	_outPtr,f
  5596  02F3                     i1l2046:	
  5597  02F3  3001               	movlw	1
  5598  02F4  00F0               	movwf	??_InDataStage
  5599  02F5  0870               	movf	??_InDataStage,w
  5600  02F6  07FD               	addwf	_inPtr,f
  5601  02F7                     i1l2048:	
  5602  02F7  3001               	movlw	1
  5603  02F8  00F0               	movwf	??_InDataStage
  5604  02F9  0870               	movf	??_InDataStage,w
  5605  02FA  07F2               	addwf	InDataStage@i,f
  5606  02FB                     i1l2050:	
  5607  02FB  0872               	movf	InDataStage@i,w
  5608  02FC  00F0               	movwf	??_InDataStage
  5609  02FD  01F1               	clrf	??_InDataStage+1
  5610  02FE  0874               	movf	InDataStage@bufferSize+1,w
  5611  02FF  0271               	subwf	??_InDataStage+1,w
  5612  0300  1D03               	skipz
  5613  0301  2B04               	goto	u195_25
  5614  0302  0873               	movf	InDataStage@bufferSize,w
  5615  0303  0270               	subwf	??_InDataStage,w
  5616  0304                     u195_25:	
  5617  0304  1C03               	skipc
  5618  0305  2B07               	goto	u195_21
  5619  0306  2B08               	goto	u195_20
  5620  0307                     u195_21:	
  5621  0307  2AE5               	goto	i1l2042
  5622  0308                     u195_20:	
  5623  0308                     i1l335:	
  5624  0308  0008               	return
  5625  0309                     __end_of_InDataStage:	
  5626                           
  5627                           	psect	text31
  5628  06C3                     __ptext31:	
  5629 ;; *************** function _OutDataStage *****************
  5630 ;; Defined at:
  5631 ;;		line 592 in file "Source/Usb.c"
  5632 ;; Parameters:    Size  Location     Type
  5633 ;;		None
  5634 ;; Auto vars:     Size  Location     Type
  5635 ;;  bufferSize      2    3[COMMON] unsigned short 
  5636 ;;  i               2    1[COMMON] unsigned short 
  5637 ;; Return value:  Size  Location     Type
  5638 ;;                  1    wreg      void 
  5639 ;; Registers used:
  5640 ;;		wreg, fsr1l, fsr1h, status,2, status,0
  5641 ;; Tracked objects:
  5642 ;;		On entry : 0/0
  5643 ;;		On exit  : 0/0
  5644 ;;		Unchanged: 0/0
  5645 ;; Data sizes:     COMMON   BANK0   BANK1   BANK2   BANK3   BANK4   BANK5   BANK6   BANK7   BANK8   BANK9  BANK10  BANK1
      +1  BANK12
  5646 ;;      Params:         0       0       0       0       0       0       0       0       0       0       0       0       
      +0       0
  5647 ;;      Locals:         4       0       0       0       0       0       0       0       0       0       0       0       
      +0       0
  5648 ;;      Temps:          1       0       0       0       0       0       0       0       0       0       0       0       
      +0       0
  5649 ;;      Totals:         5       0       0       0       0       0       0       0       0       0       0       0       
      +0       0
  5650 ;;Total ram usage:        5 bytes
  5651 ;; Hardware stack levels used:    1
  5652 ;; This function calls:
  5653 ;;		Nothing
  5654 ;; This function is called by:
  5655 ;;		_ProcessControlTransfer
  5656 ;; This function uses a non-reentrant model
  5657 ;;
  5658                           
  5659                           
  5660                           ;psect for function _OutDataStage
  5661  06C3                     _OutDataStage:	
  5662  06C3                     i1l2076:	
  5663                           ;incstack = 0
  5664                           ; Regs used in _OutDataStage: [wreg+fsr1l+fsr1h+status,2+status,0]
  5665                           
  5666                           
  5667                           ;Source/Usb.c: 594:     uint16_t i, bufferSize;;Source/Usb.c: 596:     bufferSize = ((0x
      +                          03 & Interfaces[0].Output.Stat) << 8) | Interfaces[0].Output.Cnt;
  5668  06C3  3003               	movlw	3
  5669  06C4  0020               	movlb	0	; select bank0
  5670  06C5  0520               	andwf	32,w	;volatile
  5671  06C6  00F0               	movwf	??_OutDataStage
  5672  06C7  0870               	movf	??_OutDataStage,w
  5673  06C8  00F4               	movwf	OutDataStage@bufferSize+1
  5674  06C9  0821               	movf	33,w	;volatile
  5675  06CA  00F3               	movwf	OutDataStage@bufferSize
  5676                           
  5677                           ;Source/Usb.c: 599:     wCount = wCount + bufferSize;
  5678  06CB  0873               	movf	OutDataStage@bufferSize,w
  5679  06CC  0730               	addwf	_wCount,w
  5680  06CD  00B0               	movwf	_wCount
  5681  06CE  0874               	movf	OutDataStage@bufferSize+1,w
  5682  06CF  3D31               	addwfc	_wCount+1,w
  5683  06D0  00B1               	movwf	_wCount+1
  5684  06D1                     i1l2078:	
  5685                           
  5686                           ;Source/Usb.c: 601:     outPtr = (uint8_t*)&ControlTransferBuffer;
  5687  06D1  3049               	movlw	(low (_ControlTransferBuffer| 0))& (0+255)
  5688  06D2  00F0               	movwf	??_OutDataStage
  5689  06D3  0870               	movf	??_OutDataStage,w
  5690  06D4  00B6               	movwf	_outPtr
  5691  06D5                     i1l2080:	
  5692                           
  5693                           ;Source/Usb.c: 603:     for (i=0;i<bufferSize;i++)
  5694  06D5  01F1               	clrf	OutDataStage@i
  5695  06D6  01F2               	clrf	OutDataStage@i+1
  5696  06D7  2EEE               	goto	i1l2090
  5697  06D8                     i1l2082:	
  5698                           
  5699                           ;Source/Usb.c: 604:     {;Source/Usb.c: 605:         *inPtr++ = *outPtr++;
  5700  06D8  0836               	movf	_outPtr,w
  5701  06D9  0086               	movwf	6
  5702  06DA  0187               	clrf	7
  5703  06DB  0801               	movf	1,w
  5704  06DC  00F0               	movwf	??_OutDataStage
  5705  06DD  087D               	movf	_inPtr,w
  5706  06DE  0086               	movwf	6
  5707  06DF  0187               	clrf	7
  5708  06E0  0870               	movf	??_OutDataStage,w
  5709  06E1  0081               	movwf	1
  5710  06E2                     i1l2084:	
  5711  06E2  3001               	movlw	1
  5712  06E3  00F0               	movwf	??_OutDataStage
  5713  06E4  0870               	movf	??_OutDataStage,w
  5714  06E5  07B6               	addwf	_outPtr,f
  5715  06E6                     i1l2086:	
  5716  06E6  3001               	movlw	1
  5717  06E7  00F0               	movwf	??_OutDataStage
  5718  06E8  0870               	movf	??_OutDataStage,w
  5719  06E9  07FD               	addwf	_inPtr,f
  5720  06EA                     i1l2088:	
  5721                           
  5722                           ;Source/Usb.c: 606:     }
  5723  06EA  3001               	movlw	1
  5724  06EB  07F1               	addwf	OutDataStage@i,f
  5725  06EC  3000               	movlw	0
  5726  06ED  3DF2               	addwfc	OutDataStage@i+1,f
  5727  06EE                     i1l2090:	
  5728  06EE  0874               	movf	OutDataStage@bufferSize+1,w
  5729  06EF  0272               	subwf	OutDataStage@i+1,w
  5730  06F0  1D03               	skipz
  5731  06F1  2EF4               	goto	u208_25
  5732  06F2  0873               	movf	OutDataStage@bufferSize,w
  5733  06F3  0271               	subwf	OutDataStage@i,w
  5734  06F4                     u208_25:	
  5735  06F4  1C03               	skipc
  5736  06F5  2EF7               	goto	u208_21
  5737  06F6  2EF8               	goto	u208_20
  5738  06F7                     u208_21:	
  5739  06F7  2ED8               	goto	i1l2082
  5740  06F8                     u208_20:	
  5741  06F8                     i1l341:	
  5742  06F8  0008               	return
  5743  06F9                     __end_of_OutDataStage:	
  5744                           
  5745                           	psect	text32
  5746  0772                     __ptext32:	
  5747 ;; *************** function _BusReset *****************
  5748 ;; Defined at:
  5749 ;;		line 833 in file "Source/Usb.c"
  5750 ;; Parameters:    Size  Location     Type
  5751 ;;		None
  5752 ;; Auto vars:     Size  Location     Type
  5753 ;;		None
  5754 ;; Return value:  Size  Location     Type
  5755 ;;                  1    wreg      void 
  5756 ;; Registers used:
  5757 ;;		wreg, status,2, status,0, pclath, cstack
  5758 ;; Tracked objects:
  5759 ;;		On entry : 0/0
  5760 ;;		On exit  : 0/0
  5761 ;;		Unchanged: 0/0
  5762 ;; Data sizes:     COMMON   BANK0   BANK1   BANK2   BANK3   BANK4   BANK5   BANK6   BANK7   BANK8   BANK9  BANK10  BANK1
      +1  BANK12
  5763 ;;      Params:         0       0       0       0       0       0       0       0       0       0       0       0       
      +0       0
  5764 ;;      Locals:         0       0       0       0       0       0       0       0       0       0       0       0       
      +0       0
  5765 ;;      Temps:          1       0       0       0       0       0       0       0       0       0       0       0       
      +0       0
  5766 ;;      Totals:         1       0       0       0       0       0       0       0       0       0       0       0       
      +0       0
  5767 ;;Total ram usage:        1 bytes
  5768 ;; Hardware stack levels used:    1
  5769 ;; Hardware stack levels required when called:    1
  5770 ;; This function calls:
  5771 ;;		_WaitForSetupStage
  5772 ;; This function is called by:
  5773 ;;		_ProcessUSBTransactions
  5774 ;; This function uses a non-reentrant model
  5775 ;;
  5776                           
  5777                           
  5778                           ;psect for function _BusReset
  5779  0772                     _BusReset:	
  5780  0772                     i1l2316:	
  5781                           ;incstack = 0
  5782                           ; Regs used in _BusReset: [wreg+status,2+status,0+pclath+cstack]
  5783                           
  5784                           
  5785                           ;Source/Usb.c: 835:     UEIR = 0x00;
  5786  0772  003D               	movlb	29	; select bank29
  5787  0773  0193               	clrf	19	;volatile
  5788                           
  5789                           ;Source/Usb.c: 836:     UIR = 0x00;
  5790  0774  0190               	clrf	16	;volatile
  5791  0775                     i1l2318:	
  5792                           
  5793                           ;Source/Usb.c: 837:     UEIE = 0x9f;
  5794  0775  309F               	movlw	159
  5795  0776  0097               	movwf	23	;volatile
  5796  0777                     i1l2320:	
  5797                           
  5798                           ;Source/Usb.c: 838:     UIE = 0x7b;
  5799  0777  307B               	movlw	123
  5800  0778  0092               	movwf	18	;volatile
  5801                           
  5802                           ;Source/Usb.c: 839:     UADDR = 0x00;
  5803  0779  0196               	clrf	22	;volatile
  5804  077A                     i1l2322:	
  5805                           
  5806                           ;Source/Usb.c: 842:     UEP0 = 0x16;
  5807  077A  3016               	movlw	22
  5808  077B  0098               	movwf	24	;volatile
  5809                           
  5810                           ;Source/Usb.c: 845:     while (UIRbits.TRNIF == 1) UIRbits.TRNIF = 0;
  5811  077C  2F7E               	goto	i1l402
  5812  077D                     i1l403:	
  5813  077D  1190               	bcf	16,3	;volatile
  5814  077E                     i1l402:	
  5815  077E  1990               	btfsc	16,3	;volatile
  5816  077F  2F81               	goto	u243_21
  5817  0780  2F82               	goto	u243_20
  5818  0781                     u243_21:	
  5819  0781  2F7D               	goto	i1l403
  5820  0782                     u243_20:	
  5821  0782                     i1l404:	
  5822                           
  5823                           ;Source/Usb.c: 848:     UCONbits.PKTDIS = 0;
  5824  0782  120E               	bcf	14,4	;volatile
  5825  0783                     i1l2324:	
  5826                           
  5827                           ;Source/Usb.c: 851:     WaitForSetupStage();
  5828  0783  318F  2796  3187   	fcall	_WaitForSetupStage
  5829  0786                     i1l2326:	
  5830                           
  5831                           ;Source/Usb.c: 853:     RemoteWakeup = 0;
  5832  0786  0020               	movlb	0	; select bank0
  5833  0787  01BD               	clrf	_RemoteWakeup
  5834  0788                     i1l2328:	
  5835                           
  5836                           ;Source/Usb.c: 854:     SelfPowered = 0;
  5837  0788  01BB               	clrf	_SelfPowered
  5838  0789                     i1l2330:	
  5839                           
  5840                           ;Source/Usb.c: 855:     CurrentConfiguration = 0;
  5841  0789  01DB               	clrf	_CurrentConfiguration
  5842  078A                     i1l2332:	
  5843                           
  5844                           ;Source/Usb.c: 856:     DeviceState = 0x03;
  5845  078A  3003               	movlw	3
  5846  078B  00F1               	movwf	??_BusReset
  5847  078C  0871               	movf	??_BusReset,w
  5848  078D  00BF               	movwf	_DeviceState
  5849  078E                     i1l405:	
  5850  078E  0008               	return
  5851  078F                     __end_of_BusReset:	
  5852                           
  5853                           	psect	text33
  5854  0F96                     __ptext33:	
  5855 ;; *************** function _WaitForSetupStage *****************
  5856 ;; Defined at:
  5857 ;;		line 680 in file "Source/Usb.c"
  5858 ;; Parameters:    Size  Location     Type
  5859 ;;		None
  5860 ;; Auto vars:     Size  Location     Type
  5861 ;;		None
  5862 ;; Return value:  Size  Location     Type
  5863 ;;                  1    wreg      void 
  5864 ;; Registers used:
  5865 ;;		wreg, status,2, status,0
  5866 ;; Tracked objects:
  5867 ;;		On entry : 0/0
  5868 ;;		On exit  : 0/0
  5869 ;;		Unchanged: 0/0
  5870 ;; Data sizes:     COMMON   BANK0   BANK1   BANK2   BANK3   BANK4   BANK5   BANK6   BANK7   BANK8   BANK9  BANK10  BANK1
      +1  BANK12
  5871 ;;      Params:         0       0       0       0       0       0       0       0       0       0       0       0       
      +0       0
  5872 ;;      Locals:         0       0       0       0       0       0       0       0       0       0       0       0       
      +0       0
  5873 ;;      Temps:          1       0       0       0       0       0       0       0       0       0       0       0       
      +0       0
  5874 ;;      Totals:         1       0       0       0       0       0       0       0       0       0       0       0       
      +0       0
  5875 ;;Total ram usage:        1 bytes
  5876 ;; Hardware stack levels used:    1
  5877 ;; This function calls:
  5878 ;;		Nothing
  5879 ;; This function is called by:
  5880 ;;		_ProcessControlTransfer
  5881 ;;		_Stall
  5882 ;;		_BusReset
  5883 ;; This function uses a non-reentrant model
  5884 ;;
  5885                           
  5886                           
  5887                           ;psect for function _WaitForSetupStage
  5888  0F96                     _WaitForSetupStage:	
  5889  0F96                     i1l2146:	
  5890                           ;incstack = 0
  5891                           ; Regs used in _WaitForSetupStage: [wreg+status,2+status,0]
  5892                           
  5893                           
  5894                           ;Source/Usb.c: 682:     CtrlTransferStage = 0x00;
  5895  0F96  0020               	movlb	0	; select bank0
  5896  0F97  01BA               	clrf	_CtrlTransferStage
  5897  0F98                     i1l2148:	
  5898                           
  5899                           ;Source/Usb.c: 683:     Interfaces[0].Output.Cnt = 0x08;
  5900  0F98  3008               	movlw	8
  5901  0F99  00A1               	movwf	33	;volatile
  5902  0F9A                     i1l2150:	
  5903                           
  5904                           ;Source/Usb.c: 684:     Interfaces[0].Output.ADDR = ((unsigned int)(((unsigned long)&Set
      +                          upPacket) & 0xFFFF));
  5905  0F9A  3040               	movlw	low _SetupPacket
  5906  0F9B  00A2               	movwf	34	;volatile
  5907  0F9C  3000               	movlw	high _SetupPacket
  5908  0F9D  00A3               	movwf	35	;volatile
  5909  0F9E                     i1l2152:	
  5910                           
  5911                           ;Source/Usb.c: 685:     Interfaces[0].Output.Stat = 0x80 | 0x08;
  5912  0F9E  3088               	movlw	136
  5913  0F9F  00F0               	movwf	??_WaitForSetupStage
  5914  0FA0  0870               	movf	??_WaitForSetupStage,w
  5915  0FA1  00A0               	movwf	32	;volatile
  5916  0FA2                     i1l2154:	
  5917                           
  5918                           ;Source/Usb.c: 686:     Interfaces[0].Input.Stat = 0x00;
  5919  0FA2  01A4               	clrf	36	;volatile
  5920  0FA3                     i1l352:	
  5921  0FA3  0008               	return
  5922  0FA4                     __end_of_WaitForSetupStage:	
  5923  007E                     btemp	set	126	;btemp
  5924  007E                     int$flags	set	126
  5925  007E                     wtemp0	set	126


Data Sizes:
    Strings     0
    Constant    186
    Data        31
    BSS         53
    Persistent  32
    Stack       0

Auto Spaces:
    Space          Size  Autos    Used
    COMMON           14     13      14
    BANK0            64     14      62
    BANK1            80      0      35
    BANK2            80      0       0
    BANK3            80      0       0
    BANK4            80      0       0
    BANK5            80      0       0
    BANK6            80      0       0
    BANK7            80      0       0
    BANK8            80      0       0
    BANK9            80      0       0
    BANK10           80      0       0
    BANK11           80      0       0
    BANK12           48      0       0

Pointer List with Targets:

    inPtr	PTR unsigned char  size(1) Largest target is 16
		 -> ControlTransferBuffer(BANK0[8]), Interfaces.Output(BANK0[4]), Interfaces(BANK0[16]), NULL(NULL[0]), 

    outPtr	PTR unsigned char  size(1) Largest target is 8
		 -> CurrentConfiguration(BANK0[1]), ControlTransferBuffer(BANK0[8]), HidProtocol(BANK0[1]), HidIdleRate(BANK0[1]), 
		 -> NULL(NULL[0]), 

    ROMoutPtr	PTR const unsigned char  size(2) Largest target is 63
		 -> DeviceDescriptor(CODE[18]), HIDReport(CODE[63]), NULL(NULL[0]), StringDescriptor2(CODE[26]), 
		 -> StringDescriptor1(CODE[28]), StringDescriptor0(CODE[4]), ConfigurationDescriptor.HIDDescriptor(CODE[32]), ConfigurationDescriptor(CODE[41]), 

    StringDescriptorPointers	const PTR const unsigned char [3] size(2) Largest target is 28
		 -> StringDescriptor2(CODE[26]), StringDescriptor1(CODE[28]), StringDescriptor0(CODE[4]), 

    S22_BufferInfo$Buffer	PTR unsigned char  size(1) Largest target is 8
		 -> HIDRxBuffer(BANK1[8]), HIDTxBuffer(BANK0[8]), 

    Buffers.Buffer	PTR unsigned char  size(1) Largest target is 8
		 -> HIDRxBuffer(BANK1[8]), HIDTxBuffer(BANK0[8]), 


Critical Paths under _main in COMMON

    None.

Critical Paths under _ISRCode in COMMON

    _ISRCode->_ProcessUSBTransactions
    _ProcessUSBTransactions->_ProcessControlTransfer
    _Stall->_WaitForSetupStage
    _ProcessControlTransfer->_SetupStage
    _SetupStage->_ProcessStandardRequest
    _ProcessStandardRequest->_SetFeature
    _BusReset->_WaitForSetupStage

Critical Paths under _main in BANK0

    _main->_ProcessIO
    _ProcessIO->_PrepareTxBuffer
    _PrepareTxBuffer->___bmul
    _CheckUsb->_ReArmInterface

Critical Paths under _ISRCode in BANK0

    None.

Critical Paths under _main in BANK1

    None.

Critical Paths under _ISRCode in BANK1

    None.

Critical Paths under _main in BANK2

    None.

Critical Paths under _ISRCode in BANK2

    None.

Critical Paths under _main in BANK3

    None.

Critical Paths under _ISRCode in BANK3

    None.

Critical Paths under _main in BANK4

    None.

Critical Paths under _ISRCode in BANK4

    None.

Critical Paths under _main in BANK5

    None.

Critical Paths under _ISRCode in BANK5

    None.

Critical Paths under _main in BANK6

    None.

Critical Paths under _ISRCode in BANK6

    None.

Critical Paths under _main in BANK7

    None.

Critical Paths under _ISRCode in BANK7

    None.

Critical Paths under _main in BANK8

    None.

Critical Paths under _ISRCode in BANK8

    None.

Critical Paths under _main in BANK9

    None.

Critical Paths under _ISRCode in BANK9

    None.

Critical Paths under _main in BANK10

    None.

Critical Paths under _ISRCode in BANK10

    None.

Critical Paths under _main in BANK11

    None.

Critical Paths under _ISRCode in BANK11

    None.

Critical Paths under _main in BANK12

    None.

Critical Paths under _ISRCode in BANK12

    None.

Call Graph Tables:

 ---------------------------------------------------------------------------------
 (Depth) Function   	        Calls       Base Space   Used Autos Params    Refs
 ---------------------------------------------------------------------------------
 (0) _main                                                 0     0      0    1018
                   _EnableInterrupts
                    _EnableUSBModule
                   _InitializeSystem
                      _InitializeUSB
                _NES_GPIO_Initialize
                          _ProcessIO
 ---------------------------------------------------------------------------------
 (1) _ProcessIO                                            2     2      0    1018
                                             12 BANK0      2     2      0
                           _CheckUsb
                            _HIDSend
                       _NES_read_pad
                    _PrepareTxBuffer
 ---------------------------------------------------------------------------------
 (2) _PrepareTxBuffer                                      8     8      0     529
                                              4 BANK0      8     8      0
                             ___bmul
 ---------------------------------------------------------------------------------
 (3) ___bmul                                               4     3      1     235
                                              0 BANK0      4     3      1
 ---------------------------------------------------------------------------------
 (2) _NES_read_pad                                         5     5      0      92
                                              0 BANK0      5     5      0
 ---------------------------------------------------------------------------------
 (2) _HIDSend                                              4     4      0     132
                                              0 BANK0      4     4      0
 ---------------------------------------------------------------------------------
 (2) _CheckUsb                                             0     0      0     198
                 _IsUsbDataAvaialble
               _ProcessIncommingData
                     _ReArmInterface
 ---------------------------------------------------------------------------------
 (3) _ReArmInterface                                       4     4      0     132
                                              0 BANK0      4     4      0
 ---------------------------------------------------------------------------------
 (3) _ProcessIncommingData                                 0     0      0       0
 ---------------------------------------------------------------------------------
 (3) _IsUsbDataAvaialble                                   2     2      0      66
                                              0 BANK0      2     2      0
 ---------------------------------------------------------------------------------
 (1) _NES_GPIO_Initialize                                  0     0      0       0
 ---------------------------------------------------------------------------------
 (1) _InitializeUSB                                        0     0      0       0
                     _ResetPPBuffers
 ---------------------------------------------------------------------------------
 (2) _ResetPPBuffers                                       0     0      0       0
 ---------------------------------------------------------------------------------
 (1) _InitializeSystem                                     0     0      0       0
 ---------------------------------------------------------------------------------
 (1) _EnableUSBModule                                      1     1      0       0
                                              0 BANK0      1     1      0
 ---------------------------------------------------------------------------------
 (1) _EnableInterrupts                                     0     0      0       0
 ---------------------------------------------------------------------------------
 Estimated maximum stack depth 3
 ---------------------------------------------------------------------------------
 (Depth) Function   	        Calls       Base Space   Used Autos Params    Refs
 ---------------------------------------------------------------------------------
 (4) _ISRCode                                              0     0      0    1527
             _ProcessUSBTransactions
 ---------------------------------------------------------------------------------
 (5) _ProcessUSBTransactions                               1     1      0    1527
                                             12 COMMON     1     1      0
                           _BusReset
             _ProcessControlTransfer
                              _Stall
                       _StartOfFrame
                            _Suspend
                          _UnSuspend
 ---------------------------------------------------------------------------------
 (6) _UnSuspend                                            1     1      0       0
                                              0 COMMON     1     1      0
 ---------------------------------------------------------------------------------
 (6) _Suspend                                              1     1      0       0
                                              0 COMMON     1     1      0
 ---------------------------------------------------------------------------------
 (6) _StartOfFrame                                         0     0      0       0
 ---------------------------------------------------------------------------------
 (6) _Stall                                                0     0      0       0
                  _WaitForSetupStage
 ---------------------------------------------------------------------------------
 (6) _ProcessControlTransfer                               3     3      0    1527
                                              9 COMMON     3     3      0
                        _InDataStage
                       _OutDataStage
                         _SetupStage
                  _WaitForSetupStage
 ---------------------------------------------------------------------------------
 (7) _SetupStage                                           1     1      0    1275
                                              8 COMMON     1     1      0
                        _InDataStage
                  _ProcessHIDRequest
             _ProcessStandardRequest
 ---------------------------------------------------------------------------------
 (8) _ProcessStandardRequest                               2     2      0     893
                                              6 COMMON     2     2      0
                      _GetDescriptor
                          _GetStatus
                   _HIDInitEndpoints
                         _SetFeature
 ---------------------------------------------------------------------------------
 (9) _SetFeature                                           6     6      0     180
                                              0 COMMON     6     6      0
 ---------------------------------------------------------------------------------
 (9) _HIDInitEndpoints                                     5     5      0     245
                                              0 COMMON     5     5      0
 ---------------------------------------------------------------------------------
 (9) _GetStatus                                            5     5      0     113
                                              0 COMMON     5     5      0
 ---------------------------------------------------------------------------------
 (9) _GetDescriptor                                        5     5      0     112
                                              0 COMMON     5     5      0
 ---------------------------------------------------------------------------------
 (8) _ProcessHIDRequest                                    3     3      0     222
                                              0 COMMON     3     3      0
 ---------------------------------------------------------------------------------
 (8) _InDataStage                                          5     5      0     160
                                              0 COMMON     5     5      0
 ---------------------------------------------------------------------------------
 (7) _OutDataStage                                         5     5      0      69
                                              0 COMMON     5     5      0
 ---------------------------------------------------------------------------------
 (6) _BusReset                                             1     1      0       0
                                              1 COMMON     1     1      0
                  _WaitForSetupStage
 ---------------------------------------------------------------------------------
 (7) _WaitForSetupStage                                    1     1      0       0
                                              0 COMMON     1     1      0
 ---------------------------------------------------------------------------------
 Estimated maximum stack depth 9
 ---------------------------------------------------------------------------------

 Call Graph Graphs:

 _main (ROOT)
   _EnableInterrupts
   _EnableUSBModule
   _InitializeSystem
   _InitializeUSB
     _ResetPPBuffers
   _NES_GPIO_Initialize
   _ProcessIO
     _CheckUsb
       _IsUsbDataAvaialble
       _ProcessIncommingData
       _ReArmInterface
     _HIDSend
     _NES_read_pad
     _PrepareTxBuffer
       ___bmul

 _ISRCode (ROOT)
   _ProcessUSBTransactions
     _BusReset
       _WaitForSetupStage
     _ProcessControlTransfer
       _InDataStage
       _OutDataStage
       _SetupStage
         _InDataStage
         _ProcessHIDRequest
         _ProcessStandardRequest
           _GetDescriptor
           _GetStatus
           _HIDInitEndpoints
           _SetFeature
       _WaitForSetupStage
     _Stall
       _WaitForSetupStage
     _StartOfFrame
     _Suspend
     _UnSuspend

 Address spaces:
Name               Size   Autos  Total    Cost      Usage
BIGRAM             3F0      0       0       0        0.0%
NULL                 0      0       0       0        0.0%
CODE                 0      0       0       0        0.0%
BITCOMMON            E      0       0       1        0.0%
BITSFR0              0      0       0       1        0.0%
SFR0                 0      0       0       1        0.0%
COMMON               E      D       E       2      100.0%
BITSFR1              0      0       0       2        0.0%
SFR1                 0      0       0       2        0.0%
BITSFR2              0      0       0       3        0.0%
SFR2                 0      0       0       3        0.0%
STACK                0      0       0       3        0.0%
BITBANK0            40      0       0       4        0.0%
BITSFR3              0      0       0       4        0.0%
SFR3                 0      0       0       4        0.0%
BANK0               40      E      3E       5       96.9%
BITSFR4              0      0       0       5        0.0%
SFR4                 0      0       0       5        0.0%
BITBANK1            50      0       0       6        0.0%
BITSFR5              0      0       0       6        0.0%
SFR5                 0      0       0       6        0.0%
BANK1               50      0      23       7       43.8%
BITSFR6              0      0       0       7        0.0%
SFR6                 0      0       0       7        0.0%
BITBANK2            50      0       0       8        0.0%
BITSFR7              0      0       0       8        0.0%
SFR7                 0      0       0       8        0.0%
BANK2               50      0       0       9        0.0%
BITSFR8              0      0       0       9        0.0%
SFR8                 0      0       0       9        0.0%
BITBANK3            50      0       0      10        0.0%
BITSFR9              0      0       0      10        0.0%
SFR9                 0      0       0      10        0.0%
BANK3               50      0       0      11        0.0%
BITSFR10             0      0       0      11        0.0%
SFR10                0      0       0      11        0.0%
BITBANK4            50      0       0      12        0.0%
BITSFR11             0      0       0      12        0.0%
SFR11                0      0       0      12        0.0%
BANK4               50      0       0      13        0.0%
BITSFR12             0      0       0      13        0.0%
SFR12                0      0       0      13        0.0%
BITBANK5            50      0       0      14        0.0%
BITSFR13             0      0       0      14        0.0%
SFR13                0      0       0      14        0.0%
BANK5               50      0       0      15        0.0%
BITSFR14             0      0       0      15        0.0%
SFR14                0      0       0      15        0.0%
BITBANK6            50      0       0      16        0.0%
BITSFR15             0      0       0      16        0.0%
SFR15                0      0       0      16        0.0%
BANK6               50      0       0      17        0.0%
BITSFR16             0      0       0      17        0.0%
SFR16                0      0       0      17        0.0%
BITBANK7            50      0       0      18        0.0%
BITSFR17             0      0       0      18        0.0%
SFR17                0      0       0      18        0.0%
BANK7               50      0       0      19        0.0%
BITSFR18             0      0       0      19        0.0%
SFR18                0      0       0      19        0.0%
BITSFR19             0      0       0      20        0.0%
SFR19                0      0       0      20        0.0%
ABS                  0      0      6F      20        0.0%
BITBANK8            50      0       0      21        0.0%
BITSFR20             0      0       0      21        0.0%
SFR20                0      0       0      21        0.0%
BANK8               50      0       0      22        0.0%
BITSFR21             0      0       0      22        0.0%
SFR21                0      0       0      22        0.0%
BITBANK9            50      0       0      23        0.0%
BITSFR22             0      0       0      23        0.0%
SFR22                0      0       0      23        0.0%
BANK9               50      0       0      24        0.0%
BITSFR23             0      0       0      24        0.0%
SFR23                0      0       0      24        0.0%
BITBANK10           50      0       0      25        0.0%
BITSFR24             0      0       0      25        0.0%
SFR24                0      0       0      25        0.0%
BANK10              50      0       0      26        0.0%
BITSFR25             0      0       0      26        0.0%
SFR25                0      0       0      26        0.0%
BITBANK11           50      0       0      27        0.0%
BITSFR26             0      0       0      27        0.0%
SFR26                0      0       0      27        0.0%
BANK11              50      0       0      28        0.0%
BITSFR27             0      0       0      28        0.0%
SFR27                0      0       0      28        0.0%
BITBANK12           30      0       0      29        0.0%
BITSFR28             0      0       0      29        0.0%
SFR28                0      0       0      29        0.0%
BANK12              30      0       0      30        0.0%
BITSFR29             0      0       0      30        0.0%
SFR29                0      0       0      30        0.0%
BITSFR30             0      0       0      31        0.0%
SFR30                0      0       0      31        0.0%
DATA                 0      0      6F      31        0.0%
BITSFR31             0      0       0      32        0.0%
SFR31                0      0       0      32        0.0%


Microchip Technology PIC Macro Assembler V2.10 build 88905656 
Symbol Table                                                                                   Fri Apr 10 12:21:33 2020

                  ___bmul@product 005E                       __CFG_CP$OFF 0000        __size_of_WaitForSetupStage 000E  
          __end_of_ResetPPBuffers 0F5D                                l80 0F7E                                l77 0FB3  
                              l86 0320                                l96 0382                                l98 0383  
      __end_of_IsUsbDataAvaialble 0772          __end_of_EnableInterrupts 0F7F                               l101 0003  
                             l110 0723                               l105 0FD4                               l210 0771  
                             l221 05EF                               l217 0649                               l442 0689  
                             l452 06C2                               l374 0F59                               l383 07EB  
                             l439 0F89                               l376 0F5C                               l386 07F9  
                             l546 0FFF                               l379 0FC3                               _UIE 0E92  
                             _UIR 0E90                      __CFG_BORV$LO 0000                               wreg 0009  
                    _transferType 0035                   __end_of_HIDSend 05F0                      __CFG_LVP$OFF 0000  
                            l2200 0362                              l2210 0FC4                              l2202 0366  
                            l2060 0765                              l2052 074F                              l2212 0FCD  
                            l2220 0690                              l2054 0754                              l2070 0601  
                            l2214 0FD0                              l2230 06A6                              l2222 0692  
                            l2206 036D                              l2072 062A                              l2240 06C0  
                            l2232 06A9                              l2216 068B                              l2160 0FF1  
                            l2208 0371                              l2058 0756                              l2074 063A  
                            l2250 05D0                              l2234 06AB                              l2226 0694  
                            l2218 068E                              l2162 0FF5                              l2170 030B  
                            l2420 0FB1                              l2412 0FA4                              l2068 05F2  
                            l2252 05E0                              l2244 0597                              l2236 06AE  
                            l2228 06A4                              l2164 0FF7                              l2156 0FEC  
                            l2180 0315                              l2422 0F77                              l2414 0FA9  
                            l2238 06B3                              l2166 0FFE                              l2158 0FED  
                            l2190 032B                              l2182 031B                              l2430 06F9  
                            l2424 0F7A                              l2416 0FAB                              l2248 05A7  
                            l2192 033E                              l2184 0321                              l2176 030C  
                            l2432 0700                              l2426 0F7B                              l2418 0FAE  
                            l2450 0FB7                              l2194 034E                              l2186 0322  
                            l2178 0311                              l2442 0716                              l2434 0705  
                            l2428 0F7C                              l2460 0FBE                              l2452 0FB9  
                            l2196 0355                              l2188 0326                              l2444 071E  
                            l2436 0708                              l2470 07E8                              l2462 0FC1  
                            l2454 0FBA                              l2446 0F7F                              l2198 035A  
                            l2438 070F                              l2472 07F0                              l2464 07E0  
                            l2456 0FBB                              l2448 0FB4                              l2474 07F2  
                            l2466 07E5                              l2458 0FBD                              l2490 0FDE  
                            l2476 07F3                              l2468 07E7                              l2492 0FE1  
                            l2484 0FD5                              l2478 07F4                              l2494 0FE4  
                            l2486 0FD8                              l2488 0FDB                              u2010 0601  
                            u2011 0600                              u2005 05F5                              u2200 0FCD  
                            u2120 0FF1                              u2025 0604                              u2201 0FCC  
                            u2121 0FF0                              u2050 062A                              u2130 0FFE  
                            u2051 0629                              u2035 0611                              u2131 0FFD  
                            u2220 06C0                              u2140 031B                              u2045 061E  
                            u2221 06BF                              u2141 031A                              u2214 069E  
                            u2150 0320                              u2215 069D                              u2151 031F  
                            _LATC 010E                              u2240 05A6                              u2160 033E  
                            u2065 062F                              u2305 05E5                              u2241 05A5  
                            u2225 06BC                              u2161 033D                              u2170 0355  
                            u2075 063F                              u2235 059A                              u2171 0354  
                            u2180 036C                              u2181 036B                              u2190 0381  
                            u2255 05AA                              u2191 0380                              u2280 05D0  
                            u2281 05CF                              u2265 05B7                              u2610 0700  
                            u2275 05C4                              u2611 06FF                              u2620 0705  
                            u2621 0704                              u2630 0715                              u2295 05D5  
                            u2631 0714                              u2640 07E5                              u2641 07E4  
                            u2650 07F0                              u2651 07EF                              u2707 06A7  
                            u2717 06AC                              u1960 0754                              u1961 0753  
                            u1980 0765                              u1981 0764                              u1975 0759  
                            u2697 068C                              u1995 0768                              i1l74 000E  
                            _UCFG 0E91                              _UEP0 0E98                              _UEIE 0E97  
                            _UEIR 0E93                              _UCON 0E8E                   __end_of_ISRCode 0010  
                    __CFG_WRT$OFF 0000                              _main 0FD5             __end_of_GetDescriptor 0595  
                            fsr0h 0005                              fsr1h 0007                              indf0 0000  
                            fsr0l 0004                              indf1 0001                              fsr1l 0006  
                            btemp 007E              _CurrentConfiguration 005B                     __CFG_BOREN$ON 0000  
                            start 0010                     __CFG_IESO$OFF 0000                 ___bmul@multiplier 005F  
          __size_of_InitializeUSB 0010                 ??_EnableUSBModule 005C                  _HIDInitEndpoints 01FE  
             _NES_GPIO_Initialize 0F7F                   ?_ResetPPBuffers 0070     IsUsbDataAvaialble@InterfaceNo 005D  
                           ?_main 0070                     __CFG_WDTE$OFF 0000                   __end_of_Suspend 0F6F  
                           i1l233 004E                             i1l402 077E                             i1l234 00D8  
                           i1l403 077D                             i1l411 0190                             i1l404 0782  
                           i1l228 0288                             i1l405 078E                             i1l341 06F8  
                           i1l335 0308                             i1l352 0FA3                             i1l344 048E  
                           i1l408 0177                             i1l417 01EA                             i1l409 01FD  
                           i1l266 0594                             i1l346 04BB                             i1l259 0594  
                           i1l371 0464                             i1l349 04CE                             i1l294 03F5  
                           i1l279 0533                             i1l392 0F58                             i1l289 03D6  
                           i1l298 016B                             i1l396 0F95                             i1l389 0F76  
                           i1l399 0F6E                             _UADDR 0E96                             _USTAT 0E8F  
              HIDSend@InterfaceNo 005F        PrepareTxBuffer@max_buttons 0061                    __CFG_FCMEN$OFF 0000  
                     _InDataStage 0289                             _Stall 0F8A     PrepareTxBuffer@keypad_reading 0064  
                           _inPtr 007D          ??_ProcessUSBTransactions 007C              ?_NES_GPIO_Initialize 0070  
                     _HidIdleRate 005A                             status 0003                             wtemp0 007E  
                __end_of_CheckUsb 0FD5                    __CFG_MCLRE$OFF 0000                   __initialization 0012  
                __end_of_BusReset 078F                      __end_of_main 0FEA          ??_ProcessControlTransfer 0079  
                  __CFG_LPBOR$OFF 0000                       _DeviceState 003F                            ??_main 006A  
                     _HidProtocol 0059         __size_of_InitializeSystem 0010                 __end_of_HIDReport 0689  
                      _Interfaces 0020                         ??_HIDSend 005C               __CFG_USBLSCLK$48MHz 0000  
              __size_of_GetStatus 0065                         ??_ISRCode 007D                        _SetFeature 0384  
                   _InitializeUSB 0FB4                            ?_Stall 0070             ??_NES_GPIO_Initialize 005C  
                          _ACTCON 039B                            _ANSELA 018C                            _ANSELC 018E  
                          i1l2000 015B                            i1l2002 0161                            i1l2020 02A0  
                          i1l2012 0289                            i1l2004 0164                            i1l2100 0471  
                          i1l2030 02BE                            i1l2022 02A9                            i1l2014 0293  
                          i1l2110 0481                            i1l2102 0473                            i1l2032 02C9  
                          i1l2040 02E3                            i1l2024 02AD                            i1l2016 0298  
                          i1l2008 016B                            i1l2120 04A0                            i1l2112 0485  
                          i1l2104 0476                            i1l2042 02E5                            i1l2050 02FB  
                          i1l2034 02CD                            i1l2026 02B7                            i1l2018 029C  
                          i1l2130 04B2                            i1l2122 04A3                            i1l2114 0489  
                          i1l2106 0479                            i1l2044 02EF                            i1l2036 02D1  
                          i1l2028 02BC                            i1l2140 04C4                            i1l2132 04B6  
                          i1l2124 04A8                            i1l2116 0492                            i1l2108 047F  
                          i1l2300 0F56                            i1l2150 0F9A                            i1l2046 02F3  
                          i1l2038 02D5                            i1l2142 04C8                            i1l2134 04BD  
                          i1l2126 04AA                            i1l2118 049C                            i1l2302 0F8A  
                          i1l2310 0F67                            i1l2152 0F9E                            i1l2320 0777  
                          i1l2080 06D5                            i1l2048 02F7                            i1l2136 04BE  
                          i1l2128 04AE                            i1l2144 04CC                            i1l2304 0F8F  
                          i1l2312 0F69                            i1l2400 01E7                            i1l2154 0FA2  
                          i1l2146 0F96                            i1l2330 0789                            i1l2322 077A  
                          i1l2082 06D8                            i1l2090 06EE                            i1l2138 04C2  
                          i1l2306 0F92                            i1l2314 0F6D                            i1l2410 01FB  
                          i1l2148 0F98                            i1l2332 078A                            i1l2324 0783  
                          i1l2316 0772                            i1l2084 06E2                            i1l2076 06C3  
                          i1l2092 0465                            i1l2260 0412                            i1l2308 0F94  
                          i1l2404 01EF                            i1l2326 0786                            i1l2318 0775  
                          i1l2086 06E6                            i1l2078 06D1                            i1l2094 046E  
                          i1l2262 0417                            i1l2270 0429                            i1l2254 03F6  
                          i1l2406 01F3                            i1l2350 018C                            i1l2342 017C  
                          i1l2334 016C                            i1l2328 0788                            i1l2088 06EA  
                          i1l1800 04DE                            i1l2096 046F                            i1l2280 0442  
                          i1l2264 041A                            i1l2256 03FC                            i1l2272 042D  
                          i1l2408 01F6                            i1l2360 019B                            i1l2352 018D  
                          i1l2344 0180                            i1l2336 0172                            i1l1810 04F0  
                          i1l1802 04E3                            i1l2098 0470                            i1l2290 045B  
                          i1l2282 0447                            i1l2274 0433                            i1l2266 041F  
                          i1l2258 040E                            i1l2370 01B0                            i1l2362 01A0  
                          i1l2346 0183                            i1l2338 0174                            i1l1820 0511  
                          i1l1812 04F3                            i1l1804 04E4                            i1l2292 0460  
                          i1l2276 0438                            i1l2284 044C                            i1l2268 0424  
                          i1l2380 01C4                            i1l2372 01B4                            i1l2364 01A4  
                          i1l2356 0194                            i1l2348 0188                            i1l1910 0091  
                          i1l1902 0081                            i1l1830 052A                            i1l1822 0516  
                          i1l1814 04F9                            i1l1806 04E9                            i1l1750 0202  
                          i1l2286 0453                            i1l2278 043F                            i1l2390 01D8  
                          i1l2382 01C8                            i1l2374 01B8                            i1l2366 01A8  
                          i1l2358 0198                            i1l1920 00AC                            i1l1912 0097  
                          i1l1760 0543                            i1l1832 0532                            i1l1824 051A  
                          i1l1816 0503                            i1l1808 04EB                            i1l1752 027F  
                          i1l1744 01FE                            i1l1840 0393                            u210_20 0492  
                          i1l2288 0456                            i1l2296 0F6F                            i1l2392 01D9  
                          i1l2384 01CB                            i1l2376 01BB                            i1l2368 01AB  
                          i1l2480 0006                            u210_21 0491                            i1l1930 00C1  
                          i1l1922 00AE                            i1l1914 009C                            i1l1906 008B  
                          i1l1770 055B                            i1l1762 0548                            i1l1826 0521  
                          i1l1818 0505                            i1l1754 0283                            i1l1842 0398  
                          i1l1850 03A5                            i1l1834 0384                            i1l2298 0F72  
                          i1l2394 01DA                            i1l2386 01D0                            i1l2378 01C0  
                          i1l2482 000B                            i1l1940 00D4                            i1l1932 00C3  
                          i1l1924 00B4                            i1l1916 00A2                            i1l1780 056E  
                          i1l1772 055D                            i1l1764 054A                            i1l1756 0534  
                          i1l1828 0525                            i1l1860 03C1                            i1l1852 03AB  
                          i1l1844 039A                            i1l1836 038A                            i1l2388 01D4  
                          i1l2396 01DE                            i1l1926 00B6                            i1l1918 00A4  
                          i1l1782 0574                            i1l1766 0552                            i1l1758 053B  
                          i1l1790 04CF                            i1l1870 03EE                            i1l1862 03D2  
                          i1l1854 03B5                            i1l1846 03A0                            i1l1838 038E  
                          i1l1950 00EB                            i1l1942 00D9                            i1l2398 01E5  
                          i1l1936 00CC                            i1l1928 00BB                            i1l1880 0059  
                          i1l1872 003F                            i1l1784 0579                            i1l1776 0566  
                          i1l1768 0555                            i1l1792 04D5                            i1l1864 03DC  
                          i1l1856 03BA                            i1l1848 03A3                            i1l1960 0106  
                          i1l1952 00ED                            i1l1944 00DE                            u211_20 049C  
                          u211_21 049B                            i1l1938 00D2                            i1l1890 0070  
                          i1l1882 005D                            i1l1874 0048                            i1l1786 0588  
                          i1l1778 056C                            i1l1794 04D6                            i1l1866 03E4  
                          i1l1858 03BF                            i1l1970 011A                            i1l1962 0108  
                          i1l1954 00F6                            i1l1892 0076                            i1l1884 0063  
                          i1l1876 004F                            i1l1796 04D7                            i1l1868 03E9  
                          i1l1980 0130                            i1l1964 010C                            i1l1972 011E  
                          i1l1956 00FC                            i1l1948 00E5                            u211_25 0498  
                          i1l1894 0078                            i1l1886 0065                            i1l1878 0053  
                          i1l1798 04DC                            i1l1990 0148                            i1l1982 0135  
                          i1l1974 0124                            i1l1966 0111                            i1l1958 0100  
                          i1l1888 006D                            i1l1992 014E                            i1l1984 0139  
                          i1l1976 0126                            i1l1968 0116                            i1l1898 0081  
                          i1l1994 0150                            i1l1986 013E                            i1l1978 012E  
                          i1l1996 0151                            i1l1988 0144                            u140_25 0255  
                          i1l1998 0155                            u141_25 0264                            u150_20 04E3  
                          u150_21 04E2                            u142_25 0275                            u151_20 04E9  
                          u143_20 0288                            u231_20 03FC                            u151_21 04E8  
                          u143_21 0287                            u231_21 03FB                            u135_25 020E  
                          u208_20 06F8                            u144_20 053B                            u152_20 04F0  
                          u160_20 03A0                            u240_20 0453                            u208_21 06F7  
                          u144_21 053A                            u152_21 04EF                            u160_21 039F  
                          u240_21 0452                            u208_25 06F4                            u136_25 021B  
                          u232_25 0400                            u145_20 0548                            u153_20 04F9  
                          u161_20 03AB                            u209_20 047F                            u241_20 045B  
                          u233_20 040E                            u145_21 0547                            u153_21 04F8  
                          u161_21 03AA                            u209_21 047E                            u241_21 045A  
                          u233_21 040D                            u137_25 0228                            u170_20 0059  
                          u146_20 055B                            u162_20 03BA                            u234_20 0417  
                          u242_20 0F8F                            u250_20 01A4                            u170_21 0058  
                          u146_21 055A                            u162_21 03B9                            u234_21 0416  
                          u242_21 0F8E                            u250_21 01A3                            u154_25 0508  
                          u138_25 0237                            u243_20 0782                            u171_20 0063  
                          u147_20 056C                            u155_20 0516                            u163_20 03BF  
                          u235_20 041F                            u251_20 01A8                            u243_21 0781  
                          u171_21 0062                            u147_21 056B                            u155_21 0515  
                          u163_21 03BE                            u235_21 041E                            u251_21 01A7  
                          u139_25 0248                            u172_20 0076                            u148_20 0574  
                          u156_20 0521                            u180_20 00E4                            u236_20 0433  
                          u260_20 01F3                            u252_20 01B4                            u244_20 0172  
                          u172_21 0075                            u148_21 0573                            u156_21 0520  
                          u180_21 00E3                            u236_21 0432                            u260_21 01F2  
                          u252_21 01B3                            u244_21 0171                            u164_25 03C4  
                          u173_20 008A                            u157_20 052A                            u149_20 04DC  
                          u165_20 03D2                            u181_20 00EB                            u237_20 0438  
                          u253_20 01B8                            u245_20 017C                            u173_21 0089  
                          u157_21 0529                            u149_21 04DB                            u165_21 03D1  
                          u181_21 00EA                            u237_21 0437                            u253_21 01B7  
                          u245_21 017B                            u174_20 0090                            u166_20 03DC  
                          u158_20 0393                            u190_20 0161                            u182_20 00FC  
                          u238_20 043F                            u254_20 01C4                            u246_20 0180  
                          u174_21 008F                            u166_21 03DB                            u158_21 0392  
                          u190_21 0160                            u182_21 00FB                            u238_21 043E  
                          u254_21 01C3                            u246_21 017F                            u175_20 0097  
                          u167_20 03E9                            u159_20 0398                            u191_20 016A  
                          u183_20 0106                            u239_20 0447                            u255_20 01C8  
                          u247_20 018C                            u175_21 0096                            u167_21 03E8  
                          u159_21 0397                            u191_21 0169                            u183_21 0105  
                          u239_21 0446                            u255_21 01C7                            u247_21 018B  
                          u192_20 0293                            u176_20 00A2                            u168_20 0048  
                          u184_20 0111                            u256_20 01D4                            u248_20 0194  
                          u192_21 0292                            u176_21 00A1                            u168_21 0047  
                          u184_21 0110                            u256_21 01D3                            u248_21 0193  
                          u193_20 02BC                            u177_20 00B4                            u169_20 004D  
                          u185_20 0124                            u257_20 01D8                            u249_20 0198  
                          u193_21 02BB                            u177_21 00B3                            u169_21 004C  
                          u185_21 0123                            u257_21 01D7                            u249_21 0197  
                          u194_20 02E2                            u178_20 00C1                            u186_20 0135  
                          u258_20 01E5                            u266_20 000B                            u194_21 02E1  
                          u178_21 00C0                            u186_21 0134                            u258_21 01E4  
                          u266_21 000A                            u194_25 02DE                            u195_20 0308  
                          u179_20 00D2                            u187_20 013E                            u259_20 01EF  
                          u195_21 0307                            u179_21 00D1                            u187_21 013D  
                          u259_21 01EE                            u195_25 0304                            u188_20 0144  
                          u188_21 0143                            u189_20 014E                            u189_21 014D  
                          _OSCCON 0099         ProcessHIDRequest@bRequest 0072                    __CFG_PWRTE$OFF 0000  
                          ___bmul 0FEA                    __CFG_STVREN$ON 0000            OutDataStage@bufferSize 0073  
                       ??_Suspend 0070                            _wCount 0030                        _SetupStage 0465  
                          _outPtr 0036                __size_of_UnSuspend 0008                __size_of_ProcessIO 002B  
                  ?_InitializeUSB 0070          __size_of_PrepareTxBuffer 007B           ?_ProcessStandardRequest 0070  
 __size_of_ProcessUSBTransactions 0092      GetDescriptor@descriptorIndex 0073                    _RequestHandled 0038  
         __end_of__initialization 003B             SetFeature@endpointDir 0075               ___bmul@multiplicand 005C  
               __end_of_GetStatus 0534             SetFeature@endpointNum 0074                    __pcstackCOMMON 0070  
                   __end_of_Stall 0F96                      __pidataBANK0 0F5D                      __pidataBANK1 07AB  
 __size_of_ProcessControlTransfer 006F                 ?_EnableInterrupts 0070                   _button_key_maps 00A0  
                       ?_CheckUsb 0070                ??_EnableInterrupts 005C      __end_of_ProcessIncommingData 0004  
  __end_of_ProcessStandardRequest 016C                       ?_SetFeature 0070                           ??_Stall 0071  
         __size_of_ReArmInterface 005A                _IsUsbDataAvaialble 074D          __end_of_HIDInitEndpoints 0289  
                       ?_BusReset 0070                        __pbssBANK0 0030                        __pbssBANK1 00BB  
                 _EnableUSBModule 07E0  __end_of_StringDescriptorPointers 1018                     ?_OutDataStage 0070  
             ?_IsUsbDataAvaialble 0070                 __end_of_UnSuspend 0F77                 __end_of_ProcessIO 0724  
                   ?_NES_read_pad 0070                  ??_ResetPPBuffers 005C             InDataStage@bufferSize 0073  
                      __pmaintext 0FD5                           ?___bmul 005C                   __CFG_PLLMULT$3x 0000  
          _ProcessUSBTransactions 016C                        __pintentry 0004                       ?_SetupStage 0070  
                     _SelfPowered 003B                  _InitializeSystem 0FA4              ??_IsUsbDataAvaialble 005C  
                 ??_InitializeUSB 005C                           _HIDSend 0595                        ??_CheckUsb 0060  
                    ?_InDataStage 0070                           _ISRCode 0004                           _OSCTUNE 0098  
                         _UIEbits 0E92                        ??_BusReset 0071                           _UIRbits 0E90  
          _ProcessControlTransfer 03F6                    ??_OutDataStage 0070                 ??_PrepareTxBuffer 0060  
                         _Buffers 006A                    ??_NES_read_pad 005C               __size_of_SetFeature 0072  
                 __size_of___bmul 0016                           _Suspend 0F67                     OutDataStage@i 0071  
                         __ptext1 06F9                           __ptext2 0309                           __ptext3 0FEA  
                         __ptext4 0689                           __ptext5 0595                           __ptext6 0FC4  
                         __ptext7 05F0                           __ptext8 0003                           __ptext9 074D  
          __size_of_GetDescriptor 0061                       _SetupPacket 0040           __end_of_EnableUSBModule 07FA  
                       _HIDReport 064A                           clrloop0 0F62              end_of_initialization 003B  
                         init_ram 07FA                           initloop 07FB               __size_of_SetupStage 006A  
                   NES_read_pad@i 005F              _ProcessIncommingData 0003         ReArmInterface@InterfaceNo 005F  
                   ?_StartOfFrame 0070                         _PORTAbits 000C                         _PORTCbits 000E  
     __end_of_NES_GPIO_Initialize 0F8A                  __CFG_FOSC$INTOSC 0000                         _TRISAbits 008C  
                       _TRISCbits 008E                    _ReArmInterface 05F0     ProcessStandardRequest@request 0077  
                       _ROMoutPtr 0032                     _GetDescriptor 0534             ?_ProcessIncommingData 0070  
              __CFG_PLLEN$ENABLED 0000                    ??_StartOfFrame 0070                      InDataStage@i 0072  
            GetStatus@endpointDir 0073              GetStatus@endpointNum 0072                    __end_of___bmul 1000  
                       _GetStatus 04CF   __end_of_ConfigurationDescriptor 074D              __end_of_OutDataStage 06F9  
          __end_of_ReArmInterface 064A                 _StringDescriptor0 1018                 _StringDescriptor1 078F  
               _StringDescriptor2 07C6              __end_of_NES_read_pad 06C3               start_initialization 0012  
                    ??_SetFeature 0070                  ?_EnableUSBModule 0070                 __size_of_CheckUsb 0011  
            __size_of_InDataStage 0080                 ?_HIDInitEndpoints 0070         __size_of_EnableInterrupts 0008  
                   _DeviceAddress 003C                 __size_of_BusReset 001D                ??_HIDInitEndpoints 0070  
                  ?_GetDescriptor 0070          __end_of_InitializeSystem 0FB4           ?_ProcessUSBTransactions 0070  
                        ??___bmul 005D                         _UnSuspend 0F6F                __end_of_SetFeature 03F6  
                       _ProcessIO 06F9                        ?_GetStatus 0070                       __pdataBANK0 006A  
                     __pdataBANK1 00A0                      ??_SetupStage 0078                 HIDInitEndpoints@i 0074  
       __end_of_StringDescriptor0 101C         __end_of_StringDescriptor1 07AB         __end_of_StringDescriptor2 07E0  
                    _last_reading 0034       GetDescriptor@descriptorType 0074                          ?_HIDSend 0070  
                 ?_ReArmInterface 0070                   _PrepareTxBuffer 0309                       __pbssCOMMON 007D  
                       ___latbits 0002                     __pcstackBANK0 005C                          ?_ISRCode 0070  
         ?_ProcessControlTransfer 0070    __end_of_ProcessUSBTransactions 01FE            ??_ProcessIncommingData 005C  
              __end_of_SetupStage 04CF                  PrepareTxBuffer@i 0067                  PrepareTxBuffer@n 0066  
               _ProcessHIDRequest 003F                        ?_UnSuspend 0070                        ?_ProcessIO 0070  
                        ?_Suspend 0070                ?_ProcessHIDRequest 0070                PrepareTxBuffer@key 0062  
             _last_keypad_reading 003E       __size_of_IsUsbDataAvaialble 0025               ??_ProcessHIDRequest 0070  
  __end_of_ProcessControlTransfer 0465             __end_of_InitializeUSB 0FC4                    __size_of_Stall 000C  
            __end_of_StartOfFrame 0F59                   ??_GetDescriptor 0070              PrepareTxBuffer@index 0065  
                        _LATCbits 010E                         clear_ram0 0F61                          _PIE2bits 0092  
                _DeviceDescriptor 1000         __end_of_ProcessHIDRequest 00D9                          _PIR2bits 0012  
                     _HIDRxBuffer 00BB                          _UEP0bits 0E98             __size_of_OutDataStage 0036  
                     _HIDTxBuffer 0051                          _UCONbits 0E8E                       ??_GetStatus 0070  
         __end_of_PrepareTxBuffer 0384          ??_ProcessStandardRequest 0076             __size_of_NES_read_pad 003A  
         __size_of_ResetPPBuffers 0004                          _CheckUsb 0FC4                      _RemoteWakeup 003D  
                __size_of_HIDSend 005B                NES_read_pad@output 005E                          _HidRxLen 0037  
                __size_of_ISRCode 000C                          _BusReset 0772                  _EnableInterrupts 0F77  
                    _OutDataStage 06C3                      _NES_read_pad 0689             _ControlTransferBuffer 0049  
               _CtrlTransferStage 003A                       ??_UnSuspend 0070                       ??_ProcessIO 0068  
                __size_of_Suspend 0008                     _EndpointFlags 0E99   ProcessHIDRequest@descriptorType 0071  
               _WaitForSetupStage 0F96                        _ANSELAbits 018C                        _ANSELCbits 018E  
              ?_WaitForSetupStage 0070                          __ptext10 0F7F                          __ptext11 0FB4  
                        __ptext20 0F56                          __ptext12 0F59                          __ptext21 0F8A  
                        __ptext13 0FA4                          __ptext30 0289                          __ptext22 03F6  
                        __ptext14 07E0                          __ptext31 06C3                          __ptext23 0465  
                        __ptext15 0F77                          __ptext32 0772                          __ptext24 00D9  
                        __ptext33 0F96                          __ptext25 0384                          __ptext17 016C  
                        __ptext26 01FE                          __ptext18 0F6F                          __ptext27 04CF  
                        __ptext19 0F67                          __ptext28 0534                          __ptext29 003F  
             ??_WaitForSetupStage 0070      __size_of_NES_GPIO_Initialize 000B               SetFeature@recipient 0072  
                   __size_of_main 0015                 ?_InitializeSystem 0070        __size_of_ProcessHIDRequest 009A  
              ??_InitializeSystem 005C                          int$flags 007E          _StringDescriptorPointers 1012  
       __size_of_HIDInitEndpoints 008B         __end_of_WaitForSetupStage 0FA4                  ??_ReArmInterface 005C  
                ?_PrepareTxBuffer 0070   __size_of_ProcessStandardRequest 0093                  ProcessIO@reading 0069  
           __size_of_StartOfFrame 0003                        _INTCONbits 000B                     ??_InDataStage 0070  
       ProcessControlTransfer@PID 007B                          intlevel1 0000                GetStatus@recipient 0074  
         _ConfigurationDescriptor 0724          __size_of_EnableUSBModule 001A                 __CFG_CLKOUTEN$OFF 0000  
                    _StartOfFrame 0F56              __CFG_CPUDIV$NOCLKDIV 0000                 SetFeature@feature 0073  
                   __pstringtext1 1012                     __pstringtext2 064A                     __pstringtext3 0724  
                   __pstringtext4 078F                     __pstringtext5 07C6                     __pstringtext6 1000  
                   __pstringtext7 1018                    _ResetPPBuffers 0F59                    _HIDPostProcess 0039  
                      _OPTION_REG 0095          __end_of_DeviceDescriptor 1012            _ProcessStandardRequest 00D9  
             __end_of_InDataStage 0309     __size_of_ProcessIncommingData 0001  
