

Microchip MPLAB XC8 Assembler V2.10 build 88905656 
                                                                                               Sun Feb 23 08:39:15 2020

Microchip MPLAB XC8 C Compiler v2.10 (Free license) build 20190730164152 Og1 
     1                           	processor	16F1455
     2                           	opt	pw 120
     3                           	opt	flic
     4                           	psect	idataBANK0,global,class=CODE,delta=2
     5                           	psect	idataBANK1,global,class=CODE,delta=2
     6                           	psect	stringtext1,global,class=STRCODE,delta=2
     7                           	psect	stringtext2,global,class=STRCODE,delta=2
     8                           	psect	stringtext3,global,class=STRCODE,delta=2
     9                           	psect	stringtext4,global,class=STRCODE,delta=2
    10                           	psect	stringtext5,global,class=STRCODE,delta=2
    11                           	psect	stringtext6,global,class=STRCODE,delta=2
    12                           	psect	stringtext7,global,class=STRCODE,delta=2
    13                           	psect	cinit,global,class=CODE,merge=1,delta=2
    14                           	psect	bssCOMMON,global,class=COMMON,space=1,delta=1
    15                           	psect	bssBANK0,global,class=BANK0,space=1,delta=1
    16                           	psect	dataBANK0,global,class=BANK0,space=1,delta=1
    17                           	psect	bssBANK1,global,class=BANK1,space=1,delta=1
    18                           	psect	dataBANK1,global,class=BANK1,space=1,delta=1
    19                           	psect	inittext,global,class=CODE,delta=2
    20                           	psect	clrtext,global,class=CODE,delta=2
    21                           	psect	cstackCOMMON,global,class=COMMON,space=1,delta=1
    22                           	psect	cstackBANK0,global,class=BANK0,space=1,delta=1
    23                           	psect	maintext,global,class=CODE,merge=1,split=1,delta=2
    24                           	psect	text1,local,class=CODE,merge=1,delta=2
    25                           	psect	text2,local,class=CODE,merge=1,delta=2
    26                           	psect	text3,local,class=CODE,merge=1,delta=2,group=1
    27                           	psect	text4,local,class=CODE,merge=1,delta=2
    28                           	psect	text5,local,class=CODE,merge=1,delta=2
    29                           	psect	text6,local,class=CODE,merge=1,delta=2
    30                           	psect	text7,local,class=CODE,merge=1,delta=2
    31                           	psect	text8,local,class=CODE,merge=1,delta=2
    32                           	psect	text9,local,class=CODE,merge=1,delta=2
    33                           	psect	text10,local,class=CODE,merge=1,delta=2
    34                           	psect	text11,local,class=CODE,merge=1,delta=2
    35                           	psect	text12,local,class=CODE,merge=1,delta=2
    36                           	psect	text13,local,class=CODE,merge=1,delta=2
    37                           	psect	text14,local,class=CODE,merge=1,delta=2
    38                           	psect	text15,local,class=CODE,merge=1,delta=2
    39                           	psect	intentry,global,class=CODE,delta=2
    40                           	psect	text17,local,class=CODE,merge=1,delta=2
    41                           	psect	text18,local,class=CODE,merge=1,delta=2
    42                           	psect	text19,local,class=CODE,merge=1,delta=2
    43                           	psect	text20,local,class=CODE,merge=1,delta=2
    44                           	psect	text21,local,class=CODE,merge=1,delta=2
    45                           	psect	text22,local,class=CODE,merge=1,delta=2
    46                           	psect	text23,local,class=CODE,merge=1,delta=2
    47                           	psect	text24,local,class=CODE,merge=1,delta=2
    48                           	psect	text25,local,class=CODE,merge=1,delta=2
    49                           	psect	text26,local,class=CODE,merge=1,delta=2
    50                           	psect	text27,local,class=CODE,merge=1,delta=2
    51                           	psect	text28,local,class=CODE,merge=1,delta=2
    52                           	psect	text29,local,class=CODE,merge=1,delta=2
    53                           	psect	text30,local,class=CODE,merge=1,delta=2
    54                           	psect	text31,local,class=CODE,merge=1,delta=2
    55                           	psect	text32,local,class=CODE,merge=1,delta=2
    56                           	psect	text33,local,class=CODE,merge=1,delta=2
    57                           	dabs	1,0x20,16,_Interfaces
    58                           	dabs	1,0x7E,2
    59  0000                     
    60                           ; Version 2.10
    61                           ; Generated 31/07/2019 GMT
    62                           ; 
    63                           ; Copyright © 2019, Microchip Technology Inc. and its subsidiaries ("Microchip")
    64                           ; All rights reserved.
    65                           ; 
    66                           ; This software is developed by Microchip Technology Inc. and its subsidiaries ("Microch
      +                          ip").
    67                           ; 
    68                           ; Redistribution and use in source and binary forms, with or without modification, are
    69                           ; permitted provided that the following conditions are met:
    70                           ; 
    71                           ;     1. Redistributions of source code must retain the above copyright notice, this lis
      +                          t of
    72                           ;        conditions and the following disclaimer.
    73                           ; 
    74                           ;     2. Redistributions in binary form must reproduce the above copyright notice, this 
      +                          list
    75                           ;        of conditions and the following disclaimer in the documentation and/or other
    76                           ;        materials provided with the distribution.
    77                           ; 
    78                           ;     3. Microchip's name may not be used to endorse or promote products derived from th
      +                          is
    79                           ;        software without specific prior written permission.
    80                           ; 
    81                           ; THIS SOFTWARE IS PROVIDED BY MICROCHIP "AS IS" AND ANY EXPRESS OR IMPLIED WARRANTIES,
    82                           ; INCLUDING, BUT NOT LIMITED TO, THE IMPLIED WARRANTIES OF MERCHANTABILITY AND FITNESS F
      +                          OR
    83                           ; PURPOSE ARE DISCLAIMED.  IN NO EVENT SHALL MICROCHIP BE LIABLE FOR ANY DIRECT, INDIREC
      +                          T,
    84                           ; INCIDENTAL, SPECIAL, EXEMPLARY, OR CONSEQUENTIAL DAMAGES (INCLUDING BUT NOT LIMITED TO
    85                           ; PROCUREMENT OF SUBSTITUTE GOODS OR SERVICES; LOSS OF USE, DATA OR PROFITS; OR BUSINESS
    86                           ; INTERRUPTION) HOWSOEVER CAUSED AND ON ANY THEORY OF LIABILITY, WHETHER IN CONTRACT, ST
      +                          RICT
    87                           ; LIABILITY, OR TORT (INCLUDING NEGLIGENCE OR OTHERWISE) ARISING IN ANY WAY OUT OF THE U
      +                          SE OF
    88                           ; THIS SOFTWARE, EVEN IF ADVISED OF THE POSSIBILITY OF SUCH DAMAGE.
    89                           ; 
    90                           ; 
    91                           ; Code-generator required, PIC16F1455 Definitions
    92                           ; 
    93                           ; SFR Addresses
    94  0000                     	;# 
    95  0001                     	;# 
    96  0002                     	;# 
    97  0003                     	;# 
    98  0004                     	;# 
    99  0005                     	;# 
   100  0006                     	;# 
   101  0007                     	;# 
   102  0008                     	;# 
   103  0009                     	;# 
   104  000A                     	;# 
   105  000B                     	;# 
   106  000C                     	;# 
   107  000E                     	;# 
   108  0011                     	;# 
   109  0012                     	;# 
   110  0015                     	;# 
   111  0016                     	;# 
   112  0016                     	;# 
   113  0017                     	;# 
   114  0018                     	;# 
   115  0019                     	;# 
   116  001A                     	;# 
   117  001B                     	;# 
   118  001C                     	;# 
   119  008C                     	;# 
   120  008E                     	;# 
   121  0091                     	;# 
   122  0092                     	;# 
   123  0095                     	;# 
   124  0096                     	;# 
   125  0097                     	;# 
   126  0098                     	;# 
   127  0099                     	;# 
   128  009A                     	;# 
   129  009B                     	;# 
   130  009B                     	;# 
   131  009C                     	;# 
   132  009D                     	;# 
   133  009E                     	;# 
   134  009F                     	;# 
   135  010C                     	;# 
   136  010E                     	;# 
   137  0111                     	;# 
   138  0112                     	;# 
   139  0113                     	;# 
   140  0114                     	;# 
   141  0115                     	;# 
   142  0116                     	;# 
   143  0117                     	;# 
   144  0118                     	;# 
   145  0119                     	;# 
   146  011D                     	;# 
   147  018C                     	;# 
   148  018E                     	;# 
   149  0191                     	;# 
   150  0191                     	;# 
   151  0192                     	;# 
   152  0193                     	;# 
   153  0193                     	;# 
   154  0194                     	;# 
   155  0195                     	;# 
   156  0196                     	;# 
   157  0197                     	;# 
   158  0199                     	;# 
   159  019A                     	;# 
   160  019B                     	;# 
   161  019B                     	;# 
   162  019C                     	;# 
   163  019D                     	;# 
   164  019E                     	;# 
   165  019F                     	;# 
   166  020C                     	;# 
   167  0211                     	;# 
   168  0211                     	;# 
   169  0212                     	;# 
   170  0212                     	;# 
   171  0213                     	;# 
   172  0213                     	;# 
   173  0214                     	;# 
   174  0214                     	;# 
   175  0215                     	;# 
   176  0215                     	;# 
   177  0215                     	;# 
   178  0216                     	;# 
   179  0216                     	;# 
   180  0217                     	;# 
   181  0217                     	;# 
   182  0391                     	;# 
   183  0392                     	;# 
   184  0393                     	;# 
   185  039A                     	;# 
   186  039B                     	;# 
   187  0611                     	;# 
   188  0612                     	;# 
   189  0613                     	;# 
   190  0613                     	;# 
   191  0614                     	;# 
   192  0615                     	;# 
   193  0616                     	;# 
   194  0616                     	;# 
   195  0691                     	;# 
   196  0692                     	;# 
   197  0693                     	;# 
   198  0694                     	;# 
   199  0695                     	;# 
   200  0E8E                     	;# 
   201  0E8F                     	;# 
   202  0E90                     	;# 
   203  0E91                     	;# 
   204  0E92                     	;# 
   205  0E93                     	;# 
   206  0E94                     	;# 
   207  0E94                     	;# 
   208  0E95                     	;# 
   209  0E96                     	;# 
   210  0E97                     	;# 
   211  0E98                     	;# 
   212  0E99                     	;# 
   213  0E9A                     	;# 
   214  0E9B                     	;# 
   215  0E9C                     	;# 
   216  0E9D                     	;# 
   217  0E9E                     	;# 
   218  0E9F                     	;# 
   219  0FE4                     	;# 
   220  0FE5                     	;# 
   221  0FE6                     	;# 
   222  0FE7                     	;# 
   223  0FE8                     	;# 
   224  0FE9                     	;# 
   225  0FEA                     	;# 
   226  0FEB                     	;# 
   227  0FED                     	;# 
   228  0FEE                     	;# 
   229  0FEF                     	;# 
   230  0000                     	;# 
   231  0001                     	;# 
   232  0002                     	;# 
   233  0003                     	;# 
   234  0004                     	;# 
   235  0005                     	;# 
   236  0006                     	;# 
   237  0007                     	;# 
   238  0008                     	;# 
   239  0009                     	;# 
   240  000A                     	;# 
   241  000B                     	;# 
   242  000C                     	;# 
   243  000E                     	;# 
   244  0011                     	;# 
   245  0012                     	;# 
   246  0015                     	;# 
   247  0016                     	;# 
   248  0016                     	;# 
   249  0017                     	;# 
   250  0018                     	;# 
   251  0019                     	;# 
   252  001A                     	;# 
   253  001B                     	;# 
   254  001C                     	;# 
   255  008C                     	;# 
   256  008E                     	;# 
   257  0091                     	;# 
   258  0092                     	;# 
   259  0095                     	;# 
   260  0096                     	;# 
   261  0097                     	;# 
   262  0098                     	;# 
   263  0099                     	;# 
   264  009A                     	;# 
   265  009B                     	;# 
   266  009B                     	;# 
   267  009C                     	;# 
   268  009D                     	;# 
   269  009E                     	;# 
   270  009F                     	;# 
   271  010C                     	;# 
   272  010E                     	;# 
   273  0111                     	;# 
   274  0112                     	;# 
   275  0113                     	;# 
   276  0114                     	;# 
   277  0115                     	;# 
   278  0116                     	;# 
   279  0117                     	;# 
   280  0118                     	;# 
   281  0119                     	;# 
   282  011D                     	;# 
   283  018C                     	;# 
   284  018E                     	;# 
   285  0191                     	;# 
   286  0191                     	;# 
   287  0192                     	;# 
   288  0193                     	;# 
   289  0193                     	;# 
   290  0194                     	;# 
   291  0195                     	;# 
   292  0196                     	;# 
   293  0197                     	;# 
   294  0199                     	;# 
   295  019A                     	;# 
   296  019B                     	;# 
   297  019B                     	;# 
   298  019C                     	;# 
   299  019D                     	;# 
   300  019E                     	;# 
   301  019F                     	;# 
   302  020C                     	;# 
   303  0211                     	;# 
   304  0211                     	;# 
   305  0212                     	;# 
   306  0212                     	;# 
   307  0213                     	;# 
   308  0213                     	;# 
   309  0214                     	;# 
   310  0214                     	;# 
   311  0215                     	;# 
   312  0215                     	;# 
   313  0215                     	;# 
   314  0216                     	;# 
   315  0216                     	;# 
   316  0217                     	;# 
   317  0217                     	;# 
   318  0391                     	;# 
   319  0392                     	;# 
   320  0393                     	;# 
   321  039A                     	;# 
   322  039B                     	;# 
   323  0611                     	;# 
   324  0612                     	;# 
   325  0613                     	;# 
   326  0613                     	;# 
   327  0614                     	;# 
   328  0615                     	;# 
   329  0616                     	;# 
   330  0616                     	;# 
   331  0691                     	;# 
   332  0692                     	;# 
   333  0693                     	;# 
   334  0694                     	;# 
   335  0695                     	;# 
   336  0E8E                     	;# 
   337  0E8F                     	;# 
   338  0E90                     	;# 
   339  0E91                     	;# 
   340  0E92                     	;# 
   341  0E93                     	;# 
   342  0E94                     	;# 
   343  0E94                     	;# 
   344  0E95                     	;# 
   345  0E96                     	;# 
   346  0E97                     	;# 
   347  0E98                     	;# 
   348  0E99                     	;# 
   349  0E9A                     	;# 
   350  0E9B                     	;# 
   351  0E9C                     	;# 
   352  0E9D                     	;# 
   353  0E9E                     	;# 
   354  0E9F                     	;# 
   355  0FE4                     	;# 
   356  0FE5                     	;# 
   357  0FE6                     	;# 
   358  0FE7                     	;# 
   359  0FE8                     	;# 
   360  0FE9                     	;# 
   361  0FEA                     	;# 
   362  0FEB                     	;# 
   363  0FED                     	;# 
   364  0FEE                     	;# 
   365  0FEF                     	;# 
   366  0000                     	;# 
   367  0001                     	;# 
   368  0002                     	;# 
   369  0003                     	;# 
   370  0004                     	;# 
   371  0005                     	;# 
   372  0006                     	;# 
   373  0007                     	;# 
   374  0008                     	;# 
   375  0009                     	;# 
   376  000A                     	;# 
   377  000B                     	;# 
   378  000C                     	;# 
   379  000E                     	;# 
   380  0011                     	;# 
   381  0012                     	;# 
   382  0015                     	;# 
   383  0016                     	;# 
   384  0016                     	;# 
   385  0017                     	;# 
   386  0018                     	;# 
   387  0019                     	;# 
   388  001A                     	;# 
   389  001B                     	;# 
   390  001C                     	;# 
   391  008C                     	;# 
   392  008E                     	;# 
   393  0091                     	;# 
   394  0092                     	;# 
   395  0095                     	;# 
   396  0096                     	;# 
   397  0097                     	;# 
   398  0098                     	;# 
   399  0099                     	;# 
   400  009A                     	;# 
   401  009B                     	;# 
   402  009B                     	;# 
   403  009C                     	;# 
   404  009D                     	;# 
   405  009E                     	;# 
   406  009F                     	;# 
   407  010C                     	;# 
   408  010E                     	;# 
   409  0111                     	;# 
   410  0112                     	;# 
   411  0113                     	;# 
   412  0114                     	;# 
   413  0115                     	;# 
   414  0116                     	;# 
   415  0117                     	;# 
   416  0118                     	;# 
   417  0119                     	;# 
   418  011D                     	;# 
   419  018C                     	;# 
   420  018E                     	;# 
   421  0191                     	;# 
   422  0191                     	;# 
   423  0192                     	;# 
   424  0193                     	;# 
   425  0193                     	;# 
   426  0194                     	;# 
   427  0195                     	;# 
   428  0196                     	;# 
   429  0197                     	;# 
   430  0199                     	;# 
   431  019A                     	;# 
   432  019B                     	;# 
   433  019B                     	;# 
   434  019C                     	;# 
   435  019D                     	;# 
   436  019E                     	;# 
   437  019F                     	;# 
   438  020C                     	;# 
   439  0211                     	;# 
   440  0211                     	;# 
   441  0212                     	;# 
   442  0212                     	;# 
   443  0213                     	;# 
   444  0213                     	;# 
   445  0214                     	;# 
   446  0214                     	;# 
   447  0215                     	;# 
   448  0215                     	;# 
   449  0215                     	;# 
   450  0216                     	;# 
   451  0216                     	;# 
   452  0217                     	;# 
   453  0217                     	;# 
   454  0391                     	;# 
   455  0392                     	;# 
   456  0393                     	;# 
   457  039A                     	;# 
   458  039B                     	;# 
   459  0611                     	;# 
   460  0612                     	;# 
   461  0613                     	;# 
   462  0613                     	;# 
   463  0614                     	;# 
   464  0615                     	;# 
   465  0616                     	;# 
   466  0616                     	;# 
   467  0691                     	;# 
   468  0692                     	;# 
   469  0693                     	;# 
   470  0694                     	;# 
   471  0695                     	;# 
   472  0E8E                     	;# 
   473  0E8F                     	;# 
   474  0E90                     	;# 
   475  0E91                     	;# 
   476  0E92                     	;# 
   477  0E93                     	;# 
   478  0E94                     	;# 
   479  0E94                     	;# 
   480  0E95                     	;# 
   481  0E96                     	;# 
   482  0E97                     	;# 
   483  0E98                     	;# 
   484  0E99                     	;# 
   485  0E9A                     	;# 
   486  0E9B                     	;# 
   487  0E9C                     	;# 
   488  0E9D                     	;# 
   489  0E9E                     	;# 
   490  0E9F                     	;# 
   491  0FE4                     	;# 
   492  0FE5                     	;# 
   493  0FE6                     	;# 
   494  0FE7                     	;# 
   495  0FE8                     	;# 
   496  0FE9                     	;# 
   497  0FEA                     	;# 
   498  0FEB                     	;# 
   499  0FED                     	;# 
   500  0FEE                     	;# 
   501  0FEF                     	;# 
   502                           
   503                           	psect	idataBANK0
   504  0F5F                     __pidataBANK0:	
   505                           
   506                           ;initializer for _Buffers
   507  0F5F  3408               	retlw	8
   508  0F60  3451               	retlw	low (_HIDTxBuffer| 0)
   509  0F61  3408               	retlw	8
   510  0F62  34BB               	retlw	low (_HIDRxBuffer| 0)
   511                           
   512                           	psect	idataBANK1
   513  07A9                     __pidataBANK1:	
   514                           
   515                           ;initializer for _button_key_maps
   516  07A9  3401               	retlw	1
   517  07AA  3404               	retlw	4
   518  07AB  3400               	retlw	0
   519  07AC  3402               	retlw	2
   520  07AD  3405               	retlw	5
   521  07AE  3400               	retlw	0
   522  07AF  3404               	retlw	4
   523  07B0  3429               	retlw	41
   524  07B1  3400               	retlw	0
   525  07B2  3408               	retlw	8
   526  07B3  3428               	retlw	40
   527  07B4  3400               	retlw	0
   528  07B5  3410               	retlw	16
   529  07B6  3452               	retlw	82
   530  07B7  3400               	retlw	0
   531  07B8  3420               	retlw	32
   532  07B9  3451               	retlw	81
   533  07BA  3400               	retlw	0
   534  07BB  3440               	retlw	64
   535  07BC  3450               	retlw	80
   536  07BD  3400               	retlw	0
   537  07BE  3480               	retlw	128
   538  07BF  344F               	retlw	79
   539  07C0  3400               	retlw	0
   540  07C1  3400               	retlw	0
   541  07C2  3400               	retlw	0
   542  07C3  3400               	retlw	0
   543                           
   544                           	psect	stringtext1
   545  1012                     __pstringtext1:	
   546  1012                     _StringDescriptorPointers:	
   547  1012  3418               	retlw	low (_StringDescriptor0| (0+32768))
   548  1013  3490               	retlw	high (_StringDescriptor0| (0+32768))
   549  1014  34DE               	retlw	low (_StringDescriptor1| (0+32768))
   550  1015  3487               	retlw	high (_StringDescriptor1| (0+32768))
   551  1016  3414               	retlw	low (_StringDescriptor2| (0+32768))
   552  1017  3487               	retlw	high (_StringDescriptor2| (0+32768))
   553  1018                     __end_of_StringDescriptorPointers:	
   554                           
   555                           	psect	stringtext2
   556  063A                     __pstringtext2:	
   557  063A                     _HIDReport:	
   558  063A  3405               	retlw	5
   559  063B  3401               	retlw	1
   560  063C  3409               	retlw	9
   561  063D  3406               	retlw	6
   562  063E  34A1               	retlw	161
   563  063F  3401               	retlw	1
   564  0640  3405               	retlw	5
   565  0641  3407               	retlw	7
   566  0642  3419               	retlw	25
   567  0643  34E0               	retlw	224
   568  0644  3429               	retlw	41
   569  0645  34E7               	retlw	231
   570  0646  3415               	retlw	21
   571  0647  3400               	retlw	0
   572  0648  3425               	retlw	37
   573  0649  3401               	retlw	1
   574  064A  3475               	retlw	117
   575  064B  3401               	retlw	1
   576  064C  3495               	retlw	149
   577  064D  3408               	retlw	8
   578  064E  3481               	retlw	129
   579  064F  3402               	retlw	2
   580  0650  3495               	retlw	149
   581  0651  3401               	retlw	1
   582  0652  3475               	retlw	117
   583  0653  3408               	retlw	8
   584  0654  3481               	retlw	129
   585  0655  3403               	retlw	3
   586  0656  3495               	retlw	149
   587  0657  3405               	retlw	5
   588  0658  3475               	retlw	117
   589  0659  3401               	retlw	1
   590  065A  3405               	retlw	5
   591  065B  3408               	retlw	8
   592  065C  3419               	retlw	25
   593  065D  3401               	retlw	1
   594  065E  3429               	retlw	41
   595  065F  3405               	retlw	5
   596  0660  3491               	retlw	145
   597  0661  3402               	retlw	2
   598  0662  3495               	retlw	149
   599  0663  3401               	retlw	1
   600  0664  3475               	retlw	117
   601  0665  3403               	retlw	3
   602  0666  3491               	retlw	145
   603  0667  3403               	retlw	3
   604  0668  3495               	retlw	149
   605  0669  3406               	retlw	6
   606  066A  3475               	retlw	117
   607  066B  3408               	retlw	8
   608  066C  3415               	retlw	21
   609  066D  3400               	retlw	0
   610  066E  3425               	retlw	37
   611  066F  3465               	retlw	101
   612  0670  3405               	retlw	5
   613  0671  3407               	retlw	7
   614  0672  3419               	retlw	25
   615  0673  3400               	retlw	0
   616  0674  3429               	retlw	41
   617  0675  3465               	retlw	101
   618  0676  3481               	retlw	129
   619  0677  3400               	retlw	0
   620  0678  34C0               	retlw	192
   621  0679                     __end_of_HIDReport:	
   622                           
   623                           	psect	stringtext3
   624  0714                     __pstringtext3:	
   625  0714                     _StringDescriptor2:	
   626  0714  342A               	retlw	42
   627  0715  3403               	retlw	3
   628  0716  3431               	retlw	49
   629  0717  3400               	retlw	0
   630  0718  3436               	retlw	54
   631  0719  3400               	retlw	0
   632  071A  3446               	retlw	70
   633  071B  3400               	retlw	0
   634  071C  3431               	retlw	49
   635  071D  3400               	retlw	0
   636  071E  3434               	retlw	52
   637  071F  3400               	retlw	0
   638  0720  3435               	retlw	53
   639  0721  3400               	retlw	0
   640  0722  3435               	retlw	53
   641  0723  3400               	retlw	0
   642  0724  3420               	retlw	32
   643  0725  3400               	retlw	0
   644  0726  3448               	retlw	72
   645  0727  3400               	retlw	0
   646  0728  3449               	retlw	73
   647  0729  3400               	retlw	0
   648  072A  3444               	retlw	68
   649  072B  3400               	retlw	0
   650  072C  3420               	retlw	32
   651  072D  3400               	retlw	0
   652  072E  344B               	retlw	75
   653  072F  3400               	retlw	0
   654  0730  3465               	retlw	101
   655  0731  3400               	retlw	0
   656  0732  3479               	retlw	121
   657  0733  3400               	retlw	0
   658  0734  3462               	retlw	98
   659  0735  3400               	retlw	0
   660  0736  346F               	retlw	111
   661  0737  3400               	retlw	0
   662  0738  3461               	retlw	97
   663  0739  3400               	retlw	0
   664  073A  3472               	retlw	114
   665  073B  3400               	retlw	0
   666  073C  3464               	retlw	100
   667  073D  3400               	retlw	0
   668  073E                     __end_of_StringDescriptor2:	
   669                           
   670                           	psect	stringtext4
   671  073E                     __pstringtext4:	
   672  073E                     _ConfigurationDescriptor:	
   673  073E  3409               	retlw	9
   674  073F  3402               	retlw	2
   675  0740  3429               	retlw	41
   676  0741  3400               	retlw	0
   677  0742  3401               	retlw	1
   678  0743  3401               	retlw	1
   679  0744  3400               	retlw	0
   680  0745  34A0               	retlw	160
   681  0746  3432               	retlw	50
   682  0747  3409               	retlw	9
   683  0748  3404               	retlw	4
   684  0749  3400               	retlw	0
   685  074A  3400               	retlw	0
   686  074B  3402               	retlw	2
   687  074C  3403               	retlw	3
   688  074D  3401               	retlw	1
   689  074E  3401               	retlw	1
   690  074F  3400               	retlw	0
   691  0750  3409               	retlw	9
   692  0751  3421               	retlw	33
   693  0752  3411               	retlw	17
   694  0753  3401               	retlw	1
   695  0754  3400               	retlw	0
   696  0755  3401               	retlw	1
   697  0756  3422               	retlw	34
   698  0757  343F               	retlw	63
   699  0758  3400               	retlw	0
   700  0759  3407               	retlw	7
   701  075A  3405               	retlw	5
   702  075B  3481               	retlw	129
   703  075C  3403               	retlw	3
   704  075D  3408               	retlw	8
   705  075E  3400               	retlw	0
   706  075F  3401               	retlw	1
   707  0760  3407               	retlw	7
   708  0761  3405               	retlw	5
   709  0762  3401               	retlw	1
   710  0763  3403               	retlw	3
   711  0764  3408               	retlw	8
   712  0765  3400               	retlw	0
   713  0766  3401               	retlw	1
   714  0767                     __end_of_ConfigurationDescriptor:	
   715                           
   716                           	psect	stringtext5
   717  07DE                     __pstringtext5:	
   718  07DE                     _StringDescriptor1:	
   719  07DE  3418               	retlw	24
   720  07DF  3403               	retlw	3
   721  07E0  3444               	retlw	68
   722  07E1  3400               	retlw	0
   723  07E2  3449               	retlw	73
   724  07E3  3400               	retlw	0
   725  07E4  3459               	retlw	89
   726  07E5  3400               	retlw	0
   727  07E6  3420               	retlw	32
   728  07E7  3400               	retlw	0
   729  07E8  3444               	retlw	68
   730  07E9  3400               	retlw	0
   731  07EA  3465               	retlw	101
   732  07EB  3400               	retlw	0
   733  07EC  3476               	retlw	118
   734  07ED  3400               	retlw	0
   735  07EE  3469               	retlw	105
   736  07EF  3400               	retlw	0
   737  07F0  3463               	retlw	99
   738  07F1  3400               	retlw	0
   739  07F2  3465               	retlw	101
   740  07F3  3400               	retlw	0
   741  07F4  3473               	retlw	115
   742  07F5  3400               	retlw	0
   743  07F6                     __end_of_StringDescriptor1:	
   744                           
   745                           	psect	stringtext6
   746  1000                     __pstringtext6:	
   747  1000                     _DeviceDescriptor:	
   748  1000  3412               	retlw	18
   749  1001  3401               	retlw	1
   750  1002  3400               	retlw	0
   751  1003  3402               	retlw	2
   752  1004  3400               	retlw	0
   753  1005  3400               	retlw	0
   754  1006  3400               	retlw	0
   755  1007  3408               	retlw	8
   756  1008  34D8               	retlw	216
   757  1009  3404               	retlw	4
   758  100A  34A6               	retlw	166
   759  100B  3401               	retlw	1
   760  100C  3401               	retlw	1
   761  100D  3400               	retlw	0
   762  100E  3401               	retlw	1
   763  100F  3402               	retlw	2
   764  1010  3400               	retlw	0
   765  1011  3401               	retlw	1
   766  1012                     __end_of_DeviceDescriptor:	
   767                           
   768                           	psect	stringtext7
   769  1018                     __pstringtext7:	
   770  1018                     _StringDescriptor0:	
   771  1018  3404               	retlw	4
   772  1019  3403               	retlw	3
   773  101A  3409               	retlw	9
   774  101B  3404               	retlw	4
   775  101C                     __end_of_StringDescriptor0:	
   776  000E                     _PORTCbits	set	14
   777  000C                     _PORTAbits	set	12
   778  000B                     _INTCONbits	set	11
   779  0012                     _PIR2bits	set	18
   780  008C                     _TRISAbits	set	140
   781  008E                     _TRISCbits	set	142
   782  0092                     _PIE2bits	set	146
   783  0095                     _OPTION_REG	set	149
   784  0099                     _OSCCON	set	153
   785  0098                     _OSCTUNE	set	152
   786  010E                     _LATCbits	set	270
   787  010E                     _LATC	set	270
   788  018C                     _ANSELAbits	set	396
   789  018E                     _ANSELCbits	set	398
   790  018E                     _ANSELC	set	398
   791  018C                     _ANSELA	set	396
   792  039B                     _ACTCON	set	923
   793  0E99                     _EndpointFlags	set	3737
   794  0E98                     _UEP0	set	3736
   795  0E97                     _UEIE	set	3735
   796  0E98                     _UEP0bits	set	3736
   797  0E90                     _UIRbits	set	3728
   798  0E92                     _UIEbits	set	3730
   799  0E90                     _UIR	set	3728
   800  0E8E                     _UCON	set	3726
   801  0E93                     _UEIR	set	3731
   802  0E91                     _UCFG	set	3729
   803  0E96                     _UADDR	set	3734
   804  0E8F                     _USTAT	set	3727
   805  0E8E                     _UCONbits	set	3726
   806  0E92                     _UIE	set	3730
   807                           
   808                           ; #config settings
   809  0000                     
   810                           	psect	cinit
   811  0012                     start_initialization:	
   812  0012                     __initialization:	
   813                           
   814                           ; Initialize objects allocated to BANK0
   815  0012  305F               	movlw	low __pidataBANK0
   816  0013  0084               	movwf	4
   817  0014  308F               	movlw	(high __pidataBANK0)| (0+128)
   818  0015  0085               	movwf	5
   819  0016  3069               	movlw	low __pdataBANK0
   820  0017  0086               	movwf	6
   821  0018  3000               	movlw	high __pdataBANK0
   822  0019  0087               	movwf	7
   823  001A  3004               	movlw	4
   824  001B  318F  2769  3180   	fcall	init_ram
   825                           
   826                           ; Initialize objects allocated to BANK1
   827  001E  30A9               	movlw	low __pidataBANK1
   828  001F  0084               	movwf	4
   829  0020  3087               	movlw	(high __pidataBANK1)| (0+128)
   830  0021  0085               	movwf	5
   831  0022  30A0               	movlw	low __pdataBANK1
   832  0023  0086               	movwf	6
   833  0024  3000               	movlw	high __pdataBANK1
   834  0025  0087               	movwf	7
   835  0026  301B               	movlw	27
   836  0027  318F  2769  3180   	fcall	init_ram
   837                           
   838                           ; Clear objects allocated to COMMON
   839  002A  01FD               	clrf	__pbssCOMMON& (0+127)
   840                           
   841                           ; Clear objects allocated to BANK0
   842  002B  3030               	movlw	low __pbssBANK0
   843  002C  0084               	movwf	4
   844  002D  3000               	movlw	high __pbssBANK0
   845  002E  0085               	movwf	5
   846  002F  302C               	movlw	44
   847  0030  318F  2763  3180   	fcall	clear_ram0
   848                           
   849                           ; Clear objects allocated to BANK1
   850  0033  30BB               	movlw	low __pbssBANK1
   851  0034  0084               	movwf	4
   852  0035  3000               	movlw	high __pbssBANK1
   853  0036  0085               	movwf	5
   854  0037  3008               	movlw	8
   855  0038  318F  2763  3180   	fcall	clear_ram0
   856  003B                     end_of_initialization:	
   857                           ;End of C runtime variable initialization code
   858                           
   859  003B                     __end_of__initialization:	
   860  003B  107E               	bcf	int$flags,0	;clear compiler interrupt flag (level 1)
   861  003C  0020               	movlb	0
   862  003D  318F  2FD5         	ljmp	_main	;jump to C main() function
   863                           
   864                           	psect	bssCOMMON
   865  007D                     __pbssCOMMON:	
   866  007D                     _inPtr:	
   867  007D                     	ds	1
   868                           
   869                           	psect	bssBANK0
   870  0030                     __pbssBANK0:	
   871  0030                     _wCount:	
   872  0030                     	ds	2
   873  0032                     _ROMoutPtr:	
   874  0032                     	ds	2
   875  0034                     _last_reading:	
   876  0034                     	ds	1
   877  0035                     _transferType:	
   878  0035                     	ds	1
   879  0036                     _outPtr:	
   880  0036                     	ds	1
   881  0037                     _HidRxLen:	
   882  0037                     	ds	1
   883  0038                     _RequestHandled:	
   884  0038                     	ds	1
   885  0039                     _HIDPostProcess:	
   886  0039                     	ds	1
   887  003A                     _CtrlTransferStage:	
   888  003A                     	ds	1
   889  003B                     _SelfPowered:	
   890  003B                     	ds	1
   891  003C                     _DeviceAddress:	
   892  003C                     	ds	1
   893  003D                     _RemoteWakeup:	
   894  003D                     	ds	1
   895  003E                     _last_keypad_reading:	
   896  003E                     	ds	1
   897  003F                     _DeviceState:	
   898  003F                     	ds	1
   899  0040                     _SetupPacket:	
   900  0040                     	ds	9
   901  0049                     _ControlTransferBuffer:	
   902  0049                     	ds	8
   903  0051                     _HIDTxBuffer:	
   904  0051                     	ds	8
   905  0059                     _HidProtocol:	
   906  0059                     	ds	1
   907  005A                     _HidIdleRate:	
   908  005A                     	ds	1
   909  005B                     _CurrentConfiguration:	
   910  005B                     	ds	1
   911                           
   912                           	psect	dataBANK0
   913  0069                     __pdataBANK0:	
   914  0069                     _Buffers:	
   915  0069                     	ds	4
   916                           
   917                           	psect	bssBANK1
   918  00BB                     __pbssBANK1:	
   919  00BB                     _HIDRxBuffer:	
   920  00BB                     	ds	8
   921                           
   922                           	psect	dataBANK1
   923  00A0                     __pdataBANK1:	
   924  00A0                     _button_key_maps:	
   925  00A0                     	ds	27
   926                           
   927                           	psect	inittext
   928  0F69                     init_ram:	
   929  0F69  00FE               	movwf	btemp
   930  0F6A                     initloop:	
   931  0F6A  0012               	moviw fsr0++
   932  0F6B  001E               	movwi fsr1++
   933  0F6C  0BFE               	decfsz	btemp,f
   934  0F6D  2F6A               	goto	initloop
   935  0F6E  3400               	retlw	0
   936                           
   937                           	psect	clrtext
   938  0F63                     clear_ram0:	
   939                           ;	Called with FSR0 containing the base address, and
   940                           ;	WREG with the size to clear
   941                           
   942  0F63  0064               	clrwdt	;clear the watchdog before getting into this loop
   943  0F64                     clrloop0:	
   944  0F64  0180               	clrf	0	;clear RAM location pointed to by FSR
   945  0F65  3101               	addfsr 0,1
   946  0F66  0B89               	decfsz	9,f	;Have we reached the end of clearing yet?
   947  0F67  2F64               	goto	clrloop0	;have we reached the end yet?
   948  0F68  3400               	retlw	0	;all done for this memory range, return
   949                           
   950                           	psect	cstackCOMMON
   951  0070                     __pcstackCOMMON:	
   952  0070                     ?_ProcessUSBTransactions:	
   953  0070                     ?_IsUsbDataAvaialble:	
   954                           ; 1 bytes @ 0x0
   955                           
   956  0070                     ?_ReArmInterface:	
   957                           ; 1 bytes @ 0x0
   958                           
   959  0070                     ?_NES_read_pad:	
   960                           ; 1 bytes @ 0x0
   961                           
   962  0070                     ?_HIDSend:	
   963                           ; 1 bytes @ 0x0
   964                           
   965  0070                     ?_NES_GPIO_Initialize:	
   966                           ; 1 bytes @ 0x0
   967                           
   968  0070                     ?_InitializeUSB:	
   969                           ; 1 bytes @ 0x0
   970                           
   971  0070                     ?_EnableUSBModule:	
   972                           ; 1 bytes @ 0x0
   973                           
   974  0070                     ?_ISRCode:	
   975                           ; 1 bytes @ 0x0
   976                           
   977  0070                     ?_InitializeSystem:	
   978                           ; 1 bytes @ 0x0
   979                           
   980  0070                     ?_EnableInterrupts:	
   981                           ; 1 bytes @ 0x0
   982                           
   983  0070                     ?_PrepareTxBuffer:	
   984                           ; 1 bytes @ 0x0
   985                           
   986  0070                     ?_ProcessIncommingData:	
   987                           ; 1 bytes @ 0x0
   988                           
   989  0070                     ?_CheckUsb:	
   990                           ; 1 bytes @ 0x0
   991                           
   992  0070                     ?_ProcessIO:	
   993                           ; 1 bytes @ 0x0
   994                           
   995  0070                     ?_main:	
   996                           ; 1 bytes @ 0x0
   997                           
   998  0070                     ?_HIDInitEndpoints:	
   999                           ; 1 bytes @ 0x0
  1000                           
  1001  0070                     ??_HIDInitEndpoints:	
  1002                           ; 1 bytes @ 0x0
  1003                           
  1004  0070                     ?_ProcessHIDRequest:	
  1005                           ; 1 bytes @ 0x0
  1006                           
  1007  0070                     ??_ProcessHIDRequest:	
  1008                           ; 1 bytes @ 0x0
  1009                           
  1010  0070                     ?_GetDescriptor:	
  1011                           ; 1 bytes @ 0x0
  1012                           
  1013  0070                     ??_GetDescriptor:	
  1014                           ; 1 bytes @ 0x0
  1015                           
  1016  0070                     ?_GetStatus:	
  1017                           ; 1 bytes @ 0x0
  1018                           
  1019  0070                     ??_GetStatus:	
  1020                           ; 1 bytes @ 0x0
  1021                           
  1022  0070                     ?_SetFeature:	
  1023                           ; 1 bytes @ 0x0
  1024                           
  1025  0070                     ??_SetFeature:	
  1026                           ; 1 bytes @ 0x0
  1027                           
  1028  0070                     ?_ProcessStandardRequest:	
  1029                           ; 1 bytes @ 0x0
  1030                           
  1031  0070                     ?_InDataStage:	
  1032                           ; 1 bytes @ 0x0
  1033                           
  1034  0070                     ??_InDataStage:	
  1035                           ; 1 bytes @ 0x0
  1036                           
  1037  0070                     ?_OutDataStage:	
  1038                           ; 1 bytes @ 0x0
  1039                           
  1040  0070                     ??_OutDataStage:	
  1041                           ; 1 bytes @ 0x0
  1042                           
  1043  0070                     ?_SetupStage:	
  1044                           ; 1 bytes @ 0x0
  1045                           
  1046  0070                     ?_WaitForSetupStage:	
  1047                           ; 1 bytes @ 0x0
  1048                           
  1049  0070                     ??_WaitForSetupStage:	
  1050                           ; 1 bytes @ 0x0
  1051                           
  1052  0070                     ?_ProcessControlTransfer:	
  1053                           ; 1 bytes @ 0x0
  1054                           
  1055  0070                     ?_ResetPPBuffers:	
  1056                           ; 1 bytes @ 0x0
  1057                           
  1058  0070                     ?_UnSuspend:	
  1059                           ; 1 bytes @ 0x0
  1060                           
  1061  0070                     ??_UnSuspend:	
  1062                           ; 1 bytes @ 0x0
  1063                           
  1064  0070                     ?_StartOfFrame:	
  1065                           ; 1 bytes @ 0x0
  1066                           
  1067  0070                     ??_StartOfFrame:	
  1068                           ; 1 bytes @ 0x0
  1069                           
  1070  0070                     ?_Stall:	
  1071                           ; 1 bytes @ 0x0
  1072                           
  1073  0070                     ?_Suspend:	
  1074                           ; 1 bytes @ 0x0
  1075                           
  1076  0070                     ??_Suspend:	
  1077                           ; 1 bytes @ 0x0
  1078                           
  1079  0070                     ?_BusReset:	
  1080                           ; 1 bytes @ 0x0
  1081                           
  1082                           
  1083                           ; 1 bytes @ 0x0
  1084  0070                     	ds	1
  1085  0071                     ??_Stall:	
  1086  0071                     ??_BusReset:	
  1087                           ; 1 bytes @ 0x1
  1088                           
  1089  0071                     ProcessHIDRequest@descriptorType:	
  1090                           ; 1 bytes @ 0x1
  1091                           
  1092  0071                     OutDataStage@i:	
  1093                           ; 1 bytes @ 0x1
  1094                           
  1095                           
  1096                           ; 2 bytes @ 0x1
  1097  0071                     	ds	1
  1098  0072                     ProcessHIDRequest@bRequest:	
  1099  0072                     GetStatus@endpointNum:	
  1100                           ; 1 bytes @ 0x2
  1101                           
  1102  0072                     SetFeature@recipient:	
  1103                           ; 1 bytes @ 0x2
  1104                           
  1105  0072                     InDataStage@i:	
  1106                           ; 1 bytes @ 0x2
  1107                           
  1108                           
  1109                           ; 1 bytes @ 0x2
  1110  0072                     	ds	1
  1111  0073                     GetDescriptor@descriptorIndex:	
  1112  0073                     GetStatus@endpointDir:	
  1113                           ; 1 bytes @ 0x3
  1114                           
  1115  0073                     SetFeature@feature:	
  1116                           ; 1 bytes @ 0x3
  1117                           
  1118  0073                     InDataStage@bufferSize:	
  1119                           ; 1 bytes @ 0x3
  1120                           
  1121  0073                     OutDataStage@bufferSize:	
  1122                           ; 2 bytes @ 0x3
  1123                           
  1124                           
  1125                           ; 2 bytes @ 0x3
  1126  0073                     	ds	1
  1127  0074                     HIDInitEndpoints@i:	
  1128  0074                     GetDescriptor@descriptorType:	
  1129                           ; 1 bytes @ 0x4
  1130                           
  1131  0074                     GetStatus@recipient:	
  1132                           ; 1 bytes @ 0x4
  1133                           
  1134  0074                     SetFeature@endpointNum:	
  1135                           ; 1 bytes @ 0x4
  1136                           
  1137                           
  1138                           ; 1 bytes @ 0x4
  1139  0074                     	ds	1
  1140  0075                     SetFeature@endpointDir:	
  1141                           
  1142                           ; 1 bytes @ 0x5
  1143  0075                     	ds	1
  1144  0076                     ??_ProcessStandardRequest:	
  1145                           
  1146                           ; 1 bytes @ 0x6
  1147  0076                     	ds	1
  1148  0077                     ProcessStandardRequest@request:	
  1149                           
  1150                           ; 1 bytes @ 0x7
  1151  0077                     	ds	1
  1152  0078                     ??_SetupStage:	
  1153                           
  1154                           ; 1 bytes @ 0x8
  1155  0078                     	ds	1
  1156  0079                     ??_ProcessControlTransfer:	
  1157                           
  1158                           ; 1 bytes @ 0x9
  1159  0079                     	ds	2
  1160  007B                     ProcessControlTransfer@PID:	
  1161                           
  1162                           ; 1 bytes @ 0xB
  1163  007B                     	ds	1
  1164  007C                     ??_ProcessUSBTransactions:	
  1165                           
  1166                           ; 1 bytes @ 0xC
  1167  007C                     	ds	1
  1168  007D                     ??_ISRCode:	
  1169                           
  1170                           	psect	cstackBANK0
  1171  005C                     __pcstackBANK0:	
  1172                           ; 1 bytes @ 0xD
  1173                           
  1174  005C                     ??_IsUsbDataAvaialble:	
  1175  005C                     ??_ReArmInterface:	
  1176                           ; 1 bytes @ 0x0
  1177                           
  1178  005C                     ??_NES_read_pad:	
  1179                           ; 1 bytes @ 0x0
  1180                           
  1181  005C                     ??_HIDSend:	
  1182                           ; 1 bytes @ 0x0
  1183                           
  1184  005C                     ??_NES_GPIO_Initialize:	
  1185                           ; 1 bytes @ 0x0
  1186                           
  1187  005C                     ??_InitializeUSB:	
  1188                           ; 1 bytes @ 0x0
  1189                           
  1190  005C                     ??_EnableUSBModule:	
  1191                           ; 1 bytes @ 0x0
  1192                           
  1193  005C                     ??_InitializeSystem:	
  1194                           ; 1 bytes @ 0x0
  1195                           
  1196  005C                     ??_EnableInterrupts:	
  1197                           ; 1 bytes @ 0x0
  1198                           
  1199  005C                     ??_ProcessIncommingData:	
  1200                           ; 1 bytes @ 0x0
  1201                           
  1202  005C                     ??_ResetPPBuffers:	
  1203                           ; 1 bytes @ 0x0
  1204                           
  1205  005C                     ?___bmul:	
  1206                           ; 1 bytes @ 0x0
  1207                           
  1208  005C                     ___bmul@multiplicand:	
  1209                           ; 1 bytes @ 0x0
  1210                           
  1211                           
  1212                           ; 1 bytes @ 0x0
  1213  005C                     	ds	1
  1214  005D                     ??___bmul:	
  1215  005D                     IsUsbDataAvaialble@InterfaceNo:	
  1216                           ; 1 bytes @ 0x1
  1217                           
  1218                           
  1219                           ; 1 bytes @ 0x1
  1220  005D                     	ds	1
  1221  005E                     NES_read_pad@output:	
  1222  005E                     ___bmul@product:	
  1223                           ; 1 bytes @ 0x2
  1224                           
  1225                           
  1226                           ; 1 bytes @ 0x2
  1227  005E                     	ds	1
  1228  005F                     ReArmInterface@InterfaceNo:	
  1229  005F                     HIDSend@InterfaceNo:	
  1230                           ; 1 bytes @ 0x3
  1231                           
  1232  005F                     ___bmul@multiplier:	
  1233                           ; 1 bytes @ 0x3
  1234                           
  1235  005F                     NES_read_pad@i:	
  1236                           ; 1 bytes @ 0x3
  1237                           
  1238                           
  1239                           ; 2 bytes @ 0x3
  1240  005F                     	ds	1
  1241  0060                     ??_PrepareTxBuffer:	
  1242  0060                     ??_CheckUsb:	
  1243                           ; 1 bytes @ 0x4
  1244                           
  1245                           
  1246                           ; 1 bytes @ 0x4
  1247  0060                     	ds	2
  1248  0062                     PrepareTxBuffer@max_buttons:	
  1249                           
  1250                           ; 1 bytes @ 0x6
  1251  0062                     	ds	1
  1252  0063                     PrepareTxBuffer@keypad_reading:	
  1253                           
  1254                           ; 1 bytes @ 0x7
  1255  0063                     	ds	1
  1256  0064                     PrepareTxBuffer@index:	
  1257                           
  1258                           ; 1 bytes @ 0x8
  1259  0064                     	ds	1
  1260  0065                     PrepareTxBuffer@n:	
  1261                           
  1262                           ; 1 bytes @ 0x9
  1263  0065                     	ds	1
  1264  0066                     PrepareTxBuffer@i:	
  1265                           
  1266                           ; 1 bytes @ 0xA
  1267  0066                     	ds	1
  1268  0067                     ??_ProcessIO:	
  1269                           
  1270                           ; 1 bytes @ 0xB
  1271  0067                     	ds	1
  1272  0068                     ProcessIO@reading:	
  1273                           
  1274                           ; 1 bytes @ 0xC
  1275  0068                     	ds	1
  1276  0069                     ??_main:	
  1277                           
  1278                           	psect	maintext
  1279  0FD5                     __pmaintext:	
  1280                           ; 1 bytes @ 0xD
  1281 ;;
  1282 ;;Main: autosize = 0, tempsize = 0, incstack = 0, save=0
  1283 ;;
  1284 ;; *************** function _main *****************
  1285 ;; Defined at:
  1286 ;;		line 154 in file "Source/Main.c"
  1287 ;; Parameters:    Size  Location     Type
  1288 ;;		None
  1289 ;; Auto vars:     Size  Location     Type
  1290 ;;		None
  1291 ;; Return value:  Size  Location     Type
  1292 ;;                  1    wreg      void 
  1293 ;; Registers used:
  1294 ;;		wreg, fsr1l, fsr1h, status,2, status,0, pclath, cstack
  1295 ;; Tracked objects:
  1296 ;;		On entry : B1F/0
  1297 ;;		On exit  : 0/0
  1298 ;;		Unchanged: 0/0
  1299 ;; Data sizes:     COMMON   BANK0   BANK1   BANK2   BANK3   BANK4   BANK5   BANK6   BANK7   BANK8   BANK9  BANK10  BANK1
      +1  BANK12
  1300 ;;      Params:         0       0       0       0       0       0       0       0       0       0       0       0       
      +0       0
  1301 ;;      Locals:         0       0       0       0       0       0       0       0       0       0       0       0       
      +0       0
  1302 ;;      Temps:          0       0       0       0       0       0       0       0       0       0       0       0       
      +0       0
  1303 ;;      Totals:         0       0       0       0       0       0       0       0       0       0       0       0       
      +0       0
  1304 ;;Total ram usage:        0 bytes
  1305 ;; Hardware stack levels required when called:    9
  1306 ;; This function calls:
  1307 ;;		_EnableInterrupts
  1308 ;;		_EnableUSBModule
  1309 ;;		_InitializeSystem
  1310 ;;		_InitializeUSB
  1311 ;;		_NES_GPIO_Initialize
  1312 ;;		_ProcessIO
  1313 ;; This function is called by:
  1314 ;;		Startup code after reset
  1315 ;; This function uses a non-reentrant model
  1316 ;;
  1317                           
  1318                           
  1319                           ;psect for function _main
  1320  0FD5                     _main:	
  1321  0FD5                     l2470:	
  1322                           ;incstack = 0
  1323                           ; Regs used in _main: [wreg+fsr1l+fsr1h+status,2+status,0+pclath+cstack]
  1324                           
  1325  0FD5  318F  27A4  318F   	fcall	_InitializeSystem
  1326  0FD8                     l2472:	
  1327  0FD8  318F  277F  318F   	fcall	_NES_GPIO_Initialize
  1328  0FDB                     l2474:	
  1329  0FDB  318F  27B4  318F   	fcall	_InitializeUSB
  1330  0FDE                     l2476:	
  1331  0FDE  3187  27C4  318F   	fcall	_EnableUSBModule
  1332  0FE1                     l2478:	
  1333  0FE1  3187  27F6  318F   	fcall	_EnableInterrupts
  1334  0FE4                     l2480:	
  1335  0FE4  3186  26E9  318F   	fcall	_ProcessIO
  1336  0FE7  2FE4               	goto	l2480
  1337  0FE8  3180  2810         	ljmp	start
  1338  0FEA                     __end_of_main:	
  1339                           
  1340                           	psect	text1
  1341  06E9                     __ptext1:	
  1342 ;; *************** function _ProcessIO *****************
  1343 ;; Defined at:
  1344 ;;		line 137 in file "Source/Main.c"
  1345 ;; Parameters:    Size  Location     Type
  1346 ;;		None
  1347 ;; Auto vars:     Size  Location     Type
  1348 ;;  reading         1   12[BANK0 ] unsigned char 
  1349 ;; Return value:  Size  Location     Type
  1350 ;;                  1    wreg      void 
  1351 ;; Registers used:
  1352 ;;		wreg, fsr1l, fsr1h, status,2, status,0, pclath, cstack
  1353 ;; Tracked objects:
  1354 ;;		On entry : 0/0
  1355 ;;		On exit  : 0/0
  1356 ;;		Unchanged: 0/0
  1357 ;; Data sizes:     COMMON   BANK0   BANK1   BANK2   BANK3   BANK4   BANK5   BANK6   BANK7   BANK8   BANK9  BANK10  BANK1
      +1  BANK12
  1358 ;;      Params:         0       0       0       0       0       0       0       0       0       0       0       0       
      +0       0
  1359 ;;      Locals:         0       1       0       0       0       0       0       0       0       0       0       0       
      +0       0
  1360 ;;      Temps:          0       1       0       0       0       0       0       0       0       0       0       0       
      +0       0
  1361 ;;      Totals:         0       2       0       0       0       0       0       0       0       0       0       0       
      +0       0
  1362 ;;Total ram usage:        2 bytes
  1363 ;; Hardware stack levels used:    1
  1364 ;; Hardware stack levels required when called:    8
  1365 ;; This function calls:
  1366 ;;		_CheckUsb
  1367 ;;		_HIDSend
  1368 ;;		_NES_read_pad
  1369 ;;		_PrepareTxBuffer
  1370 ;; This function is called by:
  1371 ;;		_main
  1372 ;; This function uses a non-reentrant model
  1373 ;;
  1374                           
  1375                           
  1376                           ;psect for function _ProcessIO
  1377  06E9                     _ProcessIO:	
  1378  06E9                     l2416:	
  1379                           ;incstack = 0
  1380                           ; Regs used in _ProcessIO: [wreg+fsr1l+fsr1h+status,2+status,0+pclath+cstack]
  1381                           
  1382  06E9  3005               	movlw	5
  1383  06EA  0020               	movlb	0	; select bank0
  1384  06EB  063F               	xorwf	_DeviceState,w
  1385  06EC  1D03               	btfss	3,2
  1386  06ED  2EEF               	goto	u2591
  1387  06EE  2EF0               	goto	u2590
  1388  06EF                     u2591:	
  1389  06EF  2EF8               	goto	l2422
  1390  06F0                     u2590:	
  1391  06F0                     l2418:	
  1392  06F0  003D               	movlb	29	; select bank29
  1393  06F1  188E               	btfsc	14,1	;volatile
  1394  06F2  2EF4               	goto	u2601
  1395  06F3  2EF5               	goto	u2600
  1396  06F4                     u2601:	
  1397  06F4  2EF8               	goto	l2422
  1398  06F5                     u2600:	
  1399  06F5                     l2420:	
  1400  06F5  318F  27C4  3186   	fcall	_CheckUsb
  1401  06F8                     l2422:	
  1402  06F8  3186  2679  3186   	fcall	_NES_read_pad
  1403  06FB  0020               	movlb	0	; select bank0
  1404  06FC  00E7               	movwf	??_ProcessIO
  1405  06FD  0867               	movf	??_ProcessIO,w
  1406  06FE  00E8               	movwf	ProcessIO@reading
  1407  06FF                     l2424:	
  1408  06FF  0868               	movf	ProcessIO@reading,w
  1409  0700  063E               	xorwf	_last_keypad_reading,w
  1410  0701  1D03               	skipz
  1411  0702  2F04               	goto	u2611
  1412  0703  2F05               	goto	u2610
  1413  0704                     u2611:	
  1414  0704  2F06               	goto	l2428
  1415  0705                     u2610:	
  1416  0705  2F13               	goto	l108
  1417  0706                     l2428:	
  1418  0706  0868               	movf	ProcessIO@reading,w
  1419  0707  3183  23EA  3186   	fcall	_PrepareTxBuffer
  1420  070A  3000               	movlw	0
  1421  070B  3185  2585  3186   	fcall	_HIDSend
  1422  070E                     l2430:	
  1423  070E  0020               	movlb	0	; select bank0
  1424  070F  0868               	movf	ProcessIO@reading,w
  1425  0710  00E7               	movwf	??_ProcessIO
  1426  0711  0867               	movf	??_ProcessIO,w
  1427  0712  00BE               	movwf	_last_keypad_reading
  1428  0713                     l108:	
  1429  0713  0008               	return
  1430  0714                     __end_of_ProcessIO:	
  1431                           
  1432                           	psect	text2
  1433  03EA                     __ptext2:	
  1434 ;; *************** function _PrepareTxBuffer *****************
  1435 ;; Defined at:
  1436 ;;		line 79 in file "Source/Main.c"
  1437 ;; Parameters:    Size  Location     Type
  1438 ;;  keypad_readi    1    wreg     unsigned char 
  1439 ;; Auto vars:     Size  Location     Type
  1440 ;;  keypad_readi    1    7[BANK0 ] unsigned char 
  1441 ;;  i               1   10[BANK0 ] unsigned char 
  1442 ;;  index           1    8[BANK0 ] unsigned char 
  1443 ;;  max_buttons     1    6[BANK0 ] unsigned char 
  1444 ;;  n               1    9[BANK0 ] unsigned char 
  1445 ;; Return value:  Size  Location     Type
  1446 ;;                  1    wreg      void 
  1447 ;; Registers used:
  1448 ;;		wreg, fsr1l, fsr1h, status,2, status,0, pclath, cstack
  1449 ;; Tracked objects:
  1450 ;;		On entry : 0/0
  1451 ;;		On exit  : 0/0
  1452 ;;		Unchanged: 0/0
  1453 ;; Data sizes:     COMMON   BANK0   BANK1   BANK2   BANK3   BANK4   BANK5   BANK6   BANK7   BANK8   BANK9  BANK10  BANK1
      +1  BANK12
  1454 ;;      Params:         0       0       0       0       0       0       0       0       0       0       0       0       
      +0       0
  1455 ;;      Locals:         0       5       0       0       0       0       0       0       0       0       0       0       
      +0       0
  1456 ;;      Temps:          0       2       0       0       0       0       0       0       0       0       0       0       
      +0       0
  1457 ;;      Totals:         0       7       0       0       0       0       0       0       0       0       0       0       
      +0       0
  1458 ;;Total ram usage:        7 bytes
  1459 ;; Hardware stack levels used:    1
  1460 ;; Hardware stack levels required when called:    7
  1461 ;; This function calls:
  1462 ;;		___bmul
  1463 ;; This function is called by:
  1464 ;;		_ProcessIO
  1465 ;; This function uses a non-reentrant model
  1466 ;;
  1467                           
  1468                           
  1469                           ;psect for function _PrepareTxBuffer
  1470  03EA                     _PrepareTxBuffer:	
  1471                           
  1472                           ;incstack = 0
  1473                           ; Regs used in _PrepareTxBuffer: [wreg+fsr1l+fsr1h+status,2+status,0+pclath+cstack]
  1474                           ;PrepareTxBuffer@keypad_reading stored from wreg
  1475  03EA  0020               	movlb	0	; select bank0
  1476  03EB  00E3               	movwf	PrepareTxBuffer@keypad_reading
  1477  03EC                     l2162:	
  1478                           
  1479                           ;Source/Main.c: 79: ;Source/Main.c: 80: ;Source/Main.c: 82: };Source/Main.c: 85: {
  1480  03EC  01E5               	clrf	PrepareTxBuffer@n
  1481  03ED                     l2168:	
  1482                           
  1483                           ;Source/Main.c: 86:     if(IsUsbDataAvaialble(0x00) > 0 );Source/Main.c: 87:     {
  1484  03ED  0865               	movf	PrepareTxBuffer@n,w
  1485  03EE  3E51               	addlw	(low (_HIDTxBuffer| 0))& (0+255)
  1486  03EF  0086               	movwf	6
  1487  03F0  0187               	clrf	7
  1488  03F1  0181               	clrf	1
  1489  03F2                     l2170:	
  1490                           
  1491                           ;Source/Main.c: 88:         ProcessIncommingData();
  1492  03F2  3001               	movlw	1
  1493  03F3  00E0               	movwf	??_PrepareTxBuffer
  1494  03F4  0860               	movf	??_PrepareTxBuffer,w
  1495  03F5  07E5               	addwf	PrepareTxBuffer@n,f
  1496  03F6                     l2172:	
  1497  03F6  3008               	movlw	8
  1498  03F7  0265               	subwf	PrepareTxBuffer@n,w
  1499  03F8  1C03               	skipc
  1500  03F9  2BFB               	goto	u2131
  1501  03FA  2BFC               	goto	u2130
  1502  03FB                     u2131:	
  1503  03FB  2BED               	goto	l2168
  1504  03FC                     u2130:	
  1505  03FC                     l2174:	
  1506                           
  1507                           ;Source/Main.c: 91: }
  1508  03FC  0863               	movf	PrepareTxBuffer@keypad_reading,w
  1509  03FD  1903               	btfsc	3,2
  1510  03FE  2C00               	goto	u2141
  1511  03FF  2C01               	goto	u2140
  1512  0400                     u2141:	
  1513  0400  2C53               	goto	l94
  1514  0401                     u2140:	
  1515  0401                     l86:	
  1516                           ;Source/Main.c: 92: ;Source/Main.c: 93: void ProcessIO(void)
  1517                           
  1518  0401  160C               	bsf	12,4	;volatile
  1519  0402                     l2176:	
  1520                           
  1521                           ;Source/Main.c: 95: 
  1522  0402  01E6               	clrf	PrepareTxBuffer@i
  1523  0403                     l2178:	
  1524                           
  1525                           ;Source/Main.c: 96:     if (((DeviceState == 0x05) && (UCONbits.SUSPND==0))) CheckUsb();
  1526  0403  3002               	movlw	2
  1527  0404  00E0               	movwf	??_PrepareTxBuffer
  1528  0405  0860               	movf	??_PrepareTxBuffer,w
  1529  0406  00E4               	movwf	PrepareTxBuffer@index
  1530  0407                     l2180:	
  1531                           
  1532                           ;Source/Main.c: 98: 
  1533  0407  3006               	movlw	6
  1534  0408  00E0               	movwf	??_PrepareTxBuffer
  1535  0409  0860               	movf	??_PrepareTxBuffer,w
  1536  040A  00E2               	movwf	PrepareTxBuffer@max_buttons
  1537                           
  1538                           ;Source/Main.c: 99:     uint8_t reading = NES_read_pad();
  1539  040B  2C42               	goto	l2194
  1540  040C                     l2182:	
  1541                           
  1542                           ;Source/Main.c: 100:     if (reading == last_keypad_reading ) return;;Source/Main.c: 101
      +                          : 
  1543  040C  3003               	movlw	3
  1544  040D  0020               	movlb	0	; select bank0
  1545  040E  00E0               	movwf	??_PrepareTxBuffer
  1546  040F  0860               	movf	??_PrepareTxBuffer,w
  1547  0410  00DC               	movwf	___bmul@multiplicand
  1548  0411  0866               	movf	PrepareTxBuffer@i,w
  1549  0412  318F  27EA  3183   	fcall	___bmul
  1550  0415  3EA0               	addlw	(low (_button_key_maps| 0))& (0+255)
  1551  0416  0086               	movwf	6
  1552  0417  0187               	clrf	7
  1553  0418  0801               	movf	1,w
  1554  0419  0020               	movlb	0	; select bank0
  1555  041A  0563               	andwf	PrepareTxBuffer@keypad_reading,w
  1556  041B  1903               	btfsc	3,2
  1557  041C  2C1E               	goto	u2151
  1558  041D  2C1F               	goto	u2150
  1559  041E                     u2151:	
  1560  041E  2C3E               	goto	l2192
  1561  041F                     u2150:	
  1562  041F                     l2184:	
  1563                           
  1564                           ;Source/Main.c: 102: ;Source/Main.c: 103:     PrepareTxBuffer(reading);
  1565  041F  3003               	movlw	3
  1566  0420  00E0               	movwf	??_PrepareTxBuffer
  1567  0421  0860               	movf	??_PrepareTxBuffer,w
  1568  0422  00DC               	movwf	___bmul@multiplicand
  1569  0423  0866               	movf	PrepareTxBuffer@i,w
  1570  0424  318F  27EA  3183   	fcall	___bmul
  1571  0427  3EA1               	addlw	(low ((_button_key_maps| 0+1)))& (0+255)
  1572  0428  0086               	movwf	6
  1573  0429  0187               	clrf	7
  1574  042A  0801               	movf	1,w
  1575  042B  0020               	movlb	0	; select bank0
  1576  042C  00E1               	movwf	??_PrepareTxBuffer+1
  1577  042D  0864               	movf	PrepareTxBuffer@index,w
  1578  042E  3E51               	addlw	(low (_HIDTxBuffer| 0))& (0+255)
  1579  042F  0086               	movwf	6
  1580  0430  0187               	clrf	7
  1581  0431  0861               	movf	??_PrepareTxBuffer+1,w
  1582  0432  0081               	movwf	1
  1583  0433                     l2186:	
  1584  0433  3001               	movlw	1
  1585  0434  00E0               	movwf	??_PrepareTxBuffer
  1586  0435  0860               	movf	??_PrepareTxBuffer,w
  1587  0436  07E4               	addwf	PrepareTxBuffer@index,f
  1588  0437                     l2188:	
  1589                           
  1590                           ;Source/Main.c: 104:     HIDSend(0x00);
  1591  0437  0864               	movf	PrepareTxBuffer@index,w
  1592  0438  0262               	subwf	PrepareTxBuffer@max_buttons,w
  1593  0439  1803               	skipnc
  1594  043A  2C3C               	goto	u2161
  1595  043B  2C3D               	goto	u2160
  1596  043C                     u2161:	
  1597  043C  2C3E               	goto	l2192
  1598  043D                     u2160:	
  1599  043D  2C54               	goto	l96
  1600  043E                     l2192:	
  1601                           
  1602                           ;Source/Main.c: 109: 
  1603  043E  3001               	movlw	1
  1604  043F  00E0               	movwf	??_PrepareTxBuffer
  1605  0440  0860               	movf	??_PrepareTxBuffer,w
  1606  0441  07E6               	addwf	PrepareTxBuffer@i,f
  1607  0442                     l2194:	
  1608                           
  1609                           ;Source/Main.c: 99:     uint8_t reading = NES_read_pad();
  1610  0442  3003               	movlw	3
  1611  0443  00E0               	movwf	??_PrepareTxBuffer
  1612  0444  0860               	movf	??_PrepareTxBuffer,w
  1613  0445  00DC               	movwf	___bmul@multiplicand
  1614  0446  0866               	movf	PrepareTxBuffer@i,w
  1615  0447  318F  27EA  3183   	fcall	___bmul
  1616  044A  3EA0               	addlw	(low (_button_key_maps| 0))& (0+255)
  1617  044B  0086               	movwf	6
  1618  044C  0187               	clrf	7
  1619  044D  0801               	movf	1,w
  1620  044E  1D03               	btfss	3,2
  1621  044F  2C51               	goto	u2171
  1622  0450  2C52               	goto	u2170
  1623  0451                     u2171:	
  1624  0451  2C0C               	goto	l2182
  1625  0452                     u2170:	
  1626  0452  2C54               	goto	l96
  1627  0453                     l94:	
  1628                           ;Source/Main.c: 113:     NES_GPIO_Initialize();;Source/Main.c: 114:     InitializeUSB();
  1629                           
  1630  0453  120C               	bcf	12,4	;volatile
  1631  0454                     l96:	
  1632  0454  0008               	return
  1633  0455                     __end_of_PrepareTxBuffer:	
  1634                           
  1635                           	psect	text3
  1636  0FEA                     __ptext3:	
  1637 ;; *************** function ___bmul *****************
  1638 ;; Defined at:
  1639 ;;		line 4 in file "C:\Program Files (x86)\Microchip\xc8\v2.10\pic\sources\c99\common\Umul8.c"
  1640 ;; Parameters:    Size  Location     Type
  1641 ;;  multiplier      1    wreg     unsigned char 
  1642 ;;  multiplicand    1    0[BANK0 ] unsigned char 
  1643 ;; Auto vars:     Size  Location     Type
  1644 ;;  multiplier      1    3[BANK0 ] unsigned char 
  1645 ;;  product         1    2[BANK0 ] unsigned char 
  1646 ;; Return value:  Size  Location     Type
  1647 ;;                  1    wreg      unsigned char 
  1648 ;; Registers used:
  1649 ;;		wreg, status,2, status,0
  1650 ;; Tracked objects:
  1651 ;;		On entry : 0/0
  1652 ;;		On exit  : 0/0
  1653 ;;		Unchanged: 0/0
  1654 ;; Data sizes:     COMMON   BANK0   BANK1   BANK2   BANK3   BANK4   BANK5   BANK6   BANK7   BANK8   BANK9  BANK10  BANK1
      +1  BANK12
  1655 ;;      Params:         0       1       0       0       0       0       0       0       0       0       0       0       
      +0       0
  1656 ;;      Locals:         0       2       0       0       0       0       0       0       0       0       0       0       
      +0       0
  1657 ;;      Temps:          0       1       0       0       0       0       0       0       0       0       0       0       
      +0       0
  1658 ;;      Totals:         0       4       0       0       0       0       0       0       0       0       0       0       
      +0       0
  1659 ;;Total ram usage:        4 bytes
  1660 ;; Hardware stack levels used:    1
  1661 ;; Hardware stack levels required when called:    6
  1662 ;; This function calls:
  1663 ;;		Nothing
  1664 ;; This function is called by:
  1665 ;;		_PrepareTxBuffer
  1666 ;;		_ReArmInterface
  1667 ;;		_HIDSend
  1668 ;;		_HIDInitEndpoints
  1669 ;; This function uses a non-reentrant model
  1670 ;;
  1671                           
  1672                           
  1673                           ;psect for function ___bmul
  1674  0FEA                     ___bmul:	
  1675                           
  1676                           ;incstack = 0
  1677                           ; Regs used in ___bmul: [wreg+status,2+status,0]
  1678                           ;___bmul@multiplier stored from wreg
  1679  0FEA  0020               	movlb	0	; select bank0
  1680  0FEB  00DF               	movwf	___bmul@multiplier
  1681  0FEC                     l2148:	
  1682  0FEC  01DE               	clrf	___bmul@product
  1683  0FED                     l2150:	
  1684  0FED  1C5F               	btfss	___bmul@multiplier,0
  1685  0FEE  2FF0               	goto	u2111
  1686  0FEF  2FF1               	goto	u2110
  1687  0FF0                     u2111:	
  1688  0FF0  2FF5               	goto	l2154
  1689  0FF1                     u2110:	
  1690  0FF1                     l2152:	
  1691  0FF1  085C               	movf	___bmul@multiplicand,w
  1692  0FF2  00DD               	movwf	??___bmul
  1693  0FF3  085D               	movf	??___bmul,w
  1694  0FF4  07DE               	addwf	___bmul@product,f
  1695  0FF5                     l2154:	
  1696  0FF5  1003               	clrc
  1697  0FF6  0DDC               	rlf	___bmul@multiplicand,f
  1698  0FF7                     l2156:	
  1699  0FF7  1003               	clrc
  1700  0FF8  0CDF               	rrf	___bmul@multiplier,f
  1701  0FF9  085F               	movf	___bmul@multiplier,w
  1702  0FFA  1D03               	btfss	3,2
  1703  0FFB  2FFD               	goto	u2121
  1704  0FFC  2FFE               	goto	u2120
  1705  0FFD                     u2121:	
  1706  0FFD  2FED               	goto	l2150
  1707  0FFE                     u2120:	
  1708  0FFE                     l2158:	
  1709  0FFE  085E               	movf	___bmul@product,w
  1710  0FFF                     l544:	
  1711  0FFF  0008               	return
  1712  1000                     __end_of___bmul:	
  1713                           
  1714                           	psect	text4
  1715  0679                     __ptext4:	
  1716 ;; *************** function _NES_read_pad *****************
  1717 ;; Defined at:
  1718 ;;		line 42 in file "Source/nes_keyboard.c"
  1719 ;; Parameters:    Size  Location     Type
  1720 ;;		None
  1721 ;; Auto vars:     Size  Location     Type
  1722 ;;  i               2    3[BANK0 ] int 
  1723 ;;  output          1    2[BANK0 ] unsigned char 
  1724 ;; Return value:  Size  Location     Type
  1725 ;;                  1    wreg      unsigned char 
  1726 ;; Registers used:
  1727 ;;		wreg, status,2, status,0
  1728 ;; Tracked objects:
  1729 ;;		On entry : 0/0
  1730 ;;		On exit  : 0/0
  1731 ;;		Unchanged: 0/0
  1732 ;; Data sizes:     COMMON   BANK0   BANK1   BANK2   BANK3   BANK4   BANK5   BANK6   BANK7   BANK8   BANK9  BANK10  BANK1
      +1  BANK12
  1733 ;;      Params:         0       0       0       0       0       0       0       0       0       0       0       0       
      +0       0
  1734 ;;      Locals:         0       3       0       0       0       0       0       0       0       0       0       0       
      +0       0
  1735 ;;      Temps:          0       2       0       0       0       0       0       0       0       0       0       0       
      +0       0
  1736 ;;      Totals:         0       5       0       0       0       0       0       0       0       0       0       0       
      +0       0
  1737 ;;Total ram usage:        5 bytes
  1738 ;; Hardware stack levels used:    1
  1739 ;; Hardware stack levels required when called:    6
  1740 ;; This function calls:
  1741 ;;		Nothing
  1742 ;; This function is called by:
  1743 ;;		_ProcessIO
  1744 ;; This function uses a non-reentrant model
  1745 ;;
  1746                           
  1747                           
  1748                           ;psect for function _NES_read_pad
  1749  0679                     _NES_read_pad:	
  1750  0679                     l440:	
  1751                           ;incstack = 0
  1752                           ; Regs used in _NES_read_pad: [wreg+status,2+status,0]
  1753                           ;Source/nes_keyboard.c: 63:   do { LATCbits.LATC5 = 1; } while(0);
  1754                           
  1755  0679  0022               	movlb	2	; select bank2
  1756  067A  168E               	bsf	14,5	;volatile
  1757  067B                     l2202:	
  1758                           
  1759                           ;Source/nes_keyboard.c: 64:   _delay((unsigned long)((12)*(48000000L/4000000.0)));
  1760  067B  3030               	movlw	48
  1761  067C                     u2677:	
  1762  067C  0B89               	decfsz	9,f
  1763  067D  2E7C               	goto	u2677
  1764  067E                     l2204:	
  1765  067E  0022               	movlb	2	; select bank2
  1766  067F  128E               	bcf	14,5	;volatile
  1767  0680                     l2206:	
  1768                           
  1769                           ;Source/nes_keyboard.c: 69:   uint8_t output = 0x00;
  1770  0680  0020               	movlb	0	; select bank0
  1771  0681  01DE               	clrf	NES_read_pad@output
  1772  0682                     l2208:	
  1773                           
  1774                           ;Source/nes_keyboard.c: 70:   int i;;Source/nes_keyboard.c: 71:   for ( i = 0; i < 8; i+
      +                          +)
  1775  0682  01DF               	clrf	NES_read_pad@i
  1776  0683  01E0               	clrf	NES_read_pad@i+1
  1777  0684                     l2212:	
  1778                           
  1779                           ;Source/nes_keyboard.c: 72:   {;Source/nes_keyboard.c: 73:       output |= !( (PORTCbits
      +                          .RC3 & 0x1)) << i;
  1780  0684  1003               	clrc
  1781  0685  0020               	movlb	0	; select bank0
  1782  0686  1D8E               	btfss	14,3	;volatile
  1783  0687  1403               	setc
  1784  0688  3000               	movlw	0
  1785  0689  3D09               	addwfc	9,w
  1786  068A  00DC               	movwf	??_NES_read_pad
  1787  068B  0A5F               	incf	NES_read_pad@i,w
  1788  068C  2E8E               	goto	u2194
  1789  068D                     u2195:	
  1790  068D  35DC               	lslf	??_NES_read_pad,f
  1791  068E                     u2194:	
  1792  068E  0B89               	decfsz	9,f
  1793  068F  2E8D               	goto	u2195
  1794  0690  085C               	movf	??_NES_read_pad,w
  1795  0691  00DD               	movwf	??_NES_read_pad+1
  1796  0692  085D               	movf	??_NES_read_pad+1,w
  1797  0693  04DE               	iorwf	NES_read_pad@output,f
  1798  0694                     l2214:	
  1799  0694  0022               	movlb	2	; select bank2
  1800  0695  160E               	bsf	14,4	;volatile
  1801  0696                     l2216:	
  1802                           
  1803                           ;Source/nes_keyboard.c: 75:       _delay((unsigned long)((6)*(48000000L/4000000.0)));
  1804  0696  3018               	movlw	24
  1805  0697                     u2687:	
  1806  0697  0B89               	decfsz	9,f
  1807  0698  2E97               	goto	u2687
  1808  0699                     l2218:	
  1809  0699  0022               	movlb	2	; select bank2
  1810  069A  120E               	bcf	14,4	;volatile
  1811  069B                     l2220:	
  1812                           
  1813                           ;Source/nes_keyboard.c: 77:       _delay((unsigned long)((6)*(48000000L/4000000.0)));
  1814  069B  3018               	movlw	24
  1815  069C                     u2697:	
  1816  069C  0B89               	decfsz	9,f
  1817  069D  2E9C               	goto	u2697
  1818  069E                     l2222:	
  1819                           
  1820                           ;Source/nes_keyboard.c: 78:   }
  1821  069E  3001               	movlw	1
  1822  069F  0020               	movlb	0	; select bank0
  1823  06A0  07DF               	addwf	NES_read_pad@i,f
  1824  06A1  3000               	movlw	0
  1825  06A2  3DE0               	addwfc	NES_read_pad@i+1,f
  1826  06A3                     l2224:	
  1827  06A3  0860               	movf	NES_read_pad@i+1,w
  1828  06A4  3A80               	xorlw	128
  1829  06A5  00DC               	movwf	??_NES_read_pad
  1830  06A6  3080               	movlw	128
  1831  06A7  025C               	subwf	??_NES_read_pad,w
  1832  06A8  1D03               	skipz
  1833  06A9  2EAC               	goto	u2205
  1834  06AA  3008               	movlw	8
  1835  06AB  025F               	subwf	NES_read_pad@i,w
  1836  06AC                     u2205:	
  1837  06AC  1C03               	skipc
  1838  06AD  2EAF               	goto	u2201
  1839  06AE  2EB0               	goto	u2200
  1840  06AF                     u2201:	
  1841  06AF  2E84               	goto	l2212
  1842  06B0                     u2200:	
  1843  06B0                     l2226:	
  1844                           
  1845                           ;Source/nes_keyboard.c: 80:   return output;
  1846  06B0  0020               	movlb	0	; select bank0
  1847  06B1  085E               	movf	NES_read_pad@output,w
  1848  06B2                     l450:	
  1849  06B2  0008               	return
  1850  06B3                     __end_of_NES_read_pad:	
  1851                           
  1852                           	psect	text5
  1853  0585                     __ptext5:	
  1854 ;; *************** function _HIDSend *****************
  1855 ;; Defined at:
  1856 ;;		line 216 in file "Source/Usb.c"
  1857 ;; Parameters:    Size  Location     Type
  1858 ;;  InterfaceNo     1    wreg     unsigned char 
  1859 ;; Auto vars:     Size  Location     Type
  1860 ;;  InterfaceNo     1    3[BANK0 ] unsigned char 
  1861 ;; Return value:  Size  Location     Type
  1862 ;;                  1    wreg      void 
  1863 ;; Registers used:
  1864 ;;		wreg, fsr1l, fsr1h, status,2, status,0
  1865 ;; Tracked objects:
  1866 ;;		On entry : 0/0
  1867 ;;		On exit  : 0/0
  1868 ;;		Unchanged: 0/0
  1869 ;; Data sizes:     COMMON   BANK0   BANK1   BANK2   BANK3   BANK4   BANK5   BANK6   BANK7   BANK8   BANK9  BANK10  BANK1
      +1  BANK12
  1870 ;;      Params:         0       0       0       0       0       0       0       0       0       0       0       0       
      +0       0
  1871 ;;      Locals:         0       1       0       0       0       0       0       0       0       0       0       0       
      +0       0
  1872 ;;      Temps:          0       3       0       0       0       0       0       0       0       0       0       0       
      +0       0
  1873 ;;      Totals:         0       4       0       0       0       0       0       0       0       0       0       0       
      +0       0
  1874 ;;Total ram usage:        4 bytes
  1875 ;; Hardware stack levels used:    1
  1876 ;; Hardware stack levels required when called:    6
  1877 ;; This function calls:
  1878 ;;		Nothing
  1879 ;; This function is called by:
  1880 ;;		_ProcessIO
  1881 ;; This function uses a non-reentrant model
  1882 ;;
  1883                           
  1884                           
  1885                           ;psect for function _HIDSend
  1886  0585                     _HIDSend:	
  1887                           
  1888                           ;incstack = 0
  1889                           ; Regs used in _HIDSend: [wreg+fsr1l+fsr1h+status,2+status,0]
  1890                           ;HIDSend@InterfaceNo stored from wreg
  1891  0585  0020               	movlb	0	; select bank0
  1892  0586  00DF               	movwf	HIDSend@InterfaceNo
  1893  0587                     l2230:	
  1894                           
  1895                           ;Source/Usb.c: 216: void HIDSend(uint8_t InterfaceNo);Source/Usb.c: 217: {;Source/Usb.c:
      +                           219:     if (Interfaces[InterfaceNo + 1].Input.Stat & 0x80) return;
  1896  0587  085F               	movf	HIDSend@InterfaceNo,w
  1897  0588  00DC               	movwf	??_HIDSend
  1898  0589  3002               	movlw	2
  1899  058A                     u2215:	
  1900  058A  35DC               	lslf	??_HIDSend,f
  1901  058B  3EFF               	addlw	-1
  1902  058C  1D03               	skipz
  1903  058D  2D8A               	goto	u2215
  1904  058E  355C               	lslf	??_HIDSend,w
  1905  058F  3E2C               	addlw	44
  1906  0590  0086               	movwf	6
  1907  0591  0187               	clrf	7
  1908  0592  1F81               	btfss	1,7
  1909  0593  2D95               	goto	u2221
  1910  0594  2D96               	goto	u2220
  1911  0595                     u2221:	
  1912  0595  2D97               	goto	l2234
  1913  0596                     u2220:	
  1914  0596  2DDF               	goto	l219
  1915  0597                     l2234:	
  1916                           
  1917                           ;Source/Usb.c: 223:     Interfaces[InterfaceNo + 1].Input.Cnt = Buffers[InterfaceNo * 2]
      +                          .Size;
  1918  0597  085F               	movf	HIDSend@InterfaceNo,w
  1919  0598  00DC               	movwf	??_HIDSend
  1920  0599  3001               	movlw	1
  1921  059A                     u2235:	
  1922  059A  35DC               	lslf	??_HIDSend,f
  1923  059B  3EFF               	addlw	-1
  1924  059C  1D03               	skipz
  1925  059D  2D9A               	goto	u2235
  1926  059E  355C               	lslf	??_HIDSend,w
  1927  059F  3E69               	addlw	(low (_Buffers| 0))& (0+255)
  1928  05A0  0086               	movwf	6
  1929  05A1  0187               	clrf	7
  1930  05A2  0801               	movf	1,w
  1931  05A3  00DD               	movwf	??_HIDSend+1
  1932  05A4  085F               	movf	HIDSend@InterfaceNo,w
  1933  05A5  00DE               	movwf	??_HIDSend+2
  1934  05A6  3002               	movlw	2
  1935  05A7                     u2245:	
  1936  05A7  35DE               	lslf	??_HIDSend+2,f
  1937  05A8  3EFF               	addlw	-1
  1938  05A9  1D03               	skipz
  1939  05AA  2DA7               	goto	u2245
  1940  05AB  355E               	lslf	??_HIDSend+2,w
  1941  05AC  3E2D               	addlw	45
  1942  05AD  0086               	movwf	6
  1943  05AE  0187               	clrf	7
  1944  05AF  085D               	movf	??_HIDSend+1,w
  1945  05B0  0081               	movwf	1
  1946                           
  1947                           ;Source/Usb.c: 225:     if(Interfaces[InterfaceNo + 1].Input.Stat & 0x40)
  1948  05B1  085F               	movf	HIDSend@InterfaceNo,w
  1949  05B2  00DC               	movwf	??_HIDSend
  1950  05B3  3002               	movlw	2
  1951  05B4                     u2255:	
  1952  05B4  35DC               	lslf	??_HIDSend,f
  1953  05B5  3EFF               	addlw	-1
  1954  05B6  1D03               	skipz
  1955  05B7  2DB4               	goto	u2255
  1956  05B8  355C               	lslf	??_HIDSend,w
  1957  05B9  3E2C               	addlw	44
  1958  05BA  0086               	movwf	6
  1959  05BB  0187               	clrf	7
  1960  05BC  1F01               	btfss	1,6
  1961  05BD  2DBF               	goto	u2261
  1962  05BE  2DC0               	goto	u2260
  1963  05BF                     u2261:	
  1964  05BF  2DD0               	goto	l2238
  1965  05C0                     u2260:	
  1966  05C0                     l2236:	
  1967                           
  1968                           ;Source/Usb.c: 226:         Interfaces[InterfaceNo + 1].Input.Stat = 0x80 | 0x08;
  1969  05C0  3088               	movlw	136
  1970  05C1  00DC               	movwf	??_HIDSend
  1971  05C2  085F               	movf	HIDSend@InterfaceNo,w
  1972  05C3  00DD               	movwf	??_HIDSend+1
  1973  05C4  3002               	movlw	2
  1974  05C5                     u2275:	
  1975  05C5  35DD               	lslf	??_HIDSend+1,f
  1976  05C6  3EFF               	addlw	-1
  1977  05C7  1D03               	skipz
  1978  05C8  2DC5               	goto	u2275
  1979  05C9  355D               	lslf	??_HIDSend+1,w
  1980  05CA  3E2C               	addlw	44
  1981  05CB  0086               	movwf	6
  1982  05CC  0187               	clrf	7
  1983  05CD  085C               	movf	??_HIDSend,w
  1984  05CE  0081               	movwf	1
  1985  05CF  2DDF               	goto	l219
  1986  05D0                     l2238:	
  1987                           
  1988                           ;Source/Usb.c: 228:         Interfaces[InterfaceNo + 1].Input.Stat = 0x80 | 0x40 | 0x08;
  1989  05D0  30C8               	movlw	200
  1990  05D1  00DC               	movwf	??_HIDSend
  1991  05D2  085F               	movf	HIDSend@InterfaceNo,w
  1992  05D3  00DD               	movwf	??_HIDSend+1
  1993  05D4  3002               	movlw	2
  1994  05D5                     u2285:	
  1995  05D5  35DD               	lslf	??_HIDSend+1,f
  1996  05D6  3EFF               	addlw	-1
  1997  05D7  1D03               	skipz
  1998  05D8  2DD5               	goto	u2285
  1999  05D9  355D               	lslf	??_HIDSend+1,w
  2000  05DA  3E2C               	addlw	44
  2001  05DB  0086               	movwf	6
  2002  05DC  0187               	clrf	7
  2003  05DD  085C               	movf	??_HIDSend,w
  2004  05DE  0081               	movwf	1
  2005  05DF                     l219:	
  2006  05DF  0008               	return
  2007  05E0                     __end_of_HIDSend:	
  2008                           
  2009                           	psect	text6
  2010  0FC4                     __ptext6:	
  2011 ;; *************** function _CheckUsb *****************
  2012 ;; Defined at:
  2013 ;;		line 128 in file "Source/Main.c"
  2014 ;; Parameters:    Size  Location     Type
  2015 ;;		None
  2016 ;; Auto vars:     Size  Location     Type
  2017 ;;		None
  2018 ;; Return value:  Size  Location     Type
  2019 ;;                  1    wreg      void 
  2020 ;; Registers used:
  2021 ;;		wreg, fsr1l, fsr1h, status,2, status,0, pclath, cstack
  2022 ;; Tracked objects:
  2023 ;;		On entry : 0/0
  2024 ;;		On exit  : 0/0
  2025 ;;		Unchanged: 0/0
  2026 ;; Data sizes:     COMMON   BANK0   BANK1   BANK2   BANK3   BANK4   BANK5   BANK6   BANK7   BANK8   BANK9  BANK10  BANK1
      +1  BANK12
  2027 ;;      Params:         0       0       0       0       0       0       0       0       0       0       0       0       
      +0       0
  2028 ;;      Locals:         0       0       0       0       0       0       0       0       0       0       0       0       
      +0       0
  2029 ;;      Temps:          0       0       0       0       0       0       0       0       0       0       0       0       
      +0       0
  2030 ;;      Totals:         0       0       0       0       0       0       0       0       0       0       0       0       
      +0       0
  2031 ;;Total ram usage:        0 bytes
  2032 ;; Hardware stack levels used:    1
  2033 ;; Hardware stack levels required when called:    7
  2034 ;; This function calls:
  2035 ;;		_IsUsbDataAvaialble
  2036 ;;		_ProcessIncommingData
  2037 ;;		_ReArmInterface
  2038 ;; This function is called by:
  2039 ;;		_ProcessIO
  2040 ;; This function uses a non-reentrant model
  2041 ;;
  2042                           
  2043                           
  2044                           ;psect for function _CheckUsb
  2045  0FC4                     _CheckUsb:	
  2046  0FC4                     l2196:	
  2047                           ;incstack = 0
  2048                           ; Regs used in _CheckUsb: [wreg+fsr1l+fsr1h+status,2+status,0+pclath+cstack]
  2049                           
  2050  0FC4  3000               	movlw	0
  2051  0FC5  3187  2767  318F   	fcall	_IsUsbDataAvaialble
  2052  0FC8  3A00               	xorlw	0
  2053  0FC9  1903               	skipnz
  2054  0FCA  2FCC               	goto	u2181
  2055  0FCB  2FCD               	goto	u2180
  2056  0FCC                     u2181:	
  2057  0FCC  2FD4               	goto	l103
  2058  0FCD                     u2180:	
  2059  0FCD                     l2198:	
  2060  0FCD  3187  27FE  318F   	fcall	_ProcessIncommingData
  2061  0FD0                     l2200:	
  2062  0FD0  3000               	movlw	0
  2063  0FD1  3185  25E0  318F   	fcall	_ReArmInterface
  2064  0FD4                     l103:	
  2065  0FD4  0008               	return
  2066  0FD5                     __end_of_CheckUsb:	
  2067                           
  2068                           	psect	text7
  2069  05E0                     __ptext7:	
  2070 ;; *************** function _ReArmInterface *****************
  2071 ;; Defined at:
  2072 ;;		line 196 in file "Source/Usb.c"
  2073 ;; Parameters:    Size  Location     Type
  2074 ;;  InterfaceNo     1    wreg     unsigned char 
  2075 ;; Auto vars:     Size  Location     Type
  2076 ;;  InterfaceNo     1    3[BANK0 ] unsigned char 
  2077 ;; Return value:  Size  Location     Type
  2078 ;;                  1    wreg      void 
  2079 ;; Registers used:
  2080 ;;		wreg, fsr1l, fsr1h, status,2, status,0
  2081 ;; Tracked objects:
  2082 ;;		On entry : 0/0
  2083 ;;		On exit  : 0/0
  2084 ;;		Unchanged: 0/0
  2085 ;; Data sizes:     COMMON   BANK0   BANK1   BANK2   BANK3   BANK4   BANK5   BANK6   BANK7   BANK8   BANK9  BANK10  BANK1
      +1  BANK12
  2086 ;;      Params:         0       0       0       0       0       0       0       0       0       0       0       0       
      +0       0
  2087 ;;      Locals:         0       1       0       0       0       0       0       0       0       0       0       0       
      +0       0
  2088 ;;      Temps:          0       3       0       0       0       0       0       0       0       0       0       0       
      +0       0
  2089 ;;      Totals:         0       4       0       0       0       0       0       0       0       0       0       0       
      +0       0
  2090 ;;Total ram usage:        4 bytes
  2091 ;; Hardware stack levels used:    1
  2092 ;; Hardware stack levels required when called:    6
  2093 ;; This function calls:
  2094 ;;		Nothing
  2095 ;; This function is called by:
  2096 ;;		_CheckUsb
  2097 ;; This function uses a non-reentrant model
  2098 ;;
  2099                           
  2100                           
  2101                           ;psect for function _ReArmInterface
  2102  05E0                     _ReArmInterface:	
  2103                           
  2104                           ;incstack = 0
  2105                           ; Regs used in _ReArmInterface: [wreg+fsr1l+fsr1h+status,2+status,0]
  2106                           ;ReArmInterface@InterfaceNo stored from wreg
  2107  05E0  0020               	movlb	0	; select bank0
  2108  05E1  00DF               	movwf	ReArmInterface@InterfaceNo
  2109  05E2                     l2060:	
  2110                           
  2111                           ;Source/Usb.c: 196: void ReArmInterface(uint8_t InterfaceNo);Source/Usb.c: 197: {;Source
      +                          /Usb.c: 202:     if(!(Interfaces[InterfaceNo + 1].Output.Stat & 0x80))
  2112  05E2  085F               	movf	ReArmInterface@InterfaceNo,w
  2113  05E3  00DC               	movwf	??_ReArmInterface
  2114  05E4  3002               	movlw	2
  2115  05E5                     u1995:	
  2116  05E5  35DC               	lslf	??_ReArmInterface,f
  2117  05E6  3EFF               	addlw	-1
  2118  05E7  1D03               	skipz
  2119  05E8  2DE5               	goto	u1995
  2120  05E9  355C               	lslf	??_ReArmInterface,w
  2121  05EA  3E28               	addlw	40
  2122  05EB  0086               	movwf	6
  2123  05EC  0187               	clrf	7
  2124  05ED  1B81               	btfsc	1,7
  2125  05EE  2DF0               	goto	u2001
  2126  05EF  2DF1               	goto	u2000
  2127  05F0                     u2001:	
  2128  05F0  2E39               	goto	l215
  2129  05F1                     u2000:	
  2130  05F1                     l2062:	
  2131                           
  2132                           ;Source/Usb.c: 203:     {;Source/Usb.c: 205:         Interfaces[InterfaceNo + 1].Output.
      +                          Cnt = Buffers[(InterfaceNo * 2) + 1].Size;
  2133  05F1  085F               	movf	ReArmInterface@InterfaceNo,w
  2134  05F2  00DC               	movwf	??_ReArmInterface
  2135  05F3  3001               	movlw	1
  2136  05F4                     u2015:	
  2137  05F4  35DC               	lslf	??_ReArmInterface,f
  2138  05F5  3EFF               	addlw	-1
  2139  05F6  1D03               	skipz
  2140  05F7  2DF4               	goto	u2015
  2141  05F8  355C               	lslf	??_ReArmInterface,w
  2142  05F9  3E6B               	addlw	(low ((_Buffers| 0+2)))& (0+255)
  2143  05FA  0086               	movwf	6
  2144  05FB  0187               	clrf	7
  2145  05FC  0801               	movf	1,w
  2146  05FD  00DD               	movwf	??_ReArmInterface+1
  2147  05FE  085F               	movf	ReArmInterface@InterfaceNo,w
  2148  05FF  00DE               	movwf	??_ReArmInterface+2
  2149  0600  3002               	movlw	2
  2150  0601                     u2025:	
  2151  0601  35DE               	lslf	??_ReArmInterface+2,f
  2152  0602  3EFF               	addlw	-1
  2153  0603  1D03               	skipz
  2154  0604  2E01               	goto	u2025
  2155  0605  355E               	lslf	??_ReArmInterface+2,w
  2156  0606  3E29               	addlw	41
  2157  0607  0086               	movwf	6
  2158  0608  0187               	clrf	7
  2159  0609  085D               	movf	??_ReArmInterface+1,w
  2160  060A  0081               	movwf	1
  2161                           
  2162                           ;Source/Usb.c: 209:         if(Interfaces[InterfaceNo + 1].Output.Stat & 0x40)
  2163  060B  085F               	movf	ReArmInterface@InterfaceNo,w
  2164  060C  00DC               	movwf	??_ReArmInterface
  2165  060D  3002               	movlw	2
  2166  060E                     u2035:	
  2167  060E  35DC               	lslf	??_ReArmInterface,f
  2168  060F  3EFF               	addlw	-1
  2169  0610  1D03               	skipz
  2170  0611  2E0E               	goto	u2035
  2171  0612  355C               	lslf	??_ReArmInterface,w
  2172  0613  3E28               	addlw	40
  2173  0614  0086               	movwf	6
  2174  0615  0187               	clrf	7
  2175  0616  1F01               	btfss	1,6
  2176  0617  2E19               	goto	u2041
  2177  0618  2E1A               	goto	u2040
  2178  0619                     u2041:	
  2179  0619  2E2A               	goto	l2066
  2180  061A                     u2040:	
  2181  061A                     l2064:	
  2182                           
  2183                           ;Source/Usb.c: 210:             Interfaces[InterfaceNo + 1].Output.Stat = 0x80 | 0x08;
  2184  061A  3088               	movlw	136
  2185  061B  00DC               	movwf	??_ReArmInterface
  2186  061C  085F               	movf	ReArmInterface@InterfaceNo,w
  2187  061D  00DD               	movwf	??_ReArmInterface+1
  2188  061E  3002               	movlw	2
  2189  061F                     u2055:	
  2190  061F  35DD               	lslf	??_ReArmInterface+1,f
  2191  0620  3EFF               	addlw	-1
  2192  0621  1D03               	skipz
  2193  0622  2E1F               	goto	u2055
  2194  0623  355D               	lslf	??_ReArmInterface+1,w
  2195  0624  3E28               	addlw	40
  2196  0625  0086               	movwf	6
  2197  0626  0187               	clrf	7
  2198  0627  085C               	movf	??_ReArmInterface,w
  2199  0628  0081               	movwf	1
  2200  0629  2E39               	goto	l215
  2201  062A                     l2066:	
  2202                           
  2203                           ;Source/Usb.c: 212:             Interfaces[InterfaceNo + 1].Output.Stat = 0x80 | 0x40 | 
      +                          0x08;
  2204  062A  30C8               	movlw	200
  2205  062B  00DC               	movwf	??_ReArmInterface
  2206  062C  085F               	movf	ReArmInterface@InterfaceNo,w
  2207  062D  00DD               	movwf	??_ReArmInterface+1
  2208  062E  3002               	movlw	2
  2209  062F                     u2065:	
  2210  062F  35DD               	lslf	??_ReArmInterface+1,f
  2211  0630  3EFF               	addlw	-1
  2212  0631  1D03               	skipz
  2213  0632  2E2F               	goto	u2065
  2214  0633  355D               	lslf	??_ReArmInterface+1,w
  2215  0634  3E28               	addlw	40
  2216  0635  0086               	movwf	6
  2217  0636  0187               	clrf	7
  2218  0637  085C               	movf	??_ReArmInterface,w
  2219  0638  0081               	movwf	1
  2220  0639                     l215:	
  2221  0639  0008               	return
  2222  063A                     __end_of_ReArmInterface:	
  2223                           
  2224                           	psect	text8
  2225  07FE                     __ptext8:	
  2226 ;; *************** function _ProcessIncommingData *****************
  2227 ;; Defined at:
  2228 ;;		line 118 in file "Source/Main.c"
  2229 ;; Parameters:    Size  Location     Type
  2230 ;;		None
  2231 ;; Auto vars:     Size  Location     Type
  2232 ;;		None
  2233 ;; Return value:  Size  Location     Type
  2234 ;;                  1    wreg      void 
  2235 ;; Registers used:
  2236 ;;		None
  2237 ;; Tracked objects:
  2238 ;;		On entry : 0/0
  2239 ;;		On exit  : 0/0
  2240 ;;		Unchanged: 0/0
  2241 ;; Data sizes:     COMMON   BANK0   BANK1   BANK2   BANK3   BANK4   BANK5   BANK6   BANK7   BANK8   BANK9  BANK10  BANK1
      +1  BANK12
  2242 ;;      Params:         0       0       0       0       0       0       0       0       0       0       0       0       
      +0       0
  2243 ;;      Locals:         0       0       0       0       0       0       0       0       0       0       0       0       
      +0       0
  2244 ;;      Temps:          0       0       0       0       0       0       0       0       0       0       0       0       
      +0       0
  2245 ;;      Totals:         0       0       0       0       0       0       0       0       0       0       0       0       
      +0       0
  2246 ;;Total ram usage:        0 bytes
  2247 ;; Hardware stack levels used:    1
  2248 ;; Hardware stack levels required when called:    6
  2249 ;; This function calls:
  2250 ;;		Nothing
  2251 ;; This function is called by:
  2252 ;;		_CheckUsb
  2253 ;; This function uses a non-reentrant model
  2254 ;;
  2255                           
  2256                           
  2257                           ;psect for function _ProcessIncommingData
  2258  07FE                     _ProcessIncommingData:	
  2259  07FE                     l99:	
  2260                           ;incstack = 0
  2261                           ; Regs used in _ProcessIncommingData: []
  2262                           
  2263  07FE  0008               	return
  2264  07FF                     __end_of_ProcessIncommingData:	
  2265                           
  2266                           	psect	text9
  2267  0767                     __ptext9:	
  2268 ;; *************** function _IsUsbDataAvaialble *****************
  2269 ;; Defined at:
  2270 ;;		line 186 in file "Source/Usb.c"
  2271 ;; Parameters:    Size  Location     Type
  2272 ;;  InterfaceNo     1    wreg     unsigned char 
  2273 ;; Auto vars:     Size  Location     Type
  2274 ;;  InterfaceNo     1    1[BANK0 ] unsigned char 
  2275 ;; Return value:  Size  Location     Type
  2276 ;;                  1    wreg      unsigned char 
  2277 ;; Registers used:
  2278 ;;		wreg, fsr1l, fsr1h, status,2, status,0
  2279 ;; Tracked objects:
  2280 ;;		On entry : 0/0
  2281 ;;		On exit  : 0/0
  2282 ;;		Unchanged: 0/0
  2283 ;; Data sizes:     COMMON   BANK0   BANK1   BANK2   BANK3   BANK4   BANK5   BANK6   BANK7   BANK8   BANK9  BANK10  BANK1
      +1  BANK12
  2284 ;;      Params:         0       0       0       0       0       0       0       0       0       0       0       0       
      +0       0
  2285 ;;      Locals:         0       1       0       0       0       0       0       0       0       0       0       0       
      +0       0
  2286 ;;      Temps:          0       1       0       0       0       0       0       0       0       0       0       0       
      +0       0
  2287 ;;      Totals:         0       2       0       0       0       0       0       0       0       0       0       0       
      +0       0
  2288 ;;Total ram usage:        2 bytes
  2289 ;; Hardware stack levels used:    1
  2290 ;; Hardware stack levels required when called:    6
  2291 ;; This function calls:
  2292 ;;		Nothing
  2293 ;; This function is called by:
  2294 ;;		_CheckUsb
  2295 ;; This function uses a non-reentrant model
  2296 ;;
  2297                           
  2298                           
  2299                           ;psect for function _IsUsbDataAvaialble
  2300  0767                     _IsUsbDataAvaialble:	
  2301                           
  2302                           ;incstack = 0
  2303                           ; Regs used in _IsUsbDataAvaialble: [wreg+fsr1l+fsr1h+status,2+status,0]
  2304                           ;IsUsbDataAvaialble@InterfaceNo stored from wreg
  2305  0767  0020               	movlb	0	; select bank0
  2306  0768  00DD               	movwf	IsUsbDataAvaialble@InterfaceNo
  2307  0769                     l2044:	
  2308                           
  2309                           ;Source/Usb.c: 186: uint8_t IsUsbDataAvaialble(uint8_t InterfaceNo);Source/Usb.c: 187: {
      +                          ;Source/Usb.c: 188:     if(InterfaceNo >= 0x01) return 0;
  2310  0769  085D               	movf	IsUsbDataAvaialble@InterfaceNo,w
  2311  076A  1903               	btfsc	3,2
  2312  076B  2F6D               	goto	u1951
  2313  076C  2F6E               	goto	u1950
  2314  076D                     u1951:	
  2315  076D  2F70               	goto	l2050
  2316  076E                     u1950:	
  2317  076E                     l2046:	
  2318  076E  3000               	movlw	0
  2319  076F  2F8B               	goto	l208
  2320  0770                     l2050:	
  2321                           
  2322                           ;Source/Usb.c: 189:     if(!(Interfaces[InterfaceNo + 1].Output.Stat & 0x80))
  2323  0770  085D               	movf	IsUsbDataAvaialble@InterfaceNo,w
  2324  0771  00DC               	movwf	??_IsUsbDataAvaialble
  2325  0772  3002               	movlw	2
  2326  0773                     u1965:	
  2327  0773  35DC               	lslf	??_IsUsbDataAvaialble,f
  2328  0774  3EFF               	addlw	-1
  2329  0775  1D03               	skipz
  2330  0776  2F73               	goto	u1965
  2331  0777  355C               	lslf	??_IsUsbDataAvaialble,w
  2332  0778  3E28               	addlw	40
  2333  0779  0086               	movwf	6
  2334  077A  0187               	clrf	7
  2335  077B  1B81               	btfsc	1,7
  2336  077C  2F7E               	goto	u1971
  2337  077D  2F7F               	goto	u1970
  2338  077E                     u1971:	
  2339  077E  2F6E               	goto	l2046
  2340  077F                     u1970:	
  2341  077F                     l2052:	
  2342                           
  2343                           ;Source/Usb.c: 190:     {;Source/Usb.c: 191:         return Interfaces[InterfaceNo + 1].
      +                          Output.Cnt;
  2344  077F  085D               	movf	IsUsbDataAvaialble@InterfaceNo,w
  2345  0780  00DC               	movwf	??_IsUsbDataAvaialble
  2346  0781  3002               	movlw	2
  2347  0782                     u1985:	
  2348  0782  35DC               	lslf	??_IsUsbDataAvaialble,f
  2349  0783  3EFF               	addlw	-1
  2350  0784  1D03               	skipz
  2351  0785  2F82               	goto	u1985
  2352  0786  355C               	lslf	??_IsUsbDataAvaialble,w
  2353  0787  3E29               	addlw	41
  2354  0788  0086               	movwf	6
  2355  0789  0187               	clrf	7
  2356  078A  0801               	movf	1,w
  2357  078B                     l208:	
  2358  078B  0008               	return
  2359  078C                     __end_of_IsUsbDataAvaialble:	
  2360                           
  2361                           	psect	text10
  2362  0F7F                     __ptext10:	
  2363 ;; *************** function _NES_GPIO_Initialize *****************
  2364 ;; Defined at:
  2365 ;;		line 31 in file "Source/nes_keyboard.c"
  2366 ;; Parameters:    Size  Location     Type
  2367 ;;		None
  2368 ;; Auto vars:     Size  Location     Type
  2369 ;;		None
  2370 ;; Return value:  Size  Location     Type
  2371 ;;                  1    wreg      void 
  2372 ;; Registers used:
  2373 ;;		None
  2374 ;; Tracked objects:
  2375 ;;		On entry : 0/0
  2376 ;;		On exit  : 0/0
  2377 ;;		Unchanged: 0/0
  2378 ;; Data sizes:     COMMON   BANK0   BANK1   BANK2   BANK3   BANK4   BANK5   BANK6   BANK7   BANK8   BANK9  BANK10  BANK1
      +1  BANK12
  2379 ;;      Params:         0       0       0       0       0       0       0       0       0       0       0       0       
      +0       0
  2380 ;;      Locals:         0       0       0       0       0       0       0       0       0       0       0       0       
      +0       0
  2381 ;;      Temps:          0       0       0       0       0       0       0       0       0       0       0       0       
      +0       0
  2382 ;;      Totals:         0       0       0       0       0       0       0       0       0       0       0       0       
      +0       0
  2383 ;;Total ram usage:        0 bytes
  2384 ;; Hardware stack levels used:    1
  2385 ;; Hardware stack levels required when called:    6
  2386 ;; This function calls:
  2387 ;;		Nothing
  2388 ;; This function is called by:
  2389 ;;		_main
  2390 ;; This function uses a non-reentrant model
  2391 ;;
  2392                           
  2393                           
  2394                           ;psect for function _NES_GPIO_Initialize
  2395  0F7F                     _NES_GPIO_Initialize:	
  2396  0F7F                     l2432:	
  2397                           ;incstack = 0
  2398                           ; Regs used in _NES_GPIO_Initialize: []
  2399                           
  2400                           
  2401                           ;Source/nes_keyboard.c: 33:     ANSELCbits.ANSC3 = 0;
  2402  0F7F  0023               	movlb	3	; select bank3
  2403  0F80  118E               	bcf	14,3	;volatile
  2404                           
  2405                           ;Source/nes_keyboard.c: 34:     TRISCbits.TRISC3 = 1;
  2406  0F81  0021               	movlb	1	; select bank1
  2407  0F82  158E               	bsf	14,3	;volatile
  2408                           
  2409                           ;Source/nes_keyboard.c: 35:     TRISCbits.TRISC4 = 0;
  2410  0F83  120E               	bcf	14,4	;volatile
  2411                           
  2412                           ;Source/nes_keyboard.c: 36:     TRISCbits.TRISC5 = 0;
  2413  0F84  128E               	bcf	14,5	;volatile
  2414                           
  2415                           ;Source/nes_keyboard.c: 38:     ANSELAbits.ANSA4 = 0;
  2416  0F85  0023               	movlb	3	; select bank3
  2417  0F86  120C               	bcf	12,4	;volatile
  2418                           
  2419                           ;Source/nes_keyboard.c: 39:     TRISAbits.TRISA4 = 0;
  2420  0F87  0021               	movlb	1	; select bank1
  2421  0F88  120C               	bcf	12,4	;volatile
  2422  0F89                     l437:	
  2423  0F89  0008               	return
  2424  0F8A                     __end_of_NES_GPIO_Initialize:	
  2425                           
  2426                           	psect	text11
  2427  0FB4                     __ptext11:	
  2428 ;; *************** function _InitializeUSB *****************
  2429 ;; Defined at:
  2430 ;;		line 762 in file "Source/Usb.c"
  2431 ;; Parameters:    Size  Location     Type
  2432 ;;		None
  2433 ;; Auto vars:     Size  Location     Type
  2434 ;;		None
  2435 ;; Return value:  Size  Location     Type
  2436 ;;                  1    wreg      void 
  2437 ;; Registers used:
  2438 ;;		wreg, status,2, status,0, pclath, cstack
  2439 ;; Tracked objects:
  2440 ;;		On entry : 0/0
  2441 ;;		On exit  : 0/0
  2442 ;;		Unchanged: 0/0
  2443 ;; Data sizes:     COMMON   BANK0   BANK1   BANK2   BANK3   BANK4   BANK5   BANK6   BANK7   BANK8   BANK9  BANK10  BANK1
      +1  BANK12
  2444 ;;      Params:         0       0       0       0       0       0       0       0       0       0       0       0       
      +0       0
  2445 ;;      Locals:         0       0       0       0       0       0       0       0       0       0       0       0       
      +0       0
  2446 ;;      Temps:          0       0       0       0       0       0       0       0       0       0       0       0       
      +0       0
  2447 ;;      Totals:         0       0       0       0       0       0       0       0       0       0       0       0       
      +0       0
  2448 ;;Total ram usage:        0 bytes
  2449 ;; Hardware stack levels used:    1
  2450 ;; Hardware stack levels required when called:    7
  2451 ;; This function calls:
  2452 ;;		_ResetPPBuffers
  2453 ;; This function is called by:
  2454 ;;		_main
  2455 ;; This function uses a non-reentrant model
  2456 ;;
  2457                           
  2458                           
  2459                           ;psect for function _InitializeUSB
  2460  0FB4                     _InitializeUSB:	
  2461  0FB4                     l2434:	
  2462                           ;incstack = 0
  2463                           ; Regs used in _InitializeUSB: [wreg+status,2+status,0+pclath+cstack]
  2464                           
  2465                           
  2466                           ;Source/Usb.c: 764:     UCFG = 0x14;
  2467  0FB4  3014               	movlw	20
  2468  0FB5  003D               	movlb	29	; select bank29
  2469  0FB6  0091               	movwf	17	;volatile
  2470  0FB7                     l2436:	
  2471                           
  2472                           ;Source/Usb.c: 765:     DeviceState = 0x00;
  2473  0FB7  0020               	movlb	0	; select bank0
  2474  0FB8  01BF               	clrf	_DeviceState
  2475  0FB9                     l2438:	
  2476                           
  2477                           ;Source/Usb.c: 766:     RemoteWakeup = 0x00;
  2478  0FB9  01BD               	clrf	_RemoteWakeup
  2479  0FBA                     l2440:	
  2480                           
  2481                           ;Source/Usb.c: 767:     CurrentConfiguration = 0x00;
  2482  0FBA  01DB               	clrf	_CurrentConfiguration
  2483  0FBB                     l2442:	
  2484                           
  2485                           ;Source/Usb.c: 768:     UADDR = 0;
  2486  0FBB  003D               	movlb	29	; select bank29
  2487  0FBC  0196               	clrf	22	;volatile
  2488  0FBD                     l2444:	
  2489                           
  2490                           ;Source/Usb.c: 769:     UEIR = 0;
  2491  0FBD  0193               	clrf	19	;volatile
  2492  0FBE                     l2446:	
  2493                           
  2494                           ;Source/Usb.c: 770:     ResetPPBuffers();
  2495  0FBE  318F  275B  318F   	fcall	_ResetPPBuffers
  2496  0FC1                     l2448:	
  2497                           
  2498                           ;Source/Usb.c: 771:     UCONbits.PKTDIS = 0;
  2499  0FC1  003D               	movlb	29	; select bank29
  2500  0FC2  120E               	bcf	14,4	;volatile
  2501  0FC3                     l377:	
  2502  0FC3  0008               	return
  2503  0FC4                     __end_of_InitializeUSB:	
  2504                           
  2505                           	psect	text12
  2506  0F5B                     __ptext12:	
  2507 ;; *************** function _ResetPPBuffers *****************
  2508 ;; Defined at:
  2509 ;;		line 753 in file "Source/Usb.c"
  2510 ;; Parameters:    Size  Location     Type
  2511 ;;		None
  2512 ;; Auto vars:     Size  Location     Type
  2513 ;;		None
  2514 ;; Return value:  Size  Location     Type
  2515 ;;                  1    wreg      void 
  2516 ;; Registers used:
  2517 ;;		None
  2518 ;; Tracked objects:
  2519 ;;		On entry : 0/0
  2520 ;;		On exit  : 0/0
  2521 ;;		Unchanged: 0/0
  2522 ;; Data sizes:     COMMON   BANK0   BANK1   BANK2   BANK3   BANK4   BANK5   BANK6   BANK7   BANK8   BANK9  BANK10  BANK1
      +1  BANK12
  2523 ;;      Params:         0       0       0       0       0       0       0       0       0       0       0       0       
      +0       0
  2524 ;;      Locals:         0       0       0       0       0       0       0       0       0       0       0       0       
      +0       0
  2525 ;;      Temps:          0       0       0       0       0       0       0       0       0       0       0       0       
      +0       0
  2526 ;;      Totals:         0       0       0       0       0       0       0       0       0       0       0       0       
      +0       0
  2527 ;;Total ram usage:        0 bytes
  2528 ;; Hardware stack levels used:    1
  2529 ;; Hardware stack levels required when called:    6
  2530 ;; This function calls:
  2531 ;;		Nothing
  2532 ;; This function is called by:
  2533 ;;		_InitializeUSB
  2534 ;; This function uses a non-reentrant model
  2535 ;;
  2536                           
  2537                           
  2538                           ;psect for function _ResetPPBuffers
  2539  0F5B                     _ResetPPBuffers:	
  2540  0F5B                     l372:	
  2541                           ;incstack = 0
  2542                           ; Regs used in _ResetPPBuffers: []
  2543                           ;Source/Usb.c: 755:     do
  2544                           
  2545                           
  2546                           ;Source/Usb.c: 756:     {;Source/Usb.c: 757:         UCONbits.PPBRST = 1;
  2547  0F5B  003D               	movlb	29	; select bank29
  2548  0F5C  170E               	bsf	14,6	;volatile
  2549                           
  2550                           ;Source/Usb.c: 758:  UCONbits.PPBRST = 0;
  2551  0F5D  130E               	bcf	14,6	;volatile
  2552  0F5E                     l374:	
  2553  0F5E  0008               	return
  2554  0F5F                     __end_of_ResetPPBuffers:	
  2555                           
  2556                           	psect	text13
  2557  0FA4                     __ptext13:	
  2558 ;; *************** function _InitializeSystem *****************
  2559 ;; Defined at:
  2560 ;;		line 58 in file "Source/Main.c"
  2561 ;; Parameters:    Size  Location     Type
  2562 ;;		None
  2563 ;; Auto vars:     Size  Location     Type
  2564 ;;		None
  2565 ;; Return value:  Size  Location     Type
  2566 ;;                  1    wreg      void 
  2567 ;; Registers used:
  2568 ;;		wreg, status,2
  2569 ;; Tracked objects:
  2570 ;;		On entry : 0/0
  2571 ;;		On exit  : 0/0
  2572 ;;		Unchanged: 0/0
  2573 ;; Data sizes:     COMMON   BANK0   BANK1   BANK2   BANK3   BANK4   BANK5   BANK6   BANK7   BANK8   BANK9  BANK10  BANK1
      +1  BANK12
  2574 ;;      Params:         0       0       0       0       0       0       0       0       0       0       0       0       
      +0       0
  2575 ;;      Locals:         0       0       0       0       0       0       0       0       0       0       0       0       
      +0       0
  2576 ;;      Temps:          0       0       0       0       0       0       0       0       0       0       0       0       
      +0       0
  2577 ;;      Totals:         0       0       0       0       0       0       0       0       0       0       0       0       
      +0       0
  2578 ;;Total ram usage:        0 bytes
  2579 ;; Hardware stack levels used:    1
  2580 ;; Hardware stack levels required when called:    6
  2581 ;; This function calls:
  2582 ;;		Nothing
  2583 ;; This function is called by:
  2584 ;;		_main
  2585 ;; This function uses a non-reentrant model
  2586 ;;
  2587                           
  2588                           
  2589                           ;psect for function _InitializeSystem
  2590  0FA4                     _InitializeSystem:	
  2591  0FA4                     l2398:	
  2592                           ;incstack = 0
  2593                           ; Regs used in _InitializeSystem: [wreg+status,2]
  2594                           
  2595                           
  2596                           ;Source/Main.c: 60:                 if (index > max_buttons)
  2597  0FA4  0023               	movlb	3	; select bank3
  2598  0FA5  018C               	clrf	12	;volatile
  2599                           
  2600                           ;Source/Main.c: 61:                 {
  2601  0FA6  018E               	clrf	14	;volatile
  2602                           
  2603                           ;Source/Main.c: 62:                     break;
  2604  0FA7  0021               	movlb	1	; select bank1
  2605  0FA8  0198               	clrf	24	;volatile
  2606  0FA9                     l2400:	
  2607                           
  2608                           ;Source/Main.c: 63:                 }
  2609  0FA9  30FC               	movlw	252
  2610  0FAA  0099               	movwf	25	;volatile
  2611  0FAB                     l2402:	
  2612                           
  2613                           ;Source/Main.c: 64:             }
  2614  0FAB  3090               	movlw	144
  2615  0FAC  0027               	movlb	7	; select bank7
  2616  0FAD  009B               	movwf	27	;volatile
  2617  0FAE                     l2404:	
  2618                           
  2619                           ;Source/Main.c: 65:             i++;
  2620  0FAE  30C3               	movlw	195
  2621  0FAF  0021               	movlb	1	; select bank1
  2622  0FB0  0095               	movwf	21	;volatile
  2623  0FB1                     l2406:	
  2624                           
  2625                           ;Source/Main.c: 68:     else
  2626  0FB1  0022               	movlb	2	; select bank2
  2627  0FB2  018E               	clrf	14	;volatile
  2628  0FB3                     l77:	
  2629  0FB3  0008               	return
  2630  0FB4                     __end_of_InitializeSystem:	
  2631                           
  2632                           	psect	text14
  2633  07C4                     __ptext14:	
  2634 ;; *************** function _EnableUSBModule *****************
  2635 ;; Defined at:
  2636 ;;		line 774 in file "Source/Usb.c"
  2637 ;; Parameters:    Size  Location     Type
  2638 ;;		None
  2639 ;; Auto vars:     Size  Location     Type
  2640 ;;		None
  2641 ;; Return value:  Size  Location     Type
  2642 ;;                  1    wreg      void 
  2643 ;; Registers used:
  2644 ;;		wreg, status,2
  2645 ;; Tracked objects:
  2646 ;;		On entry : 0/0
  2647 ;;		On exit  : 0/0
  2648 ;;		Unchanged: 0/0
  2649 ;; Data sizes:     COMMON   BANK0   BANK1   BANK2   BANK3   BANK4   BANK5   BANK6   BANK7   BANK8   BANK9  BANK10  BANK1
      +1  BANK12
  2650 ;;      Params:         0       0       0       0       0       0       0       0       0       0       0       0       
      +0       0
  2651 ;;      Locals:         0       0       0       0       0       0       0       0       0       0       0       0       
      +0       0
  2652 ;;      Temps:          0       1       0       0       0       0       0       0       0       0       0       0       
      +0       0
  2653 ;;      Totals:         0       1       0       0       0       0       0       0       0       0       0       0       
      +0       0
  2654 ;;Total ram usage:        1 bytes
  2655 ;; Hardware stack levels used:    1
  2656 ;; Hardware stack levels required when called:    6
  2657 ;; This function calls:
  2658 ;;		Nothing
  2659 ;; This function is called by:
  2660 ;;		_main
  2661 ;; This function uses a non-reentrant model
  2662 ;;
  2663                           
  2664                           
  2665                           ;psect for function _EnableUSBModule
  2666  07C4                     _EnableUSBModule:	
  2667  07C4                     l2450:	
  2668                           ;incstack = 0
  2669                           ; Regs used in _EnableUSBModule: [wreg+status,2]
  2670                           
  2671                           
  2672                           ;Source/Usb.c: 778:     if(UCONbits.USBEN == 0)
  2673  07C4  003D               	movlb	29	; select bank29
  2674  07C5  198E               	btfsc	14,3	;volatile
  2675  07C6  2FC8               	goto	u2621
  2676  07C7  2FC9               	goto	u2620
  2677  07C8                     u2621:	
  2678  07C8  2FCF               	goto	l381
  2679  07C9                     u2620:	
  2680  07C9                     l2452:	
  2681                           
  2682                           ;Source/Usb.c: 779:     {;Source/Usb.c: 780:         UCON = 0;
  2683  07C9  018E               	clrf	14	;volatile
  2684                           
  2685                           ;Source/Usb.c: 781:         UIE = 0;
  2686  07CA  0192               	clrf	18	;volatile
  2687  07CB                     l2454:	
  2688                           
  2689                           ;Source/Usb.c: 782:         UCONbits.USBEN = 1;
  2690  07CB  158E               	bsf	14,3	;volatile
  2691  07CC                     l2456:	
  2692                           
  2693                           ;Source/Usb.c: 783:         DeviceState = 0x01;
  2694  07CC  0020               	movlb	0	; select bank0
  2695  07CD  01BF               	clrf	_DeviceState
  2696  07CE  0ABF               	incf	_DeviceState,f
  2697  07CF                     l381:	
  2698  07CF  003D               	movlb	29	; select bank29
  2699  07D0  1A8E               	btfsc	14,5	;volatile
  2700  07D1  2FD3               	goto	u2631
  2701  07D2  2FD4               	goto	u2630
  2702  07D3                     u2631:	
  2703  07D3  2FCF               	goto	l381
  2704  07D4                     u2630:	
  2705  07D4                     l2458:	
  2706                           
  2707                           ;Source/Usb.c: 790:     UIR = 0;
  2708  07D4  0190               	clrf	16	;volatile
  2709                           
  2710                           ;Source/Usb.c: 791:     UIE = 0;
  2711  07D5  0192               	clrf	18	;volatile
  2712  07D6                     l2460:	
  2713                           
  2714                           ;Source/Usb.c: 792:     UIEbits.URSTIE = 1;
  2715  07D6  1412               	bsf	18,0	;volatile
  2716  07D7                     l2462:	
  2717                           
  2718                           ;Source/Usb.c: 793:     UIEbits.IDLEIE = 1;
  2719  07D7  1612               	bsf	18,4	;volatile
  2720  07D8                     l2464:	
  2721                           
  2722                           ;Source/Usb.c: 794:     DeviceState = 0x02;
  2723  07D8  3002               	movlw	2
  2724  07D9  0020               	movlb	0	; select bank0
  2725  07DA  00DC               	movwf	??_EnableUSBModule
  2726  07DB  085C               	movf	??_EnableUSBModule,w
  2727  07DC  00BF               	movwf	_DeviceState
  2728  07DD                     l384:	
  2729  07DD  0008               	return
  2730  07DE                     __end_of_EnableUSBModule:	
  2731                           
  2732                           	psect	text15
  2733  07F6                     __ptext15:	
  2734 ;; *************** function _EnableInterrupts *****************
  2735 ;; Defined at:
  2736 ;;		line 71 in file "Source/Main.c"
  2737 ;; Parameters:    Size  Location     Type
  2738 ;;		None
  2739 ;; Auto vars:     Size  Location     Type
  2740 ;;		None
  2741 ;; Return value:  Size  Location     Type
  2742 ;;                  1    wreg      void 
  2743 ;; Registers used:
  2744 ;;		wreg
  2745 ;; Tracked objects:
  2746 ;;		On entry : 0/0
  2747 ;;		On exit  : 0/0
  2748 ;;		Unchanged: 0/0
  2749 ;; Data sizes:     COMMON   BANK0   BANK1   BANK2   BANK3   BANK4   BANK5   BANK6   BANK7   BANK8   BANK9  BANK10  BANK1
      +1  BANK12
  2750 ;;      Params:         0       0       0       0       0       0       0       0       0       0       0       0       
      +0       0
  2751 ;;      Locals:         0       0       0       0       0       0       0       0       0       0       0       0       
      +0       0
  2752 ;;      Temps:          0       0       0       0       0       0       0       0       0       0       0       0       
      +0       0
  2753 ;;      Totals:         0       0       0       0       0       0       0       0       0       0       0       0       
      +0       0
  2754 ;;Total ram usage:        0 bytes
  2755 ;; Hardware stack levels used:    1
  2756 ;; Hardware stack levels required when called:    6
  2757 ;; This function calls:
  2758 ;;		Nothing
  2759 ;; This function is called by:
  2760 ;;		_main
  2761 ;; This function uses a non-reentrant model
  2762 ;;
  2763                           
  2764                           
  2765                           ;psect for function _EnableInterrupts
  2766  07F6                     _EnableInterrupts:	
  2767  07F6                     l2408:	
  2768                           ;incstack = 0
  2769                           ; Regs used in _EnableInterrupts: [wreg]
  2770                           
  2771                           
  2772                           ;Source/Main.c: 73: 
  2773  07F6  304B               	movlw	75
  2774  07F7  003D               	movlb	29	; select bank29
  2775  07F8  0092               	movwf	18	;volatile
  2776  07F9                     l2410:	
  2777                           
  2778                           ;Source/Main.c: 74: void ProcessIncommingData(void)
  2779  07F9  170B               	bsf	11,6	;volatile
  2780  07FA                     l2412:	
  2781                           
  2782                           ;Source/Main.c: 75: {
  2783  07FA  178B               	bsf	11,7	;volatile
  2784  07FB                     l2414:	
  2785                           
  2786                           ;Source/Main.c: 76: 
  2787  07FB  0021               	movlb	1	; select bank1
  2788  07FC  1512               	bsf	18,2	;volatile
  2789  07FD                     l80:	
  2790  07FD  0008               	return
  2791  07FE                     __end_of_EnableInterrupts:	
  2792                           
  2793                           	psect	intentry
  2794  0004                     __pintentry:	
  2795 ;; *************** function _ISRCode *****************
  2796 ;; Defined at:
  2797 ;;		line 53 in file "Source/Main.c"
  2798 ;; Parameters:    Size  Location     Type
  2799 ;;		None
  2800 ;; Auto vars:     Size  Location     Type
  2801 ;;		None
  2802 ;; Return value:  Size  Location     Type
  2803 ;;                  1    wreg      void 
  2804 ;; Registers used:
  2805 ;;		wreg, fsr0l, fsr0h, fsr1l, fsr1h, status,2, status,0, pclath, cstack
  2806 ;; Tracked objects:
  2807 ;;		On entry : 0/0
  2808 ;;		On exit  : 0/0
  2809 ;;		Unchanged: 0/0
  2810 ;; Data sizes:     COMMON   BANK0   BANK1   BANK2   BANK3   BANK4   BANK5   BANK6   BANK7   BANK8   BANK9  BANK10  BANK1
      +1  BANK12
  2811 ;;      Params:         0       0       0       0       0       0       0       0       0       0       0       0       
      +0       0
  2812 ;;      Locals:         0       0       0       0       0       0       0       0       0       0       0       0       
      +0       0
  2813 ;;      Temps:          0       0       0       0       0       0       0       0       0       0       0       0       
      +0       0
  2814 ;;      Totals:         0       0       0       0       0       0       0       0       0       0       0       0       
      +0       0
  2815 ;;Total ram usage:        0 bytes
  2816 ;; Hardware stack levels used:    1
  2817 ;; Hardware stack levels required when called:    5
  2818 ;; This function calls:
  2819 ;;		_ProcessUSBTransactions
  2820 ;; This function is called by:
  2821 ;;		Interrupt level 1
  2822 ;; This function uses a non-reentrant model
  2823 ;;
  2824                           
  2825  0004                     _ISRCode:	
  2826                           
  2827                           ;incstack = 0
  2828  0004  147E               	bsf	int$flags,0	;set compiler interrupt flag (level 1)
  2829                           
  2830                           ; Regs used in _ISRCode: [wreg-fsr1h+status,2+status,0+pclath+cstack]
  2831  0005  3180               	pagesel	$
  2832  0006                     i1l2466:	
  2833                           
  2834                           ;Source/Main.c: 55:         while( button_key_maps[i].button != ((void*)0) )
  2835  0006  0020               	movlb	0	; select bank0
  2836  0007  1D12               	btfss	18,2	;volatile
  2837  0008  280A               	goto	u264_21
  2838  0009  280B               	goto	u264_20
  2839  000A                     u264_21:	
  2840  000A  280E               	goto	i1l74
  2841  000B                     u264_20:	
  2842  000B                     i1l2468:	
  2843  000B  3181  216C  3180   	fcall	_ProcessUSBTransactions
  2844  000E                     i1l74:	
  2845  000E  107E               	bcf	int$flags,0	;clear compiler interrupt flag (level 1)
  2846  000F  0009               	retfie
  2847  0010                     __end_of_ISRCode:	
  2848                           
  2849                           	psect	text17
  2850  016C                     __ptext17:	
  2851 ;; *************** function _ProcessUSBTransactions *****************
  2852 ;; Defined at:
  2853 ;;		line 860 in file "Source/Usb.c"
  2854 ;; Parameters:    Size  Location     Type
  2855 ;;		None
  2856 ;; Auto vars:     Size  Location     Type
  2857 ;;		None
  2858 ;; Return value:  Size  Location     Type
  2859 ;;                  1    wreg      void 
  2860 ;; Registers used:
  2861 ;;		wreg, fsr0l, fsr0h, fsr1l, fsr1h, status,2, status,0, pclath, cstack
  2862 ;; Tracked objects:
  2863 ;;		On entry : 0/0
  2864 ;;		On exit  : 0/0
  2865 ;;		Unchanged: 0/0
  2866 ;; Data sizes:     COMMON   BANK0   BANK1   BANK2   BANK3   BANK4   BANK5   BANK6   BANK7   BANK8   BANK9  BANK10  BANK1
      +1  BANK12
  2867 ;;      Params:         0       0       0       0       0       0       0       0       0       0       0       0       
      +0       0
  2868 ;;      Locals:         0       0       0       0       0       0       0       0       0       0       0       0       
      +0       0
  2869 ;;      Temps:          1       0       0       0       0       0       0       0       0       0       0       0       
      +0       0
  2870 ;;      Totals:         1       0       0       0       0       0       0       0       0       0       0       0       
      +0       0
  2871 ;;Total ram usage:        1 bytes
  2872 ;; Hardware stack levels used:    1
  2873 ;; Hardware stack levels required when called:    4
  2874 ;; This function calls:
  2875 ;;		_BusReset
  2876 ;;		_ProcessControlTransfer
  2877 ;;		_Stall
  2878 ;;		_StartOfFrame
  2879 ;;		_Suspend
  2880 ;;		_UnSuspend
  2881 ;; This function is called by:
  2882 ;;		_ISRCode
  2883 ;; This function uses a non-reentrant model
  2884 ;;
  2885                           
  2886                           
  2887                           ;psect for function _ProcessUSBTransactions
  2888  016C                     _ProcessUSBTransactions:	
  2889  016C                     i1l2320:	
  2890                           ;incstack = 0
  2891                           ; Regs used in _ProcessUSBTransactions: [wreg-fsr1h+status,2+status,0+pclath+cstack]
  2892                           
  2893                           
  2894                           ;Source/Usb.c: 863:     if(DeviceState == 0x00)
  2895  016C  0020               	movlb	0	; select bank0
  2896  016D  083F               	movf	_DeviceState,w
  2897  016E  1D03               	btfss	3,2
  2898  016F  2971               	goto	u242_21
  2899  0170  2972               	goto	u242_20
  2900  0171                     u242_21:	
  2901  0171  2977               	goto	i1l406
  2902  0172                     u242_20:	
  2903  0172                     i1l2322:	
  2904                           
  2905                           ;Source/Usb.c: 864:     {;Source/Usb.c: 865:         UIR = 0;
  2906  0172  003D               	movlb	29	; select bank29
  2907  0173  0190               	clrf	16	;volatile
  2908  0174                     i1l2324:	
  2909                           
  2910                           ;Source/Usb.c: 866:         PIR2bits.USBIF = 0;
  2911  0174  0020               	movlb	0	; select bank0
  2912  0175  1112               	bcf	18,2	;volatile
  2913  0176  29FD               	goto	i1l407
  2914  0177                     i1l406:	
  2915                           ;Source/Usb.c: 868:     }
  2916                           
  2917                           
  2918                           ;Source/Usb.c: 871:     if(UIRbits.ACTVIF && UIEbits.ACTVIE)
  2919  0177  003D               	movlb	29	; select bank29
  2920  0178  1D10               	btfss	16,2	;volatile
  2921  0179  297B               	goto	u243_21
  2922  017A  297C               	goto	u243_20
  2923  017B                     u243_21:	
  2924  017B  2988               	goto	i1l2334
  2925  017C                     u243_20:	
  2926  017C                     i1l2328:	
  2927  017C  1D12               	btfss	18,2	;volatile
  2928  017D  297F               	goto	u244_21
  2929  017E  2980               	goto	u244_20
  2930  017F                     u244_21:	
  2931  017F  2988               	goto	i1l2334
  2932  0180                     u244_20:	
  2933  0180                     i1l2330:	
  2934                           
  2935                           ;Source/Usb.c: 872:     {;Source/Usb.c: 873:         UnSuspend();
  2936  0180  318F  2777  3181   	fcall	_UnSuspend
  2937  0183                     i1l2332:	
  2938                           
  2939                           ;Source/Usb.c: 874:  UIR &= ~(0x04);
  2940  0183  30FB               	movlw	251
  2941  0184  00FC               	movwf	??_ProcessUSBTransactions
  2942  0185  087C               	movf	??_ProcessUSBTransactions,w
  2943  0186  003D               	movlb	29	; select bank29
  2944  0187  0590               	andwf	16,f	;volatile
  2945  0188                     i1l2334:	
  2946                           
  2947                           ;Source/Usb.c: 879:     if(UCONbits.SUSPND == 1)
  2948  0188  1C8E               	btfss	14,1	;volatile
  2949  0189  298B               	goto	u245_21
  2950  018A  298C               	goto	u245_20
  2951  018B                     u245_21:	
  2952  018B  2990               	goto	i1l409
  2953  018C                     u245_20:	
  2954  018C                     i1l2336:	
  2955                           
  2956                           ;Source/Usb.c: 880:     {;Source/Usb.c: 881:         UIR = 0;
  2957  018C  0190               	clrf	16	;volatile
  2958  018D                     i1l2338:	
  2959                           
  2960                           ;Source/Usb.c: 882:         PIR2bits.USBIF = 0;
  2961  018D  0020               	movlb	0	; select bank0
  2962  018E  1112               	bcf	18,2	;volatile
  2963  018F  29FD               	goto	i1l407
  2964  0190                     i1l409:	
  2965                           ;Source/Usb.c: 884:     }
  2966                           
  2967                           
  2968                           ;Source/Usb.c: 887:     if (UIRbits.URSTIF && UIEbits.URSTIE)
  2969  0190  1C10               	btfss	16,0	;volatile
  2970  0191  2993               	goto	u246_21
  2971  0192  2994               	goto	u246_20
  2972  0193                     u246_21:	
  2973  0193  29A0               	goto	i1l2348
  2974  0194                     u246_20:	
  2975  0194                     i1l2342:	
  2976  0194  1C12               	btfss	18,0	;volatile
  2977  0195  2997               	goto	u247_21
  2978  0196  2998               	goto	u247_20
  2979  0197                     u247_21:	
  2980  0197  29A0               	goto	i1l2348
  2981  0198                     u247_20:	
  2982  0198                     i1l2344:	
  2983                           
  2984                           ;Source/Usb.c: 888:     {;Source/Usb.c: 889:         BusReset();
  2985  0198  3187  278C  3181   	fcall	_BusReset
  2986  019B                     i1l2346:	
  2987                           
  2988                           ;Source/Usb.c: 890:      UIR &= ~(0x01);
  2989  019B  30FE               	movlw	254
  2990  019C  00FC               	movwf	??_ProcessUSBTransactions
  2991  019D  087C               	movf	??_ProcessUSBTransactions,w
  2992  019E  003D               	movlb	29	; select bank29
  2993  019F  0590               	andwf	16,f	;volatile
  2994  01A0                     i1l2348:	
  2995                           
  2996                           ;Source/Usb.c: 893:     if (UIRbits.IDLEIF && UIEbits.IDLEIE)
  2997  01A0  1E10               	btfss	16,4	;volatile
  2998  01A1  29A3               	goto	u248_21
  2999  01A2  29A4               	goto	u248_20
  3000  01A3                     u248_21:	
  3001  01A3  29B0               	goto	i1l2356
  3002  01A4                     u248_20:	
  3003  01A4                     i1l2350:	
  3004  01A4  1E12               	btfss	18,4	;volatile
  3005  01A5  29A7               	goto	u249_21
  3006  01A6  29A8               	goto	u249_20
  3007  01A7                     u249_21:	
  3008  01A7  29B0               	goto	i1l2356
  3009  01A8                     u249_20:	
  3010  01A8                     i1l2352:	
  3011                           
  3012                           ;Source/Usb.c: 894:     {;Source/Usb.c: 896:         Suspend();
  3013  01A8  318F  276F  3181   	fcall	_Suspend
  3014  01AB                     i1l2354:	
  3015                           
  3016                           ;Source/Usb.c: 897:      UIR &= ~(0x10);
  3017  01AB  30EF               	movlw	239
  3018  01AC  00FC               	movwf	??_ProcessUSBTransactions
  3019  01AD  087C               	movf	??_ProcessUSBTransactions,w
  3020  01AE  003D               	movlb	29	; select bank29
  3021  01AF  0590               	andwf	16,f	;volatile
  3022  01B0                     i1l2356:	
  3023                           
  3024                           ;Source/Usb.c: 900:     if (UIRbits.SOFIF && UIEbits.SOFIE)
  3025  01B0  1F10               	btfss	16,6	;volatile
  3026  01B1  29B3               	goto	u250_21
  3027  01B2  29B4               	goto	u250_20
  3028  01B3                     u250_21:	
  3029  01B3  29C0               	goto	i1l2364
  3030  01B4                     u250_20:	
  3031  01B4                     i1l2358:	
  3032  01B4  1F12               	btfss	18,6	;volatile
  3033  01B5  29B7               	goto	u251_21
  3034  01B6  29B8               	goto	u251_20
  3035  01B7                     u251_21:	
  3036  01B7  29C0               	goto	i1l2364
  3037  01B8                     u251_20:	
  3038  01B8                     i1l2360:	
  3039                           
  3040                           ;Source/Usb.c: 901:     {;Source/Usb.c: 902:         StartOfFrame();
  3041  01B8  318F  2758  3181   	fcall	_StartOfFrame
  3042  01BB                     i1l2362:	
  3043                           
  3044                           ;Source/Usb.c: 903:         UIR &= ~(0x40);
  3045  01BB  30BF               	movlw	191
  3046  01BC  00FC               	movwf	??_ProcessUSBTransactions
  3047  01BD  087C               	movf	??_ProcessUSBTransactions,w
  3048  01BE  003D               	movlb	29	; select bank29
  3049  01BF  0590               	andwf	16,f	;volatile
  3050  01C0                     i1l2364:	
  3051                           
  3052                           ;Source/Usb.c: 906:     if (UIRbits.STALLIF && UIEbits.STALLIE)
  3053  01C0  1E90               	btfss	16,5	;volatile
  3054  01C1  29C3               	goto	u252_21
  3055  01C2  29C4               	goto	u252_20
  3056  01C3                     u252_21:	
  3057  01C3  29D0               	goto	i1l2372
  3058  01C4                     u252_20:	
  3059  01C4                     i1l2366:	
  3060  01C4  1E92               	btfss	18,5	;volatile
  3061  01C5  29C7               	goto	u253_21
  3062  01C6  29C8               	goto	u253_20
  3063  01C7                     u253_21:	
  3064  01C7  29D0               	goto	i1l2372
  3065  01C8                     u253_20:	
  3066  01C8                     i1l2368:	
  3067                           
  3068                           ;Source/Usb.c: 907:     {;Source/Usb.c: 908:         Stall();
  3069  01C8  318F  278A  3181   	fcall	_Stall
  3070  01CB                     i1l2370:	
  3071                           
  3072                           ;Source/Usb.c: 909:         UIR &= ~(0x20);
  3073  01CB  30DF               	movlw	223
  3074  01CC  00FC               	movwf	??_ProcessUSBTransactions
  3075  01CD  087C               	movf	??_ProcessUSBTransactions,w
  3076  01CE  003D               	movlb	29	; select bank29
  3077  01CF  0590               	andwf	16,f	;volatile
  3078  01D0                     i1l2372:	
  3079                           
  3080                           ;Source/Usb.c: 912:     if (UIRbits.UERRIF && UIEbits.UERRIE)
  3081  01D0  1C90               	btfss	16,1	;volatile
  3082  01D1  29D3               	goto	u254_21
  3083  01D2  29D4               	goto	u254_20
  3084  01D3                     u254_21:	
  3085  01D3  29DE               	goto	i1l2382
  3086  01D4                     u254_20:	
  3087  01D4                     i1l2374:	
  3088  01D4  1C92               	btfss	18,1	;volatile
  3089  01D5  29D7               	goto	u255_21
  3090  01D6  29D8               	goto	u255_20
  3091  01D7                     u255_21:	
  3092  01D7  29DE               	goto	i1l2382
  3093  01D8                     u255_20:	
  3094  01D8                     i1l2376:	
  3095                           
  3096                           ;Source/Usb.c: 913:     {;Source/Usb.c: 916:         UIRbits.UERRIF = 0;
  3097  01D8  1090               	bcf	16,1	;volatile
  3098  01D9                     i1l2378:	
  3099                           
  3100                           ;Source/Usb.c: 917:         UEIR = 0 ;
  3101  01D9  0193               	clrf	19	;volatile
  3102  01DA                     i1l2380:	
  3103                           
  3104                           ;Source/Usb.c: 918:         UIR &= ~(0x02);
  3105  01DA  30FD               	movlw	253
  3106  01DB  00FC               	movwf	??_ProcessUSBTransactions
  3107  01DC  087C               	movf	??_ProcessUSBTransactions,w
  3108  01DD  0590               	andwf	16,f	;volatile
  3109  01DE                     i1l2382:	
  3110                           
  3111                           ;Source/Usb.c: 922:     if (DeviceState < 0x03)
  3112  01DE  3003               	movlw	3
  3113  01DF  0020               	movlb	0	; select bank0
  3114  01E0  023F               	subwf	_DeviceState,w
  3115  01E1  1803               	skipnc
  3116  01E2  29E4               	goto	u256_21
  3117  01E3  29E5               	goto	u256_20
  3118  01E4                     u256_21:	
  3119  01E4  29EA               	goto	i1l415
  3120  01E5                     u256_20:	
  3121  01E5                     i1l2384:	
  3122                           
  3123                           ;Source/Usb.c: 923:     {;Source/Usb.c: 924:         UIR = 0;
  3124  01E5  003D               	movlb	29	; select bank29
  3125  01E6  0190               	clrf	16	;volatile
  3126  01E7                     i1l2386:	
  3127                           
  3128                           ;Source/Usb.c: 925:         PIR2bits.USBIF = 0;
  3129  01E7  0020               	movlb	0	; select bank0
  3130  01E8  1112               	bcf	18,2	;volatile
  3131  01E9  29FD               	goto	i1l407
  3132  01EA                     i1l415:	
  3133                           ;Source/Usb.c: 927:     }
  3134                           
  3135                           
  3136                           ;Source/Usb.c: 930:     if(UIRbits.TRNIF && UIEbits.TRNIE)
  3137  01EA  003D               	movlb	29	; select bank29
  3138  01EB  1D90               	btfss	16,3	;volatile
  3139  01EC  29EE               	goto	u257_21
  3140  01ED  29EF               	goto	u257_20
  3141  01EE                     u257_21:	
  3142  01EE  29FB               	goto	i1l2396
  3143  01EF                     u257_20:	
  3144  01EF                     i1l2390:	
  3145  01EF  1D92               	btfss	18,3	;volatile
  3146  01F0  29F2               	goto	u258_21
  3147  01F1  29F3               	goto	u258_20
  3148  01F2                     u258_21:	
  3149  01F2  29FB               	goto	i1l2396
  3150  01F3                     u258_20:	
  3151  01F3                     i1l2392:	
  3152                           
  3153                           ;Source/Usb.c: 931:     {;Source/Usb.c: 932:         ProcessControlTransfer();
  3154  01F3  3183  237B  3181   	fcall	_ProcessControlTransfer
  3155  01F6                     i1l2394:	
  3156                           
  3157                           ;Source/Usb.c: 933:         UIR &= ~(0x08);
  3158  01F6  30F7               	movlw	247
  3159  01F7  00FC               	movwf	??_ProcessUSBTransactions
  3160  01F8  087C               	movf	??_ProcessUSBTransactions,w
  3161  01F9  003D               	movlb	29	; select bank29
  3162  01FA  0590               	andwf	16,f	;volatile
  3163  01FB                     i1l2396:	
  3164                           
  3165                           ;Source/Usb.c: 935:     PIR2bits.USBIF = 0;
  3166  01FB  0020               	movlb	0	; select bank0
  3167  01FC  1112               	bcf	18,2	;volatile
  3168  01FD                     i1l407:	
  3169  01FD  0008               	return
  3170  01FE                     __end_of_ProcessUSBTransactions:	
  3171                           
  3172                           	psect	text18
  3173  0F77                     __ptext18:	
  3174 ;; *************** function _UnSuspend *****************
  3175 ;; Defined at:
  3176 ;;		line 798 in file "Source/Usb.c"
  3177 ;; Parameters:    Size  Location     Type
  3178 ;;		None
  3179 ;; Auto vars:     Size  Location     Type
  3180 ;;		None
  3181 ;; Return value:  Size  Location     Type
  3182 ;;                  1    wreg      void 
  3183 ;; Registers used:
  3184 ;;		wreg, status,2, status,0
  3185 ;; Tracked objects:
  3186 ;;		On entry : 0/0
  3187 ;;		On exit  : 0/0
  3188 ;;		Unchanged: 0/0
  3189 ;; Data sizes:     COMMON   BANK0   BANK1   BANK2   BANK3   BANK4   BANK5   BANK6   BANK7   BANK8   BANK9  BANK10  BANK1
      +1  BANK12
  3190 ;;      Params:         0       0       0       0       0       0       0       0       0       0       0       0       
      +0       0
  3191 ;;      Locals:         0       0       0       0       0       0       0       0       0       0       0       0       
      +0       0
  3192 ;;      Temps:          1       0       0       0       0       0       0       0       0       0       0       0       
      +0       0
  3193 ;;      Totals:         1       0       0       0       0       0       0       0       0       0       0       0       
      +0       0
  3194 ;;Total ram usage:        1 bytes
  3195 ;; Hardware stack levels used:    1
  3196 ;; This function calls:
  3197 ;;		Nothing
  3198 ;; This function is called by:
  3199 ;;		_ProcessUSBTransactions
  3200 ;; This function uses a non-reentrant model
  3201 ;;
  3202                           
  3203                           
  3204                           ;psect for function _UnSuspend
  3205  0F77                     _UnSuspend:	
  3206  0F77                     i1l2282:	
  3207                           ;incstack = 0
  3208                           ; Regs used in _UnSuspend: [wreg+status,2+status,0]
  3209                           
  3210                           
  3211                           ;Source/Usb.c: 800:     UCONbits.SUSPND = 0;
  3212  0F77  003D               	movlb	29	; select bank29
  3213  0F78  108E               	bcf	14,1	;volatile
  3214                           
  3215                           ;Source/Usb.c: 801:     UIEbits.ACTVIE = 0;
  3216  0F79  1112               	bcf	18,2	;volatile
  3217  0F7A                     i1l2284:	
  3218                           
  3219                           ;Source/Usb.c: 802:     UIR &= 0xFB;
  3220  0F7A  30FB               	movlw	251
  3221  0F7B  00F0               	movwf	??_UnSuspend
  3222  0F7C  0870               	movf	??_UnSuspend,w
  3223  0F7D  0590               	andwf	16,f	;volatile
  3224  0F7E                     i1l387:	
  3225  0F7E  0008               	return
  3226  0F7F                     __end_of_UnSuspend:	
  3227                           
  3228                           	psect	text19
  3229  0F6F                     __ptext19:	
  3230 ;; *************** function _Suspend *****************
  3231 ;; Defined at:
  3232 ;;		line 826 in file "Source/Usb.c"
  3233 ;; Parameters:    Size  Location     Type
  3234 ;;		None
  3235 ;; Auto vars:     Size  Location     Type
  3236 ;;		None
  3237 ;; Return value:  Size  Location     Type
  3238 ;;                  1    wreg      void 
  3239 ;; Registers used:
  3240 ;;		wreg, status,2, status,0
  3241 ;; Tracked objects:
  3242 ;;		On entry : 0/0
  3243 ;;		On exit  : 0/0
  3244 ;;		Unchanged: 0/0
  3245 ;; Data sizes:     COMMON   BANK0   BANK1   BANK2   BANK3   BANK4   BANK5   BANK6   BANK7   BANK8   BANK9  BANK10  BANK1
      +1  BANK12
  3246 ;;      Params:         0       0       0       0       0       0       0       0       0       0       0       0       
      +0       0
  3247 ;;      Locals:         0       0       0       0       0       0       0       0       0       0       0       0       
      +0       0
  3248 ;;      Temps:          1       0       0       0       0       0       0       0       0       0       0       0       
      +0       0
  3249 ;;      Totals:         1       0       0       0       0       0       0       0       0       0       0       0       
      +0       0
  3250 ;;Total ram usage:        1 bytes
  3251 ;; Hardware stack levels used:    1
  3252 ;; This function calls:
  3253 ;;		Nothing
  3254 ;; This function is called by:
  3255 ;;		_ProcessUSBTransactions
  3256 ;; This function uses a non-reentrant model
  3257 ;;
  3258                           
  3259                           
  3260                           ;psect for function _Suspend
  3261  0F6F                     _Suspend:	
  3262  0F6F                     i1l2296:	
  3263                           ;incstack = 0
  3264                           ; Regs used in _Suspend: [wreg+status,2+status,0]
  3265                           
  3266                           
  3267                           ;Source/Usb.c: 828:     UIEbits.ACTVIE = 1;
  3268  0F6F  003D               	movlb	29	; select bank29
  3269  0F70  1512               	bsf	18,2	;volatile
  3270  0F71                     i1l2298:	
  3271                           
  3272                           ;Source/Usb.c: 829:     UIR &= 0xEF;
  3273  0F71  30EF               	movlw	239
  3274  0F72  00F0               	movwf	??_Suspend
  3275  0F73  0870               	movf	??_Suspend,w
  3276  0F74  0590               	andwf	16,f	;volatile
  3277  0F75                     i1l2300:	
  3278                           
  3279                           ;Source/Usb.c: 830:     UCONbits.SUSPND = 1;
  3280  0F75  148E               	bsf	14,1	;volatile
  3281  0F76                     i1l397:	
  3282  0F76  0008               	return
  3283  0F77                     __end_of_Suspend:	
  3284                           
  3285                           	psect	text20
  3286  0F58                     __ptext20:	
  3287 ;; *************** function _StartOfFrame *****************
  3288 ;; Defined at:
  3289 ;;		line 807 in file "Source/Usb.c"
  3290 ;; Parameters:    Size  Location     Type
  3291 ;;		None
  3292 ;; Auto vars:     Size  Location     Type
  3293 ;;		None
  3294 ;; Return value:  Size  Location     Type
  3295 ;;                  1    wreg      void 
  3296 ;; Registers used:
  3297 ;;		None
  3298 ;; Tracked objects:
  3299 ;;		On entry : 0/0
  3300 ;;		On exit  : 0/0
  3301 ;;		Unchanged: 0/0
  3302 ;; Data sizes:     COMMON   BANK0   BANK1   BANK2   BANK3   BANK4   BANK5   BANK6   BANK7   BANK8   BANK9  BANK10  BANK1
      +1  BANK12
  3303 ;;      Params:         0       0       0       0       0       0       0       0       0       0       0       0       
      +0       0
  3304 ;;      Locals:         0       0       0       0       0       0       0       0       0       0       0       0       
      +0       0
  3305 ;;      Temps:          0       0       0       0       0       0       0       0       0       0       0       0       
      +0       0
  3306 ;;      Totals:         0       0       0       0       0       0       0       0       0       0       0       0       
      +0       0
  3307 ;;Total ram usage:        0 bytes
  3308 ;; Hardware stack levels used:    1
  3309 ;; This function calls:
  3310 ;;		Nothing
  3311 ;; This function is called by:
  3312 ;;		_ProcessUSBTransactions
  3313 ;; This function uses a non-reentrant model
  3314 ;;
  3315                           
  3316                           
  3317                           ;psect for function _StartOfFrame
  3318  0F58                     _StartOfFrame:	
  3319  0F58                     i1l2286:	
  3320                           ;incstack = 0
  3321                           ; Regs used in _StartOfFrame: []
  3322                           
  3323                           
  3324                           ;Source/Usb.c: 810:     UIRbits.SOFIF = 0;
  3325  0F58  003D               	movlb	29	; select bank29
  3326  0F59  1310               	bcf	16,6	;volatile
  3327  0F5A                     i1l390:	
  3328  0F5A  0008               	return
  3329  0F5B                     __end_of_StartOfFrame:	
  3330                           
  3331                           	psect	text21
  3332  0F8A                     __ptext21:	
  3333 ;; *************** function _Stall *****************
  3334 ;; Defined at:
  3335 ;;		line 814 in file "Source/Usb.c"
  3336 ;; Parameters:    Size  Location     Type
  3337 ;;		None
  3338 ;; Auto vars:     Size  Location     Type
  3339 ;;		None
  3340 ;; Return value:  Size  Location     Type
  3341 ;;                  1    wreg      void 
  3342 ;; Registers used:
  3343 ;;		wreg, status,2, status,0, pclath, cstack
  3344 ;; Tracked objects:
  3345 ;;		On entry : 0/0
  3346 ;;		On exit  : 0/0
  3347 ;;		Unchanged: 0/0
  3348 ;; Data sizes:     COMMON   BANK0   BANK1   BANK2   BANK3   BANK4   BANK5   BANK6   BANK7   BANK8   BANK9  BANK10  BANK1
      +1  BANK12
  3349 ;;      Params:         0       0       0       0       0       0       0       0       0       0       0       0       
      +0       0
  3350 ;;      Locals:         0       0       0       0       0       0       0       0       0       0       0       0       
      +0       0
  3351 ;;      Temps:          0       0       0       0       0       0       0       0       0       0       0       0       
      +0       0
  3352 ;;      Totals:         0       0       0       0       0       0       0       0       0       0       0       0       
      +0       0
  3353 ;;Total ram usage:        0 bytes
  3354 ;; Hardware stack levels used:    1
  3355 ;; Hardware stack levels required when called:    1
  3356 ;; This function calls:
  3357 ;;		_WaitForSetupStage
  3358 ;; This function is called by:
  3359 ;;		_ProcessUSBTransactions
  3360 ;; This function uses a non-reentrant model
  3361 ;;
  3362                           
  3363                           
  3364                           ;psect for function _Stall
  3365  0F8A                     _Stall:	
  3366  0F8A                     i1l2288:	
  3367                           ;incstack = 0
  3368                           ; Regs used in _Stall: [wreg+status,2+status,0+pclath+cstack]
  3369                           
  3370                           
  3371                           ;Source/Usb.c: 816:     if(UEP0bits.EPSTALL == 1)
  3372  0F8A  003D               	movlb	29	; select bank29
  3373  0F8B  1C18               	btfss	24,0	;volatile
  3374  0F8C  2F8E               	goto	u240_21
  3375  0F8D  2F8F               	goto	u240_20
  3376  0F8E                     u240_21:	
  3377  0F8E  2F94               	goto	i1l2294
  3378  0F8F                     u240_20:	
  3379  0F8F                     i1l2290:	
  3380                           
  3381                           ;Source/Usb.c: 817:     {;Source/Usb.c: 819:         WaitForSetupStage();
  3382  0F8F  318F  2796  318F   	fcall	_WaitForSetupStage
  3383  0F92                     i1l2292:	
  3384                           
  3385                           ;Source/Usb.c: 820:         UEP0bits.EPSTALL = 0;
  3386  0F92  003D               	movlb	29	; select bank29
  3387  0F93  1018               	bcf	24,0	;volatile
  3388  0F94                     i1l2294:	
  3389                           
  3390                           ;Source/Usb.c: 822:     UIRbits.STALLIF = 0;
  3391  0F94  1290               	bcf	16,5	;volatile
  3392  0F95                     i1l394:	
  3393  0F95  0008               	return
  3394  0F96                     __end_of_Stall:	
  3395                           
  3396                           	psect	text22
  3397  037B                     __ptext22:	
  3398 ;; *************** function _ProcessControlTransfer *****************
  3399 ;; Defined at:
  3400 ;;		line 693 in file "Source/Usb.c"
  3401 ;; Parameters:    Size  Location     Type
  3402 ;;		None
  3403 ;; Auto vars:     Size  Location     Type
  3404 ;;  PID             1   11[COMMON] unsigned char 
  3405 ;; Return value:  Size  Location     Type
  3406 ;;                  1    wreg      void 
  3407 ;; Registers used:
  3408 ;;		wreg, fsr0l, fsr0h, fsr1l, fsr1h, status,2, status,0, pclath, cstack
  3409 ;; Tracked objects:
  3410 ;;		On entry : 0/0
  3411 ;;		On exit  : 0/0
  3412 ;;		Unchanged: 0/0
  3413 ;; Data sizes:     COMMON   BANK0   BANK1   BANK2   BANK3   BANK4   BANK5   BANK6   BANK7   BANK8   BANK9  BANK10  BANK1
      +1  BANK12
  3414 ;;      Params:         0       0       0       0       0       0       0       0       0       0       0       0       
      +0       0
  3415 ;;      Locals:         1       0       0       0       0       0       0       0       0       0       0       0       
      +0       0
  3416 ;;      Temps:          2       0       0       0       0       0       0       0       0       0       0       0       
      +0       0
  3417 ;;      Totals:         3       0       0       0       0       0       0       0       0       0       0       0       
      +0       0
  3418 ;;Total ram usage:        3 bytes
  3419 ;; Hardware stack levels used:    1
  3420 ;; Hardware stack levels required when called:    3
  3421 ;; This function calls:
  3422 ;;		_InDataStage
  3423 ;;		_OutDataStage
  3424 ;;		_SetupStage
  3425 ;;		_WaitForSetupStage
  3426 ;; This function is called by:
  3427 ;;		_ProcessUSBTransactions
  3428 ;; This function uses a non-reentrant model
  3429 ;;
  3430                           
  3431                           
  3432                           ;psect for function _ProcessControlTransfer
  3433  037B                     _ProcessControlTransfer:	
  3434  037B                     i1l2240:	
  3435                           ;incstack = 0
  3436                           ; Regs used in _ProcessControlTransfer: [wreg-fsr1h+status,2+status,0+pclath+cstack]
  3437                           
  3438                           
  3439                           ;Source/Usb.c: 695:     if (USTAT == 0)
  3440  037B  003D               	movlb	29	; select bank29
  3441  037C  080F               	movf	15,w	;volatile
  3442  037D  1D03               	btfss	3,2
  3443  037E  2B80               	goto	u229_21
  3444  037F  2B81               	goto	u229_20
  3445  0380                     u229_21:	
  3446  0380  2BB2               	goto	i1l2258
  3447  0381                     u229_20:	
  3448  0381                     i1l2242:	
  3449                           
  3450                           ;Source/Usb.c: 696:     {;Source/Usb.c: 698:         uint8_t PID = (Interfaces[0].Output
      +                          .Stat & 0x3C) >> 2;
  3451  0381  0020               	movlb	0	; select bank0
  3452  0382  0820               	movf	32,w	;volatile
  3453  0383  00F9               	movwf	??_ProcessControlTransfer
  3454  0384  3002               	movlw	2
  3455  0385                     u230_25:	
  3456  0385  36F9               	lsrf	??_ProcessControlTransfer,f
  3457  0386  0B89               	decfsz	9,f
  3458  0387  2B85               	goto	u230_25
  3459  0388  0879               	movf	??_ProcessControlTransfer,w
  3460  0389  390F               	andlw	15
  3461  038A  00FA               	movwf	??_ProcessControlTransfer+1
  3462  038B  087A               	movf	??_ProcessControlTransfer+1,w
  3463  038C  00FB               	movwf	ProcessControlTransfer@PID
  3464                           
  3465                           ;Source/Usb.c: 699:         if (PID == 0x0D)
  3466  038D  300D               	movlw	13
  3467  038E  067B               	xorwf	ProcessControlTransfer@PID,w
  3468  038F  1D03               	btfss	3,2
  3469  0390  2B92               	goto	u231_21
  3470  0391  2B93               	goto	u231_20
  3471  0392                     u231_21:	
  3472  0392  2B97               	goto	i1l2246
  3473  0393                     u231_20:	
  3474  0393                     i1l2244:	
  3475                           
  3476                           ;Source/Usb.c: 701:             SetupStage();
  3477  0393  3184  2455  3183   	fcall	_SetupStage
  3478  0396  2BE9               	goto	i1l369
  3479  0397                     i1l2246:	
  3480  0397  033A               	decf	_CtrlTransferStage,w
  3481  0398  1D03               	btfss	3,2
  3482  0399  2B9B               	goto	u232_21
  3483  039A  2B9C               	goto	u232_20
  3484  039B                     u232_21:	
  3485  039B  2BAE               	goto	i1l2256
  3486  039C                     u232_20:	
  3487  039C                     i1l2248:	
  3488                           
  3489                           ;Source/Usb.c: 703:         {;Source/Usb.c: 704:             OutDataStage();
  3490  039C  3186  26B3  3183   	fcall	_OutDataStage
  3491  039F                     i1l2250:	
  3492                           
  3493                           ;Source/Usb.c: 705:             if(Interfaces[0].Output.Stat & 0x40)
  3494  039F  0020               	movlb	0	; select bank0
  3495  03A0  1F20               	btfss	32,6	;volatile
  3496  03A1  2BA3               	goto	u233_21
  3497  03A2  2BA4               	goto	u233_20
  3498  03A3                     u233_21:	
  3499  03A3  2BA9               	goto	i1l2254
  3500  03A4                     u233_20:	
  3501  03A4                     i1l2252:	
  3502                           
  3503                           ;Source/Usb.c: 706:                 Interfaces[0].Output.Stat = 0x80 | 0x08;
  3504  03A4  3088               	movlw	136
  3505  03A5  00F9               	movwf	??_ProcessControlTransfer
  3506  03A6  0879               	movf	??_ProcessControlTransfer,w
  3507  03A7  00A0               	movwf	32	;volatile
  3508  03A8  2BE9               	goto	i1l369
  3509  03A9                     i1l2254:	
  3510                           
  3511                           ;Source/Usb.c: 708:                 Interfaces[0].Output.Stat = 0x80 | 0x40 | 0x08;
  3512  03A9  30C8               	movlw	200
  3513  03AA  00F9               	movwf	??_ProcessControlTransfer
  3514  03AB  0879               	movf	??_ProcessControlTransfer,w
  3515  03AC  00A0               	movwf	32	;volatile
  3516  03AD  2BE9               	goto	i1l369
  3517  03AE                     i1l2256:	
  3518                           
  3519                           ;Source/Usb.c: 711:         {;Source/Usb.c: 713:             WaitForSetupStage();
  3520  03AE  318F  2796  3183   	fcall	_WaitForSetupStage
  3521  03B1  2BE9               	goto	i1l369
  3522  03B2                     i1l2258:	
  3523  03B2  3004               	movlw	4
  3524  03B3  060F               	xorwf	15,w	;volatile
  3525  03B4  1D03               	btfss	3,2
  3526  03B5  2BB7               	goto	u234_21
  3527  03B6  2BB8               	goto	u234_20
  3528  03B7                     u234_21:	
  3529  03B7  2BE9               	goto	i1l369
  3530  03B8                     u234_20:	
  3531  03B8                     i1l2260:	
  3532                           
  3533                           ;Source/Usb.c: 718:     {;Source/Usb.c: 720:         if ((UADDR == 0) && (DeviceState ==
      +                           0x04))
  3534  03B8  0816               	movf	22,w	;volatile
  3535  03B9  1D03               	btfss	3,2
  3536  03BA  2BBC               	goto	u235_21
  3537  03BB  2BBD               	goto	u235_20
  3538  03BC                     u235_21:	
  3539  03BC  2BD1               	goto	i1l2270
  3540  03BD                     u235_20:	
  3541  03BD                     i1l2262:	
  3542  03BD  3004               	movlw	4
  3543  03BE  0020               	movlb	0	; select bank0
  3544  03BF  063F               	xorwf	_DeviceState,w
  3545  03C0  1D03               	btfss	3,2
  3546  03C1  2BC3               	goto	u236_21
  3547  03C2  2BC4               	goto	u236_20
  3548  03C3                     u236_21:	
  3549  03C3  2BD1               	goto	i1l2270
  3550  03C4                     u236_20:	
  3551  03C4                     i1l2264:	
  3552                           
  3553                           ;Source/Usb.c: 721:         {;Source/Usb.c: 724:             UADDR = SetupPacket.wValue0
      +                          ;
  3554  03C4  0842               	movf	_SetupPacket+2,w	;volatile
  3555  03C5  003D               	movlb	29	; select bank29
  3556  03C6  0096               	movwf	22	;volatile
  3557  03C7                     i1l2266:	
  3558                           
  3559                           ;Source/Usb.c: 725:             if(UADDR == 0)
  3560  03C7  0816               	movf	22,w	;volatile
  3561  03C8  1D03               	btfss	3,2
  3562  03C9  2BCB               	goto	u237_21
  3563  03CA  2BCC               	goto	u237_20
  3564  03CB                     u237_21:	
  3565  03CB  2BD1               	goto	i1l2270
  3566  03CC                     u237_20:	
  3567  03CC                     i1l2268:	
  3568                           
  3569                           ;Source/Usb.c: 728:                 DeviceState = 0x03;
  3570  03CC  3003               	movlw	3
  3571  03CD  00F9               	movwf	??_ProcessControlTransfer
  3572  03CE  0879               	movf	??_ProcessControlTransfer,w
  3573  03CF  0020               	movlb	0	; select bank0
  3574  03D0  00BF               	movwf	_DeviceState
  3575  03D1                     i1l2270:	
  3576                           
  3577                           ;Source/Usb.c: 731:         if (CtrlTransferStage == 0x02)
  3578  03D1  3002               	movlw	2
  3579  03D2  0020               	movlb	0	; select bank0
  3580  03D3  063A               	xorwf	_CtrlTransferStage,w
  3581  03D4  1D03               	btfss	3,2
  3582  03D5  2BD7               	goto	u238_21
  3583  03D6  2BD8               	goto	u238_20
  3584  03D7                     u238_21:	
  3585  03D7  2BAE               	goto	i1l2256
  3586  03D8                     u238_20:	
  3587  03D8                     i1l2272:	
  3588                           
  3589                           ;Source/Usb.c: 732:         {;Source/Usb.c: 734:             InDataStage();
  3590  03D8  3182  2289  3183   	fcall	_InDataStage
  3591  03DB                     i1l2274:	
  3592                           
  3593                           ;Source/Usb.c: 737:             if(Interfaces[0].Input.Stat & 0x40)
  3594  03DB  0020               	movlb	0	; select bank0
  3595  03DC  1F24               	btfss	36,6	;volatile
  3596  03DD  2BDF               	goto	u239_21
  3597  03DE  2BE0               	goto	u239_20
  3598  03DF                     u239_21:	
  3599  03DF  2BE5               	goto	i1l2278
  3600  03E0                     u239_20:	
  3601  03E0                     i1l2276:	
  3602                           
  3603                           ;Source/Usb.c: 738:                 Interfaces[0].Input.Stat = 0x80 | 0x08;
  3604  03E0  3088               	movlw	136
  3605  03E1  00F9               	movwf	??_ProcessControlTransfer
  3606  03E2  0879               	movf	??_ProcessControlTransfer,w
  3607  03E3  00A4               	movwf	36	;volatile
  3608  03E4  2BE9               	goto	i1l369
  3609  03E5                     i1l2278:	
  3610                           
  3611                           ;Source/Usb.c: 740:                 Interfaces[0].Input.Stat = 0x80 | 0x40 | 0x08;
  3612  03E5  30C8               	movlw	200
  3613  03E6  00F9               	movwf	??_ProcessControlTransfer
  3614  03E7  0879               	movf	??_ProcessControlTransfer,w
  3615  03E8  00A4               	movwf	36	;volatile
  3616  03E9                     i1l369:	
  3617  03E9  0008               	return
  3618  03EA                     __end_of_ProcessControlTransfer:	
  3619                           
  3620                           	psect	text23
  3621  0455                     __ptext23:	
  3622 ;; *************** function _SetupStage *****************
  3623 ;; Defined at:
  3624 ;;		line 612 in file "Source/Usb.c"
  3625 ;; Parameters:    Size  Location     Type
  3626 ;;		None
  3627 ;; Auto vars:     Size  Location     Type
  3628 ;;		None
  3629 ;; Return value:  Size  Location     Type
  3630 ;;                  1    wreg      void 
  3631 ;; Registers used:
  3632 ;;		wreg, fsr0l, fsr0h, fsr1l, fsr1h, status,2, status,0, pclath, cstack
  3633 ;; Tracked objects:
  3634 ;;		On entry : 0/0
  3635 ;;		On exit  : 0/0
  3636 ;;		Unchanged: 0/0
  3637 ;; Data sizes:     COMMON   BANK0   BANK1   BANK2   BANK3   BANK4   BANK5   BANK6   BANK7   BANK8   BANK9  BANK10  BANK1
      +1  BANK12
  3638 ;;      Params:         0       0       0       0       0       0       0       0       0       0       0       0       
      +0       0
  3639 ;;      Locals:         0       0       0       0       0       0       0       0       0       0       0       0       
      +0       0
  3640 ;;      Temps:          1       0       0       0       0       0       0       0       0       0       0       0       
      +0       0
  3641 ;;      Totals:         1       0       0       0       0       0       0       0       0       0       0       0       
      +0       0
  3642 ;;Total ram usage:        1 bytes
  3643 ;; Hardware stack levels used:    1
  3644 ;; Hardware stack levels required when called:    2
  3645 ;; This function calls:
  3646 ;;		_InDataStage
  3647 ;;		_ProcessHIDRequest
  3648 ;;		_ProcessStandardRequest
  3649 ;; This function is called by:
  3650 ;;		_ProcessControlTransfer
  3651 ;; This function uses a non-reentrant model
  3652 ;;
  3653                           
  3654                           
  3655                           ;psect for function _SetupStage
  3656  0455                     _SetupStage:	
  3657  0455                     i1l2084:	
  3658                           ;incstack = 0
  3659                           ; Regs used in _SetupStage: [wreg-fsr1h+status,2+status,0+pclath+cstack]
  3660                           
  3661                           
  3662                           ;Source/Usb.c: 616:     Interfaces[0].Input.Stat &= ~0x80;
  3663  0455  307F               	movlw	127
  3664  0456  00F8               	movwf	??_SetupStage
  3665  0457  0878               	movf	??_SetupStage,w
  3666  0458  0020               	movlb	0	; select bank0
  3667  0459  05A4               	andwf	36,f	;volatile
  3668                           
  3669                           ;Source/Usb.c: 617:     Interfaces[0].Output.Stat &= ~0x80;
  3670  045A  307F               	movlw	127
  3671  045B  00F8               	movwf	??_SetupStage
  3672  045C  0878               	movf	??_SetupStage,w
  3673  045D  05A0               	andwf	32,f	;volatile
  3674  045E                     i1l2086:	
  3675                           
  3676                           ;Source/Usb.c: 620:     CtrlTransferStage = 0x00;
  3677  045E  01BA               	clrf	_CtrlTransferStage
  3678  045F                     i1l2088:	
  3679                           
  3680                           ;Source/Usb.c: 621:     RequestHandled = 0;
  3681  045F  01B8               	clrf	_RequestHandled
  3682  0460                     i1l2090:	
  3683                           
  3684                           ;Source/Usb.c: 622:     HIDPostProcess = 0;
  3685  0460  01B9               	clrf	_HIDPostProcess
  3686  0461                     i1l2092:	
  3687                           
  3688                           ;Source/Usb.c: 623:     wCount = 0;
  3689  0461  01B0               	clrf	_wCount
  3690  0462  01B1               	clrf	_wCount+1
  3691  0463                     i1l2094:	
  3692                           
  3693                           ;Source/Usb.c: 626:     ProcessStandardRequest();
  3694  0463  3180  20D9  3184   	fcall	_ProcessStandardRequest
  3695  0466                     i1l2096:	
  3696                           
  3697                           ;Source/Usb.c: 629:     ProcessHIDRequest();
  3698  0466  3180  203F  3184   	fcall	_ProcessHIDRequest
  3699  0469                     i1l2098:	
  3700                           
  3701                           ;Source/Usb.c: 633:     if (!RequestHandled)
  3702  0469  0020               	movlb	0	; select bank0
  3703  046A  0838               	movf	_RequestHandled,w
  3704  046B  1D03               	btfss	3,2
  3705  046C  2C6E               	goto	u208_21
  3706  046D  2C6F               	goto	u208_20
  3707  046E                     u208_21:	
  3708  046E  2C7E               	goto	i1l342
  3709  046F                     u208_20:	
  3710  046F                     i1l2100:	
  3711                           
  3712                           ;Source/Usb.c: 634:     {;Source/Usb.c: 636:         Interfaces[0].Output.Cnt = 0x08;
  3713  046F  3008               	movlw	8
  3714  0470  00A1               	movwf	33	;volatile
  3715  0471                     i1l2102:	
  3716                           
  3717                           ;Source/Usb.c: 637:         Interfaces[0].Output.ADDR = ((unsigned int)(((unsigned long)
      +                          &SetupPacket) & 0xFFFF));
  3718  0471  3040               	movlw	low _SetupPacket
  3719  0472  00A2               	movwf	34	;volatile
  3720  0473  3000               	movlw	high _SetupPacket
  3721  0474  00A3               	movwf	35	;volatile
  3722  0475                     i1l2104:	
  3723                           
  3724                           ;Source/Usb.c: 638:         Interfaces[0].Output.Stat = 0x80 | 0x04;
  3725  0475  3084               	movlw	132
  3726  0476  00F8               	movwf	??_SetupStage
  3727  0477  0878               	movf	??_SetupStage,w
  3728  0478  00A0               	movwf	32	;volatile
  3729  0479                     i1l2106:	
  3730                           
  3731                           ;Source/Usb.c: 639:         Interfaces[0].Input.Stat = 0x80 | 0x04;
  3732  0479  3084               	movlw	132
  3733  047A  00F8               	movwf	??_SetupStage
  3734  047B  0878               	movf	??_SetupStage,w
  3735  047C  00A4               	movwf	36	;volatile
  3736                           
  3737                           ;Source/Usb.c: 640:     }
  3738  047D  2CBC               	goto	i1l2136
  3739  047E                     i1l342:	
  3740                           ;Source/Usb.c: 641:     else if (SetupPacket.bmRequestType & 0x80)
  3741                           
  3742  047E  1FC0               	btfss	_SetupPacket,7	;volatile
  3743  047F  2C81               	goto	u209_21
  3744  0480  2C82               	goto	u209_20
  3745  0481                     u209_21:	
  3746  0481  2CAB               	goto	i1l344
  3747  0482                     u209_20:	
  3748  0482                     i1l2108:	
  3749                           
  3750                           ;Source/Usb.c: 642:     {;Source/Usb.c: 644:         if(SetupPacket.wLength < wCount)
  3751  0482  0831               	movf	_wCount+1,w
  3752  0483  0247               	subwf	_SetupPacket+7,w	;volatile
  3753  0484  1D03               	skipz
  3754  0485  2C88               	goto	u210_25
  3755  0486  0830               	movf	_wCount,w
  3756  0487  0246               	subwf	_SetupPacket+6,w	;volatile
  3757  0488                     u210_25:	
  3758  0488  1803               	skipnc
  3759  0489  2C8B               	goto	u210_21
  3760  048A  2C8C               	goto	u210_20
  3761  048B                     u210_21:	
  3762  048B  2C90               	goto	i1l2112
  3763  048C                     u210_20:	
  3764  048C                     i1l2110:	
  3765                           
  3766                           ;Source/Usb.c: 645:             wCount = SetupPacket.wLength;
  3767  048C  0847               	movf	_SetupPacket+7,w	;volatile
  3768  048D  00B1               	movwf	_wCount+1
  3769  048E  0846               	movf	_SetupPacket+6,w	;volatile
  3770  048F  00B0               	movwf	_wCount
  3771  0490                     i1l2112:	
  3772                           
  3773                           ;Source/Usb.c: 646:         InDataStage();
  3774  0490  3182  2289  3184   	fcall	_InDataStage
  3775  0493                     i1l2114:	
  3776                           
  3777                           ;Source/Usb.c: 647:         CtrlTransferStage = 0x02;
  3778  0493  3002               	movlw	2
  3779  0494  00F8               	movwf	??_SetupStage
  3780  0495  0878               	movf	??_SetupStage,w
  3781  0496  0020               	movlb	0	; select bank0
  3782  0497  00BA               	movwf	_CtrlTransferStage
  3783  0498                     i1l2116:	
  3784                           
  3785                           ;Source/Usb.c: 649:         Interfaces[0].Output.Cnt = 0x08;
  3786  0498  3008               	movlw	8
  3787  0499  00A1               	movwf	33	;volatile
  3788  049A                     i1l2118:	
  3789                           
  3790                           ;Source/Usb.c: 650:         Interfaces[0].Output.ADDR = ((unsigned int)(((unsigned long)
      +                          &SetupPacket) & 0xFFFF));
  3791  049A  3040               	movlw	low _SetupPacket
  3792  049B  00A2               	movwf	34	;volatile
  3793  049C  3000               	movlw	high _SetupPacket
  3794  049D  00A3               	movwf	35	;volatile
  3795  049E                     i1l2120:	
  3796                           
  3797                           ;Source/Usb.c: 651:         Interfaces[0].Output.Stat = 0x80;
  3798  049E  3080               	movlw	128
  3799  049F  00F8               	movwf	??_SetupStage
  3800  04A0  0878               	movf	??_SetupStage,w
  3801  04A1  00A0               	movwf	32	;volatile
  3802  04A2                     i1l2122:	
  3803                           
  3804                           ;Source/Usb.c: 654:         Interfaces[0].Input.ADDR = ((unsigned int)(((unsigned long)&
      +                          ControlTransferBuffer) & 0xFFFF));
  3805  04A2  3049               	movlw	low _ControlTransferBuffer
  3806  04A3  00A6               	movwf	38	;volatile
  3807  04A4  3000               	movlw	high _ControlTransferBuffer
  3808  04A5  00A7               	movwf	39	;volatile
  3809  04A6                     i1l2124:	
  3810                           
  3811                           ;Source/Usb.c: 656:         Interfaces[0].Input.Stat = 0x80 | 0x40 | 0x08;
  3812  04A6  30C8               	movlw	200
  3813  04A7  00F8               	movwf	??_SetupStage
  3814  04A8  0878               	movf	??_SetupStage,w
  3815  04A9  00A4               	movwf	36	;volatile
  3816                           
  3817                           ;Source/Usb.c: 657:     }
  3818  04AA  2CBC               	goto	i1l2136
  3819  04AB                     i1l344:	
  3820                           ;Source/Usb.c: 658:     else
  3821                           
  3822                           
  3823                           ;Source/Usb.c: 659:     {;Source/Usb.c: 661:         CtrlTransferStage = 0x01;
  3824  04AB  01BA               	clrf	_CtrlTransferStage
  3825  04AC  0ABA               	incf	_CtrlTransferStage,f
  3826  04AD                     i1l2126:	
  3827                           
  3828                           ;Source/Usb.c: 664:         Interfaces[0].Input.Cnt = 0;
  3829  04AD  01A5               	clrf	37	;volatile
  3830  04AE                     i1l2128:	
  3831                           
  3832                           ;Source/Usb.c: 665:         Interfaces[0].Input.Stat = 0x80 | 0x40 | 0x08;
  3833  04AE  30C8               	movlw	200
  3834  04AF  00F8               	movwf	??_SetupStage
  3835  04B0  0878               	movf	??_SetupStage,w
  3836  04B1  00A4               	movwf	36	;volatile
  3837  04B2                     i1l2130:	
  3838                           
  3839                           ;Source/Usb.c: 668:         Interfaces[0].Output.Cnt = 0x08;
  3840  04B2  3008               	movlw	8
  3841  04B3  00A1               	movwf	33	;volatile
  3842  04B4                     i1l2132:	
  3843                           
  3844                           ;Source/Usb.c: 669:         Interfaces[0].Output.ADDR = ((unsigned int)(((unsigned long)
      +                          &ControlTransferBuffer) & 0xFFFF));
  3845  04B4  3049               	movlw	low _ControlTransferBuffer
  3846  04B5  00A2               	movwf	34	;volatile
  3847  04B6  3000               	movlw	high _ControlTransferBuffer
  3848  04B7  00A3               	movwf	35	;volatile
  3849  04B8                     i1l2134:	
  3850                           
  3851                           ;Source/Usb.c: 671:         Interfaces[0].Output.Stat = 0x80 | 0x40 | 0x08;
  3852  04B8  30C8               	movlw	200
  3853  04B9  00F8               	movwf	??_SetupStage
  3854  04BA  0878               	movf	??_SetupStage,w
  3855  04BB  00A0               	movwf	32	;volatile
  3856  04BC                     i1l2136:	
  3857                           
  3858                           ;Source/Usb.c: 675:     UCONbits.PKTDIS = 0;
  3859  04BC  003D               	movlb	29	; select bank29
  3860  04BD  120E               	bcf	14,4	;volatile
  3861  04BE                     i1l347:	
  3862  04BE  0008               	return
  3863  04BF                     __end_of_SetupStage:	
  3864                           
  3865                           	psect	text24
  3866  00D9                     __ptext24:	
  3867 ;; *************** function _ProcessStandardRequest *****************
  3868 ;; Defined at:
  3869 ;;		line 475 in file "Source/Usb.c"
  3870 ;; Parameters:    Size  Location     Type
  3871 ;;		None
  3872 ;; Auto vars:     Size  Location     Type
  3873 ;;  request         1    7[COMMON] unsigned char 
  3874 ;; Return value:  Size  Location     Type
  3875 ;;                  1    wreg      void 
  3876 ;; Registers used:
  3877 ;;		wreg, fsr0l, fsr0h, fsr1l, fsr1h, status,2, status,0, pclath, cstack
  3878 ;; Tracked objects:
  3879 ;;		On entry : 0/0
  3880 ;;		On exit  : 0/0
  3881 ;;		Unchanged: 0/0
  3882 ;; Data sizes:     COMMON   BANK0   BANK1   BANK2   BANK3   BANK4   BANK5   BANK6   BANK7   BANK8   BANK9  BANK10  BANK1
      +1  BANK12
  3883 ;;      Params:         0       0       0       0       0       0       0       0       0       0       0       0       
      +0       0
  3884 ;;      Locals:         1       0       0       0       0       0       0       0       0       0       0       0       
      +0       0
  3885 ;;      Temps:          1       0       0       0       0       0       0       0       0       0       0       0       
      +0       0
  3886 ;;      Totals:         2       0       0       0       0       0       0       0       0       0       0       0       
      +0       0
  3887 ;;Total ram usage:        2 bytes
  3888 ;; Hardware stack levels used:    1
  3889 ;; Hardware stack levels required when called:    1
  3890 ;; This function calls:
  3891 ;;		_GetDescriptor
  3892 ;;		_GetStatus
  3893 ;;		_HIDInitEndpoints
  3894 ;;		_SetFeature
  3895 ;; This function is called by:
  3896 ;;		_SetupStage
  3897 ;; This function uses a non-reentrant model
  3898 ;;
  3899                           
  3900                           
  3901                           ;psect for function _ProcessStandardRequest
  3902  00D9                     _ProcessStandardRequest:	
  3903  00D9                     i1l1934:	
  3904                           ;incstack = 0
  3905                           ; Regs used in _ProcessStandardRequest: [wreg-fsr1h+status,2+status,0+pclath+cstack]
  3906                           
  3907                           
  3908                           ;Source/Usb.c: 477:     uint8_t request = SetupPacket.bRequest;
  3909  00D9  0020               	movlb	0	; select bank0
  3910  00DA  0841               	movf	_SetupPacket+1,w	;volatile
  3911  00DB  00F6               	movwf	??_ProcessStandardRequest
  3912  00DC  0876               	movf	??_ProcessStandardRequest,w
  3913  00DD  00F7               	movwf	ProcessStandardRequest@request
  3914  00DE                     i1l1936:	
  3915                           
  3916                           ;Source/Usb.c: 479:     if((SetupPacket.bmRequestType & 0x60) != 0x00)
  3917  00DE  0840               	movf	_SetupPacket,w	;volatile
  3918  00DF  3960               	andlw	96
  3919  00E0  1903               	btfsc	3,2
  3920  00E1  28E3               	goto	u179_21
  3921  00E2  28E4               	goto	u179_20
  3922  00E3                     u179_21:	
  3923  00E3  28E5               	goto	i1l1940
  3924  00E4                     u179_20:	
  3925  00E4  296B               	goto	i1l296
  3926  00E5                     i1l1940:	
  3927                           
  3928                           ;Source/Usb.c: 484:     if (request == 0x05)
  3929  00E5  3005               	movlw	5
  3930  00E6  0677               	xorwf	ProcessStandardRequest@request,w
  3931  00E7  1D03               	btfss	3,2
  3932  00E8  28EA               	goto	u180_21
  3933  00E9  28EB               	goto	u180_20
  3934  00EA                     u180_21:	
  3935  00EA  28F6               	goto	i1l1946
  3936  00EB                     u180_20:	
  3937  00EB                     i1l1942:	
  3938                           
  3939                           ;Source/Usb.c: 485:     {;Source/Usb.c: 490:             RequestHandled = 1;
  3940  00EB  01B8               	clrf	_RequestHandled
  3941  00EC  0AB8               	incf	_RequestHandled,f
  3942  00ED                     i1l1944:	
  3943                           
  3944                           ;Source/Usb.c: 491:             DeviceState = 0x04;
  3945  00ED  3004               	movlw	4
  3946  00EE  00F6               	movwf	??_ProcessStandardRequest
  3947  00EF  0876               	movf	??_ProcessStandardRequest,w
  3948  00F0  00BF               	movwf	_DeviceState
  3949                           
  3950                           ;Source/Usb.c: 492:             DeviceAddress = SetupPacket.wValue0;
  3951  00F1  0842               	movf	_SetupPacket+2,w	;volatile
  3952  00F2  00F6               	movwf	??_ProcessStandardRequest
  3953  00F3  0876               	movf	??_ProcessStandardRequest,w
  3954  00F4  00BC               	movwf	_DeviceAddress
  3955                           
  3956                           ;Source/Usb.c: 493:     }
  3957  00F5  296B               	goto	i1l296
  3958  00F6                     i1l1946:	
  3959  00F6  3006               	movlw	6
  3960  00F7  0677               	xorwf	ProcessStandardRequest@request,w
  3961  00F8  1D03               	btfss	3,2
  3962  00F9  28FB               	goto	u181_21
  3963  00FA  28FC               	goto	u181_20
  3964  00FB                     u181_21:	
  3965  00FB  2900               	goto	i1l1950
  3966  00FC                     u181_20:	
  3967  00FC                     i1l1948:	
  3968                           
  3969                           ;Source/Usb.c: 495:     {;Source/Usb.c: 496:             GetDescriptor();
  3970  00FC  3185  2524  3180   	fcall	_GetDescriptor
  3971                           
  3972                           ;Source/Usb.c: 497:     }
  3973  00FF  296B               	goto	i1l296
  3974  0100                     i1l1950:	
  3975  0100  3009               	movlw	9
  3976  0101  0677               	xorwf	ProcessStandardRequest@request,w
  3977  0102  1D03               	btfss	3,2
  3978  0103  2905               	goto	u182_21
  3979  0104  2906               	goto	u182_20
  3980  0105                     u182_21:	
  3981  0105  291E               	goto	i1l1964
  3982  0106                     u182_20:	
  3983  0106                     i1l1952:	
  3984                           
  3985                           ;Source/Usb.c: 499:     {;Source/Usb.c: 500:             RequestHandled = 1;
  3986  0106  01B8               	clrf	_RequestHandled
  3987  0107  0AB8               	incf	_RequestHandled,f
  3988  0108                     i1l1954:	
  3989                           
  3990                           ;Source/Usb.c: 501:             CurrentConfiguration = SetupPacket.wValue0;
  3991  0108  0842               	movf	_SetupPacket+2,w	;volatile
  3992  0109  00F6               	movwf	??_ProcessStandardRequest
  3993  010A  0876               	movf	??_ProcessStandardRequest,w
  3994  010B  00DB               	movwf	_CurrentConfiguration
  3995  010C                     i1l1956:	
  3996                           
  3997                           ;Source/Usb.c: 504:             if (CurrentConfiguration == 0)
  3998  010C  085B               	movf	_CurrentConfiguration,w
  3999  010D  1D03               	btfss	3,2
  4000  010E  2910               	goto	u183_21
  4001  010F  2911               	goto	u183_20
  4002  0110                     u183_21:	
  4003  0110  2916               	goto	i1l1960
  4004  0111                     u183_20:	
  4005  0111                     i1l1958:	
  4006                           
  4007                           ;Source/Usb.c: 507:                 DeviceState = 0x04;
  4008  0111  3004               	movlw	4
  4009  0112  00F6               	movwf	??_ProcessStandardRequest
  4010  0113  0876               	movf	??_ProcessStandardRequest,w
  4011  0114  00BF               	movwf	_DeviceState
  4012  0115  296B               	goto	i1l296
  4013  0116                     i1l1960:	
  4014                           
  4015                           ;Source/Usb.c: 509:             {;Source/Usb.c: 511:                 DeviceState = 0x05;
  4016  0116  3005               	movlw	5
  4017  0117  00F6               	movwf	??_ProcessStandardRequest
  4018  0118  0876               	movf	??_ProcessStandardRequest,w
  4019  0119  00BF               	movwf	_DeviceState
  4020  011A                     i1l1962:	
  4021                           
  4022                           ;Source/Usb.c: 514:                 HIDInitEndpoints();
  4023  011A  3181  21FE  3180   	fcall	_HIDInitEndpoints
  4024  011D  296B               	goto	i1l296
  4025  011E                     i1l1964:	
  4026  011E  3008               	movlw	8
  4027  011F  0677               	xorwf	ProcessStandardRequest@request,w
  4028  0120  1D03               	btfss	3,2
  4029  0121  2923               	goto	u184_21
  4030  0122  2924               	goto	u184_20
  4031  0123                     u184_21:	
  4032  0123  2930               	goto	i1l1972
  4033  0124                     u184_20:	
  4034  0124                     i1l1966:	
  4035                           
  4036                           ;Source/Usb.c: 521:     {;Source/Usb.c: 522:             RequestHandled = 1;
  4037  0124  01B8               	clrf	_RequestHandled
  4038  0125  0AB8               	incf	_RequestHandled,f
  4039  0126                     i1l1968:	
  4040                           
  4041                           ;Source/Usb.c: 523:             outPtr = (uint8_t*)&CurrentConfiguration;
  4042  0126  305B               	movlw	(low (_CurrentConfiguration| 0))& (0+255)
  4043  0127  00F6               	movwf	??_ProcessStandardRequest
  4044  0128  0876               	movf	??_ProcessStandardRequest,w
  4045  0129  00B6               	movwf	_outPtr
  4046                           
  4047                           ;Source/Usb.c: 524:             wCount = 1;
  4048  012A  3001               	movlw	1
  4049  012B  00B0               	movwf	_wCount
  4050  012C  3000               	movlw	0
  4051  012D  00B1               	movwf	_wCount+1
  4052  012E                     i1l1970:	
  4053                           
  4054                           ;Source/Usb.c: 525:    transferType=0;
  4055  012E  01B5               	clrf	_transferType
  4056                           
  4057                           ;Source/Usb.c: 526:     }
  4058  012F  296B               	goto	i1l296
  4059  0130                     i1l1972:	
  4060  0130  0877               	movf	ProcessStandardRequest@request,w
  4061  0131  1D03               	btfss	3,2
  4062  0132  2934               	goto	u185_21
  4063  0133  2935               	goto	u185_20
  4064  0134                     u185_21:	
  4065  0134  2939               	goto	i1l1976
  4066  0135                     u185_20:	
  4067  0135                     i1l1974:	
  4068                           
  4069                           ;Source/Usb.c: 528:     {;Source/Usb.c: 529:             GetStatus();
  4070  0135  3184  24BF  3180   	fcall	_GetStatus
  4071                           
  4072                           ;Source/Usb.c: 530:     }
  4073  0138  296B               	goto	i1l296
  4074  0139                     i1l1976:	
  4075  0139  0377               	decf	ProcessStandardRequest@request,w
  4076  013A  1903               	btfsc	3,2
  4077  013B  293D               	goto	u186_21
  4078  013C  293E               	goto	u186_20
  4079  013D                     u186_21:	
  4080  013D  2944               	goto	i1l1980
  4081  013E                     u186_20:	
  4082  013E                     i1l1978:	
  4083  013E  3003               	movlw	3
  4084  013F  0677               	xorwf	ProcessStandardRequest@request,w
  4085  0140  1D03               	btfss	3,2
  4086  0141  2943               	goto	u187_21
  4087  0142  2944               	goto	u187_20
  4088  0143                     u187_21:	
  4089  0143  2948               	goto	i1l1982
  4090  0144                     u187_20:	
  4091  0144                     i1l1980:	
  4092                           
  4093                           ;Source/Usb.c: 533:     {;Source/Usb.c: 534:             SetFeature();
  4094  0144  3183  2309  3180   	fcall	_SetFeature
  4095                           
  4096                           ;Source/Usb.c: 535:     }
  4097  0147  296B               	goto	i1l296
  4098  0148                     i1l1982:	
  4099  0148  300A               	movlw	10
  4100  0149  0677               	xorwf	ProcessStandardRequest@request,w
  4101  014A  1D03               	btfss	3,2
  4102  014B  294D               	goto	u188_21
  4103  014C  294E               	goto	u188_20
  4104  014D                     u188_21:	
  4105  014D  295B               	goto	i1l1992
  4106  014E                     u188_20:	
  4107  014E                     i1l1984:	
  4108                           
  4109                           ;Source/Usb.c: 537:     {;Source/Usb.c: 540:             RequestHandled = 1;
  4110  014E  01B8               	clrf	_RequestHandled
  4111  014F  0AB8               	incf	_RequestHandled,f
  4112  0150                     i1l1986:	
  4113                           
  4114                           ;Source/Usb.c: 541:             ControlTransferBuffer[0] = 0;
  4115  0150  01C9               	clrf	_ControlTransferBuffer	;volatile
  4116  0151                     i1l1988:	
  4117                           
  4118                           ;Source/Usb.c: 542:             outPtr = (uint8_t*)&ControlTransferBuffer;
  4119  0151  3049               	movlw	(low (_ControlTransferBuffer| 0))& (0+255)
  4120  0152  00F6               	movwf	??_ProcessStandardRequest
  4121  0153  0876               	movf	??_ProcessStandardRequest,w
  4122  0154  00B6               	movwf	_outPtr
  4123  0155                     i1l1990:	
  4124                           
  4125                           ;Source/Usb.c: 543:             wCount = 1;
  4126  0155  3001               	movlw	1
  4127  0156  00B0               	movwf	_wCount
  4128  0157  3000               	movlw	0
  4129  0158  00B1               	movwf	_wCount+1
  4130                           
  4131                           ;Source/Usb.c: 544:    transferType=0;
  4132  0159  01B5               	clrf	_transferType
  4133                           
  4134                           ;Source/Usb.c: 545:     }
  4135  015A  296B               	goto	i1l296
  4136  015B                     i1l1992:	
  4137  015B  300B               	movlw	11
  4138  015C  0677               	xorwf	ProcessStandardRequest@request,w
  4139  015D  1D03               	btfss	3,2
  4140  015E  2960               	goto	u189_21
  4141  015F  2961               	goto	u189_20
  4142  0160                     u189_21:	
  4143  0160  2964               	goto	i1l1996
  4144  0161                     u189_20:	
  4145  0161                     i1l1994:	
  4146                           
  4147                           ;Source/Usb.c: 547:     {;Source/Usb.c: 549:             RequestHandled = 1;
  4148  0161  01B8               	clrf	_RequestHandled
  4149  0162  0AB8               	incf	_RequestHandled,f
  4150                           
  4151                           ;Source/Usb.c: 550:     }
  4152  0163  296B               	goto	i1l296
  4153  0164                     i1l1996:	
  4154  0164  3007               	movlw	7
  4155  0165  0677               	xorwf	ProcessStandardRequest@request,w
  4156  0166  1D03               	btfss	3,2
  4157  0167  2969               	goto	u190_21
  4158  0168  296A               	goto	u190_20
  4159  0169                     u190_21:	
  4160  0169  296B               	goto	i1l2000
  4161  016A                     u190_20:	
  4162  016A  296B               	goto	i1l296
  4163  016B                     i1l2000:	
  4164  016B                     i1l296:	
  4165  016B  0008               	return
  4166  016C                     __end_of_ProcessStandardRequest:	
  4167                           
  4168                           	psect	text25
  4169  0309                     __ptext25:	
  4170 ;; *************** function _SetFeature *****************
  4171 ;; Defined at:
  4172 ;;		line 429 in file "Source/Usb.c"
  4173 ;; Parameters:    Size  Location     Type
  4174 ;;		None
  4175 ;; Auto vars:     Size  Location     Type
  4176 ;;  endpointDir     1    5[COMMON] unsigned char 
  4177 ;;  endpointNum     1    4[COMMON] unsigned char 
  4178 ;;  feature         1    3[COMMON] unsigned char 
  4179 ;;  recipient       1    2[COMMON] unsigned char 
  4180 ;; Return value:  Size  Location     Type
  4181 ;;                  1    wreg      void 
  4182 ;; Registers used:
  4183 ;;		wreg, fsr1l, fsr1h, status,2, status,0
  4184 ;; Tracked objects:
  4185 ;;		On entry : 0/0
  4186 ;;		On exit  : 0/0
  4187 ;;		Unchanged: 0/0
  4188 ;; Data sizes:     COMMON   BANK0   BANK1   BANK2   BANK3   BANK4   BANK5   BANK6   BANK7   BANK8   BANK9  BANK10  BANK1
      +1  BANK12
  4189 ;;      Params:         0       0       0       0       0       0       0       0       0       0       0       0       
      +0       0
  4190 ;;      Locals:         4       0       0       0       0       0       0       0       0       0       0       0       
      +0       0
  4191 ;;      Temps:          2       0       0       0       0       0       0       0       0       0       0       0       
      +0       0
  4192 ;;      Totals:         6       0       0       0       0       0       0       0       0       0       0       0       
      +0       0
  4193 ;;Total ram usage:        6 bytes
  4194 ;; Hardware stack levels used:    1
  4195 ;; This function calls:
  4196 ;;		Nothing
  4197 ;; This function is called by:
  4198 ;;		_ProcessStandardRequest
  4199 ;; This function uses a non-reentrant model
  4200 ;;
  4201                           
  4202                           
  4203                           ;psect for function _SetFeature
  4204  0309                     _SetFeature:	
  4205  0309                     i1l1826:	
  4206                           ;incstack = 0
  4207                           ; Regs used in _SetFeature: [wreg+fsr1l+fsr1h+status,2+status,0]
  4208                           
  4209                           
  4210                           ;Source/Usb.c: 431:     uint8_t recipient = SetupPacket.bmRequestType & 0x1F;
  4211  0309  0020               	movlb	0	; select bank0
  4212  030A  0840               	movf	_SetupPacket,w	;volatile
  4213  030B  391F               	andlw	31
  4214  030C  00F0               	movwf	??_SetFeature
  4215  030D  0870               	movf	??_SetFeature,w
  4216  030E  00F2               	movwf	SetFeature@recipient
  4217  030F                     i1l1828:	
  4218                           
  4219                           ;Source/Usb.c: 432:     uint8_t feature = SetupPacket.wValue0;
  4220  030F  0842               	movf	_SetupPacket+2,w	;volatile
  4221  0310  00F0               	movwf	??_SetFeature
  4222  0311  0870               	movf	??_SetFeature,w
  4223  0312  00F3               	movwf	SetFeature@feature
  4224  0313                     i1l1830:	
  4225                           
  4226                           ;Source/Usb.c: 434:     if (recipient == 0x00)
  4227  0313  0872               	movf	SetFeature@recipient,w
  4228  0314  1D03               	btfss	3,2
  4229  0315  2B17               	goto	u157_21
  4230  0316  2B18               	goto	u157_20
  4231  0317                     u157_21:	
  4232  0317  2B2A               	goto	i1l1842
  4233  0318                     u157_20:	
  4234  0318                     i1l1832:	
  4235                           
  4236                           ;Source/Usb.c: 435:     {;Source/Usb.c: 437:         if (feature == 0x01)
  4237  0318  0373               	decf	SetFeature@feature,w
  4238  0319  1D03               	btfss	3,2
  4239  031A  2B1C               	goto	u158_21
  4240  031B  2B1D               	goto	u158_20
  4241  031C                     u158_21:	
  4242  031C  2B7A               	goto	i1l292
  4243  031D                     u158_20:	
  4244  031D                     i1l1834:	
  4245                           
  4246                           ;Source/Usb.c: 438:         {;Source/Usb.c: 439:             RequestHandled = 1;
  4247  031D  01B8               	clrf	_RequestHandled
  4248  031E  0AB8               	incf	_RequestHandled,f
  4249  031F                     i1l1836:	
  4250                           
  4251                           ;Source/Usb.c: 440:             if (SetupPacket.bRequest == 0x03)
  4252  031F  3003               	movlw	3
  4253  0320  0641               	xorwf	_SetupPacket+1,w	;volatile
  4254  0321  1D03               	btfss	3,2
  4255  0322  2B24               	goto	u159_21
  4256  0323  2B25               	goto	u159_20
  4257  0324                     u159_21:	
  4258  0324  2B28               	goto	i1l1840
  4259  0325                     u159_20:	
  4260  0325                     i1l1838:	
  4261                           
  4262                           ;Source/Usb.c: 441:                 RemoteWakeup = 1;
  4263  0325  01BD               	clrf	_RemoteWakeup
  4264  0326  0ABD               	incf	_RemoteWakeup,f
  4265  0327  2B7A               	goto	i1l292
  4266  0328                     i1l1840:	
  4267                           
  4268                           ;Source/Usb.c: 443:                 RemoteWakeup = 0;
  4269  0328  01BD               	clrf	_RemoteWakeup
  4270  0329  2B7A               	goto	i1l292
  4271  032A                     i1l1842:	
  4272  032A  3002               	movlw	2
  4273  032B  0672               	xorwf	SetFeature@recipient,w
  4274  032C  1D03               	btfss	3,2
  4275  032D  2B2F               	goto	u160_21
  4276  032E  2B30               	goto	u160_20
  4277  032F                     u160_21:	
  4278  032F  2B7A               	goto	i1l292
  4279  0330                     u160_20:	
  4280  0330                     i1l1844:	
  4281                           
  4282                           ;Source/Usb.c: 448:     {;Source/Usb.c: 450:         uint8_t endpointNum = SetupPacket.w
      +                          Index0 & 0x0F;
  4283  0330  0844               	movf	_SetupPacket+4,w	;volatile
  4284  0331  390F               	andlw	15
  4285  0332  00F0               	movwf	??_SetFeature
  4286  0333  0870               	movf	??_SetFeature,w
  4287  0334  00F4               	movwf	SetFeature@endpointNum
  4288                           
  4289                           ;Source/Usb.c: 451:         uint8_t endpointDir = SetupPacket.wIndex0 & 0x80;
  4290  0335  0844               	movf	_SetupPacket+4,w	;volatile
  4291  0336  3980               	andlw	128
  4292  0337  00F0               	movwf	??_SetFeature
  4293  0338  0870               	movf	??_SetFeature,w
  4294  0339  00F5               	movwf	SetFeature@endpointDir
  4295  033A                     i1l1846:	
  4296                           
  4297                           ;Source/Usb.c: 452:         if ((feature == 0x00) && (endpointNum != 0))
  4298  033A  0873               	movf	SetFeature@feature,w
  4299  033B  1D03               	btfss	3,2
  4300  033C  2B3E               	goto	u161_21
  4301  033D  2B3F               	goto	u161_20
  4302  033E                     u161_21:	
  4303  033E  2B7A               	goto	i1l292
  4304  033F                     u161_20:	
  4305  033F                     i1l1848:	
  4306  033F  0874               	movf	SetFeature@endpointNum,w
  4307  0340  1903               	btfsc	3,2
  4308  0341  2B43               	goto	u162_21
  4309  0342  2B44               	goto	u162_20
  4310  0343                     u162_21:	
  4311  0343  2B7A               	goto	i1l292
  4312  0344                     u162_20:	
  4313  0344                     i1l1850:	
  4314                           
  4315                           ;Source/Usb.c: 453:         {;Source/Usb.c: 455:             RequestHandled = 1;
  4316  0344  01B8               	clrf	_RequestHandled
  4317  0345  0AB8               	incf	_RequestHandled,f
  4318  0346                     i1l1852:	
  4319                           
  4320                           ;Source/Usb.c: 458:             inPtr = (uint8_t *)&Interfaces[0].Output + (endpointNum 
      +                          * 8);
  4321  0346  0874               	movf	SetFeature@endpointNum,w
  4322  0347  00F0               	movwf	??_SetFeature
  4323  0348  3002               	movlw	2
  4324  0349                     u163_25:	
  4325  0349  35F0               	lslf	??_SetFeature,f
  4326  034A  3EFF               	addlw	-1
  4327  034B  1D03               	skipz
  4328  034C  2B49               	goto	u163_25
  4329  034D  3570               	lslf	??_SetFeature,w
  4330  034E  3E20               	addlw	32
  4331  034F  00F1               	movwf	??_SetFeature+1
  4332  0350  0871               	movf	??_SetFeature+1,w
  4333  0351  00FD               	movwf	_inPtr
  4334                           
  4335                           ;Source/Usb.c: 459:             if (endpointDir)
  4336  0352  0875               	movf	SetFeature@endpointDir,w
  4337  0353  1903               	btfsc	3,2
  4338  0354  2B56               	goto	u164_21
  4339  0355  2B57               	goto	u164_20
  4340  0356                     u164_21:	
  4341  0356  2B5B               	goto	i1l287
  4342  0357                     u164_20:	
  4343  0357                     i1l1854:	
  4344                           
  4345                           ;Source/Usb.c: 460:                 inPtr += 4;
  4346  0357  3004               	movlw	4
  4347  0358  00F0               	movwf	??_SetFeature
  4348  0359  0870               	movf	??_SetFeature,w
  4349  035A  07FD               	addwf	_inPtr,f
  4350  035B                     i1l287:	
  4351                           
  4352                           ;Source/Usb.c: 462:             if(SetupPacket.bRequest == 0x03)
  4353  035B  3003               	movlw	3
  4354  035C  0641               	xorwf	_SetupPacket+1,w	;volatile
  4355  035D  1D03               	btfss	3,2
  4356  035E  2B60               	goto	u165_21
  4357  035F  2B61               	goto	u165_20
  4358  0360                     u165_21:	
  4359  0360  2B69               	goto	i1l1858
  4360  0361                     u165_20:	
  4361  0361                     i1l1856:	
  4362                           
  4363                           ;Source/Usb.c: 463:                 *inPtr = 0x84;
  4364  0361  3084               	movlw	132
  4365  0362  00F0               	movwf	??_SetFeature
  4366  0363  087D               	movf	_inPtr,w
  4367  0364  0086               	movwf	6
  4368  0365  0187               	clrf	7
  4369  0366  0870               	movf	??_SetFeature,w
  4370  0367  0081               	movwf	1
  4371  0368  2B7A               	goto	i1l292
  4372  0369                     i1l1858:	
  4373                           
  4374                           ;Source/Usb.c: 465:             {;Source/Usb.c: 466:                 if(endpointDir == 1
      +                          )
  4375  0369  0375               	decf	SetFeature@endpointDir,w
  4376  036A  1D03               	btfss	3,2
  4377  036B  2B6D               	goto	u166_21
  4378  036C  2B6E               	goto	u166_20
  4379  036D                     u166_21:	
  4380  036D  2B73               	goto	i1l1862
  4381  036E                     u166_20:	
  4382  036E                     i1l1860:	
  4383                           
  4384                           ;Source/Usb.c: 467:                     *inPtr = 0x00;
  4385  036E  087D               	movf	_inPtr,w
  4386  036F  0086               	movwf	6
  4387  0370  0187               	clrf	7
  4388  0371  0181               	clrf	1
  4389  0372  2B7A               	goto	i1l292
  4390  0373                     i1l1862:	
  4391                           
  4392                           ;Source/Usb.c: 469:                     *inPtr = 0x88;
  4393  0373  3088               	movlw	136
  4394  0374  00F0               	movwf	??_SetFeature
  4395  0375  087D               	movf	_inPtr,w
  4396  0376  0086               	movwf	6
  4397  0377  0187               	clrf	7
  4398  0378  0870               	movf	??_SetFeature,w
  4399  0379  0081               	movwf	1
  4400  037A                     i1l292:	
  4401  037A  0008               	return
  4402  037B                     __end_of_SetFeature:	
  4403                           
  4404                           	psect	text26
  4405  01FE                     __ptext26:	
  4406 ;; *************** function _HIDInitEndpoints *****************
  4407 ;; Defined at:
  4408 ;;		line 233 in file "Source/Usb.c"
  4409 ;; Parameters:    Size  Location     Type
  4410 ;;		None
  4411 ;; Auto vars:     Size  Location     Type
  4412 ;;  i               1    4[COMMON] unsigned char 
  4413 ;; Return value:  Size  Location     Type
  4414 ;;                  1    wreg      void 
  4415 ;; Registers used:
  4416 ;;		wreg, fsr1l, fsr1h, status,2, status,0
  4417 ;; Tracked objects:
  4418 ;;		On entry : 0/0
  4419 ;;		On exit  : 0/0
  4420 ;;		Unchanged: 0/0
  4421 ;; Data sizes:     COMMON   BANK0   BANK1   BANK2   BANK3   BANK4   BANK5   BANK6   BANK7   BANK8   BANK9  BANK10  BANK1
      +1  BANK12
  4422 ;;      Params:         0       0       0       0       0       0       0       0       0       0       0       0       
      +0       0
  4423 ;;      Locals:         1       0       0       0       0       0       0       0       0       0       0       0       
      +0       0
  4424 ;;      Temps:          4       0       0       0       0       0       0       0       0       0       0       0       
      +0       0
  4425 ;;      Totals:         5       0       0       0       0       0       0       0       0       0       0       0       
      +0       0
  4426 ;;Total ram usage:        5 bytes
  4427 ;; Hardware stack levels used:    1
  4428 ;; This function calls:
  4429 ;;		Nothing
  4430 ;; This function is called by:
  4431 ;;		_ProcessStandardRequest
  4432 ;; This function uses a non-reentrant model
  4433 ;;
  4434                           
  4435                           
  4436                           ;psect for function _HIDInitEndpoints
  4437  01FE                     _HIDInitEndpoints:	
  4438  01FE                     i1l1736:	
  4439                           ;incstack = 0
  4440                           ; Regs used in _HIDInitEndpoints: [wreg+fsr1l+fsr1h+status,2+status,0]
  4441                           
  4442                           
  4443                           ;Source/Usb.c: 235:     uint8_t i = 0;
  4444  01FE  01F4               	clrf	HIDInitEndpoints@i
  4445                           
  4446                           ;Source/Usb.c: 237:     HidRxLen =0;
  4447  01FF  0020               	movlb	0	; select bank0
  4448  0200  01B7               	clrf	_HidRxLen
  4449                           
  4450                           ;Source/Usb.c: 239:     for (i = 0 ; i < 0x01; i++)
  4451  0201  01F4               	clrf	HIDInitEndpoints@i
  4452  0202                     i1l1742:	
  4453                           
  4454                           ;Source/Usb.c: 240:     {;Source/Usb.c: 242:         EndpointFlags[i] = 0x1E;
  4455  0202  301E               	movlw	30
  4456  0203  00F0               	movwf	??_HIDInitEndpoints
  4457  0204  0874               	movf	HIDInitEndpoints@i,w
  4458  0205  3E99               	addlw	153
  4459  0206  0086               	movwf	6
  4460  0207  300E               	movlw	14	; select bank29/30
  4461  0208  0087               	movwf	7
  4462  0209  0870               	movf	??_HIDInitEndpoints,w
  4463  020A  0081               	movwf	1
  4464                           
  4465                           ;Source/Usb.c: 244:         Interfaces[i + 1].Output.Cnt = Buffers[(i * 2) + 1].Size;
  4466  020B  0874               	movf	HIDInitEndpoints@i,w
  4467  020C  00F0               	movwf	??_HIDInitEndpoints
  4468  020D  3001               	movlw	1
  4469  020E                     u134_25:	
  4470  020E  35F0               	lslf	??_HIDInitEndpoints,f
  4471  020F  3EFF               	addlw	-1
  4472  0210  1D03               	skipz
  4473  0211  2A0E               	goto	u134_25
  4474  0212  3570               	lslf	??_HIDInitEndpoints,w
  4475  0213  3E6B               	addlw	(low ((_Buffers| 0+2)))& (0+255)
  4476  0214  0086               	movwf	6
  4477  0215  0187               	clrf	7
  4478  0216  0801               	movf	1,w
  4479  0217  00F1               	movwf	??_HIDInitEndpoints+1
  4480  0218  0874               	movf	HIDInitEndpoints@i,w
  4481  0219  00F2               	movwf	??_HIDInitEndpoints+2
  4482  021A  3002               	movlw	2
  4483  021B                     u135_25:	
  4484  021B  35F2               	lslf	??_HIDInitEndpoints+2,f
  4485  021C  3EFF               	addlw	-1
  4486  021D  1D03               	skipz
  4487  021E  2A1B               	goto	u135_25
  4488  021F  3572               	lslf	??_HIDInitEndpoints+2,w
  4489  0220  3E29               	addlw	41
  4490  0221  0086               	movwf	6
  4491  0222  0187               	clrf	7
  4492  0223  0871               	movf	??_HIDInitEndpoints+1,w
  4493  0224  0081               	movwf	1
  4494                           
  4495                           ;Source/Usb.c: 247:         Interfaces[i + 1].Output.ADDR = ((unsigned int)(((unsigned l
      +                          ong)Buffers[(i * 2) + 1].Buffer) & 0xFFFF));
  4496  0225  0874               	movf	HIDInitEndpoints@i,w
  4497  0226  00F0               	movwf	??_HIDInitEndpoints
  4498  0227  3001               	movlw	1
  4499  0228                     u136_25:	
  4500  0228  35F0               	lslf	??_HIDInitEndpoints,f
  4501  0229  3EFF               	addlw	-1
  4502  022A  1D03               	skipz
  4503  022B  2A28               	goto	u136_25
  4504  022C  3570               	lslf	??_HIDInitEndpoints,w
  4505  022D  3E6C               	addlw	(low ((_Buffers| 0+3)))& (0+255)
  4506  022E  0086               	movwf	6
  4507  022F  0187               	clrf	7
  4508  0230  0801               	movf	1,w
  4509  0231  00F1               	movwf	??_HIDInitEndpoints+1
  4510  0232  3000               	movlw	0
  4511  0233  00F2               	movwf	??_HIDInitEndpoints+2
  4512  0234  0874               	movf	HIDInitEndpoints@i,w
  4513  0235  00F3               	movwf	??_HIDInitEndpoints+3
  4514  0236  3002               	movlw	2
  4515  0237                     u137_25:	
  4516  0237  35F3               	lslf	??_HIDInitEndpoints+3,f
  4517  0238  3EFF               	addlw	-1
  4518  0239  1D03               	skipz
  4519  023A  2A37               	goto	u137_25
  4520  023B  3573               	lslf	??_HIDInitEndpoints+3,w
  4521  023C  3E2A               	addlw	42
  4522  023D  0086               	movwf	6
  4523  023E  0187               	clrf	7
  4524  023F  0871               	movf	??_HIDInitEndpoints+1,w
  4525  0240  3FC0               	movwi [0]fsr1
  4526  0241  0872               	movf	??_HIDInitEndpoints+2,w
  4527  0242  3FC1               	movwi [1]fsr1
  4528                           
  4529                           ;Source/Usb.c: 249:         Interfaces[i + 1].Output.Stat = 0x80 | 0x08;
  4530  0243  3088               	movlw	136
  4531  0244  00F0               	movwf	??_HIDInitEndpoints
  4532  0245  0874               	movf	HIDInitEndpoints@i,w
  4533  0246  00F1               	movwf	??_HIDInitEndpoints+1
  4534  0247  3002               	movlw	2
  4535  0248                     u138_25:	
  4536  0248  35F1               	lslf	??_HIDInitEndpoints+1,f
  4537  0249  3EFF               	addlw	-1
  4538  024A  1D03               	skipz
  4539  024B  2A48               	goto	u138_25
  4540  024C  3571               	lslf	??_HIDInitEndpoints+1,w
  4541  024D  3E28               	addlw	40
  4542  024E  0086               	movwf	6
  4543  024F  0187               	clrf	7
  4544  0250  0870               	movf	??_HIDInitEndpoints,w
  4545  0251  0081               	movwf	1
  4546                           
  4547                           ;Source/Usb.c: 252:         Interfaces[i + 1].Input.ADDR = ((unsigned int)(((unsigned lo
      +                          ng)Buffers[(i * 2)].Buffer) & 0xFFFF));
  4548  0252  0874               	movf	HIDInitEndpoints@i,w
  4549  0253  00F0               	movwf	??_HIDInitEndpoints
  4550  0254  3001               	movlw	1
  4551  0255                     u139_25:	
  4552  0255  35F0               	lslf	??_HIDInitEndpoints,f
  4553  0256  3EFF               	addlw	-1
  4554  0257  1D03               	skipz
  4555  0258  2A55               	goto	u139_25
  4556  0259  3570               	lslf	??_HIDInitEndpoints,w
  4557  025A  3E6A               	addlw	(low ((_Buffers| 0+1)))& (0+255)
  4558  025B  0086               	movwf	6
  4559  025C  0187               	clrf	7
  4560  025D  0801               	movf	1,w
  4561  025E  00F1               	movwf	??_HIDInitEndpoints+1
  4562  025F  3000               	movlw	0
  4563  0260  00F2               	movwf	??_HIDInitEndpoints+2
  4564  0261  0874               	movf	HIDInitEndpoints@i,w
  4565  0262  00F3               	movwf	??_HIDInitEndpoints+3
  4566  0263  3002               	movlw	2
  4567  0264                     u140_25:	
  4568  0264  35F3               	lslf	??_HIDInitEndpoints+3,f
  4569  0265  3EFF               	addlw	-1
  4570  0266  1D03               	skipz
  4571  0267  2A64               	goto	u140_25
  4572  0268  3573               	lslf	??_HIDInitEndpoints+3,w
  4573  0269  3E2E               	addlw	46
  4574  026A  0086               	movwf	6
  4575  026B  0187               	clrf	7
  4576  026C  0871               	movf	??_HIDInitEndpoints+1,w
  4577  026D  3FC0               	movwi [0]fsr1
  4578  026E  0872               	movf	??_HIDInitEndpoints+2,w
  4579  026F  3FC1               	movwi [1]fsr1
  4580                           
  4581                           ;Source/Usb.c: 253:         Interfaces[i + 1].Input.Stat = 0x40;
  4582  0270  3040               	movlw	64
  4583  0271  00F0               	movwf	??_HIDInitEndpoints
  4584  0272  0874               	movf	HIDInitEndpoints@i,w
  4585  0273  00F1               	movwf	??_HIDInitEndpoints+1
  4586  0274  3002               	movlw	2
  4587  0275                     u141_25:	
  4588  0275  35F1               	lslf	??_HIDInitEndpoints+1,f
  4589  0276  3EFF               	addlw	-1
  4590  0277  1D03               	skipz
  4591  0278  2A75               	goto	u141_25
  4592  0279  3571               	lslf	??_HIDInitEndpoints+1,w
  4593  027A  3E2C               	addlw	44
  4594  027B  0086               	movwf	6
  4595  027C  0187               	clrf	7
  4596  027D  0870               	movf	??_HIDInitEndpoints,w
  4597  027E  0081               	movwf	1
  4598  027F                     i1l1744:	
  4599                           
  4600                           ;Source/Usb.c: 254:     }
  4601  027F  3001               	movlw	1
  4602  0280  00F0               	movwf	??_HIDInitEndpoints
  4603  0281  0870               	movf	??_HIDInitEndpoints,w
  4604  0282  07F4               	addwf	HIDInitEndpoints@i,f
  4605  0283                     i1l1746:	
  4606  0283  0874               	movf	HIDInitEndpoints@i,w
  4607  0284  1903               	btfsc	3,2
  4608  0285  2A87               	goto	u142_21
  4609  0286  2A88               	goto	u142_20
  4610  0287                     u142_21:	
  4611  0287  2A02               	goto	i1l1742
  4612  0288                     u142_20:	
  4613  0288                     i1l226:	
  4614  0288  0008               	return
  4615  0289                     __end_of_HIDInitEndpoints:	
  4616                           
  4617                           	psect	text27
  4618  04BF                     __ptext27:	
  4619 ;; *************** function _GetStatus *****************
  4620 ;; Defined at:
  4621 ;;		line 382 in file "Source/Usb.c"
  4622 ;; Parameters:    Size  Location     Type
  4623 ;;		None
  4624 ;; Auto vars:     Size  Location     Type
  4625 ;;  endpointDir     1    3[COMMON] unsigned char 
  4626 ;;  endpointNum     1    2[COMMON] unsigned char 
  4627 ;;  recipient       1    4[COMMON] unsigned char 
  4628 ;; Return value:  Size  Location     Type
  4629 ;;                  1    wreg      void 
  4630 ;; Registers used:
  4631 ;;		wreg, fsr1l, fsr1h, status,2, status,0
  4632 ;; Tracked objects:
  4633 ;;		On entry : 0/0
  4634 ;;		On exit  : 0/0
  4635 ;;		Unchanged: 0/0
  4636 ;; Data sizes:     COMMON   BANK0   BANK1   BANK2   BANK3   BANK4   BANK5   BANK6   BANK7   BANK8   BANK9  BANK10  BANK1
      +1  BANK12
  4637 ;;      Params:         0       0       0       0       0       0       0       0       0       0       0       0       
      +0       0
  4638 ;;      Locals:         3       0       0       0       0       0       0       0       0       0       0       0       
      +0       0
  4639 ;;      Temps:          2       0       0       0       0       0       0       0       0       0       0       0       
      +0       0
  4640 ;;      Totals:         5       0       0       0       0       0       0       0       0       0       0       0       
      +0       0
  4641 ;;Total ram usage:        5 bytes
  4642 ;; Hardware stack levels used:    1
  4643 ;; This function calls:
  4644 ;;		Nothing
  4645 ;; This function is called by:
  4646 ;;		_ProcessStandardRequest
  4647 ;; This function uses a non-reentrant model
  4648 ;;
  4649                           
  4650                           
  4651                           ;psect for function _GetStatus
  4652  04BF                     _GetStatus:	
  4653  04BF                     i1l1782:	
  4654                           ;incstack = 0
  4655                           ; Regs used in _GetStatus: [wreg+fsr1l+fsr1h+status,2+status,0]
  4656                           
  4657                           
  4658                           ;Source/Usb.c: 385:     uint8_t recipient = SetupPacket.bmRequestType & 0x1F;
  4659  04BF  0020               	movlb	0	; select bank0
  4660  04C0  0840               	movf	_SetupPacket,w	;volatile
  4661  04C1  391F               	andlw	31
  4662  04C2  00F0               	movwf	??_GetStatus
  4663  04C3  0870               	movf	??_GetStatus,w
  4664  04C4  00F4               	movwf	GetStatus@recipient
  4665  04C5                     i1l1784:	
  4666                           
  4667                           ;Source/Usb.c: 386:     ControlTransferBuffer[0] = 0;
  4668  04C5  01C9               	clrf	_ControlTransferBuffer	;volatile
  4669  04C6                     i1l1786:	
  4670                           
  4671                           ;Source/Usb.c: 387:     ControlTransferBuffer[1] = 0;
  4672  04C6  01CA               	clrf	_ControlTransferBuffer+1	;volatile
  4673  04C7                     i1l1788:	
  4674                           
  4675                           ;Source/Usb.c: 390:     if (recipient == 0x00)
  4676  04C7  0874               	movf	GetStatus@recipient,w
  4677  04C8  1D03               	btfss	3,2
  4678  04C9  2CCB               	goto	u148_21
  4679  04CA  2CCC               	goto	u148_20
  4680  04CB                     u148_21:	
  4681  04CB  2CDB               	goto	i1l1800
  4682  04CC                     u148_20:	
  4683  04CC                     i1l1790:	
  4684                           
  4685                           ;Source/Usb.c: 391:     {;Source/Usb.c: 393:         RequestHandled = 1;
  4686  04CC  01B8               	clrf	_RequestHandled
  4687  04CD  0AB8               	incf	_RequestHandled,f
  4688  04CE                     i1l1792:	
  4689                           
  4690                           ;Source/Usb.c: 395:         if (SelfPowered)
  4691  04CE  083B               	movf	_SelfPowered,w
  4692  04CF  1903               	btfsc	3,2
  4693  04D0  2CD2               	goto	u149_21
  4694  04D1  2CD3               	goto	u149_20
  4695  04D2                     u149_21:	
  4696  04D2  2CD4               	goto	i1l1796
  4697  04D3                     u149_20:	
  4698  04D3                     i1l1794:	
  4699                           
  4700                           ;Source/Usb.c: 396:             ControlTransferBuffer[0] |= 0x01;
  4701  04D3  1449               	bsf	_ControlTransferBuffer,0	;volatile
  4702  04D4                     i1l1796:	
  4703                           
  4704                           ;Source/Usb.c: 397:         if (RemoteWakeup)
  4705  04D4  083D               	movf	_RemoteWakeup,w
  4706  04D5  1903               	btfsc	3,2
  4707  04D6  2CD8               	goto	u150_21
  4708  04D7  2CD9               	goto	u150_20
  4709  04D8                     u150_21:	
  4710  04D8  2D15               	goto	i1l1820
  4711  04D9                     u150_20:	
  4712  04D9                     i1l1798:	
  4713                           
  4714                           ;Source/Usb.c: 398:             ControlTransferBuffer[0] |= 0x02;
  4715  04D9  14C9               	bsf	_ControlTransferBuffer,1	;volatile
  4716  04DA  2D15               	goto	i1l1820
  4717  04DB                     i1l1800:	
  4718  04DB  0374               	decf	GetStatus@recipient,w
  4719  04DC  1D03               	btfss	3,2
  4720  04DD  2CDF               	goto	u151_21
  4721  04DE  2CE0               	goto	u151_20
  4722  04DF                     u151_21:	
  4723  04DF  2CE3               	goto	i1l1804
  4724  04E0                     u151_20:	
  4725  04E0                     i1l1802:	
  4726                           
  4727                           ;Source/Usb.c: 401:     {;Source/Usb.c: 403:         RequestHandled = 1;
  4728  04E0  01B8               	clrf	_RequestHandled
  4729  04E1  0AB8               	incf	_RequestHandled,f
  4730                           
  4731                           ;Source/Usb.c: 404:     }
  4732  04E2  2D15               	goto	i1l1820
  4733  04E3                     i1l1804:	
  4734  04E3  3002               	movlw	2
  4735  04E4  0674               	xorwf	GetStatus@recipient,w
  4736  04E5  1D03               	btfss	3,2
  4737  04E6  2CE8               	goto	u152_21
  4738  04E7  2CE9               	goto	u152_20
  4739  04E8                     u152_21:	
  4740  04E8  2D15               	goto	i1l1820
  4741  04E9                     u152_20:	
  4742  04E9                     i1l1806:	
  4743                           
  4744                           ;Source/Usb.c: 406:     {;Source/Usb.c: 408:         uint8_t endpointNum = SetupPacket.w
      +                          Index0 & 0x0F;
  4745  04E9  0844               	movf	_SetupPacket+4,w	;volatile
  4746  04EA  390F               	andlw	15
  4747  04EB  00F0               	movwf	??_GetStatus
  4748  04EC  0870               	movf	??_GetStatus,w
  4749  04ED  00F2               	movwf	GetStatus@endpointNum
  4750                           
  4751                           ;Source/Usb.c: 409:         uint8_t endpointDir = SetupPacket.wIndex0 & 0x80;
  4752  04EE  0844               	movf	_SetupPacket+4,w	;volatile
  4753  04EF  3980               	andlw	128
  4754  04F0  00F0               	movwf	??_GetStatus
  4755  04F1  0870               	movf	??_GetStatus,w
  4756  04F2  00F3               	movwf	GetStatus@endpointDir
  4757  04F3                     i1l1808:	
  4758                           
  4759                           ;Source/Usb.c: 410:         RequestHandled = 1;
  4760  04F3  01B8               	clrf	_RequestHandled
  4761  04F4  0AB8               	incf	_RequestHandled,f
  4762  04F5                     i1l1810:	
  4763                           
  4764                           ;Source/Usb.c: 413:         inPtr = (uint8_t *)&Interfaces[0].Output + (endpointNum * 8)
      +                          ;
  4765  04F5  0872               	movf	GetStatus@endpointNum,w
  4766  04F6  00F0               	movwf	??_GetStatus
  4767  04F7  3002               	movlw	2
  4768  04F8                     u153_25:	
  4769  04F8  35F0               	lslf	??_GetStatus,f
  4770  04F9  3EFF               	addlw	-1
  4771  04FA  1D03               	skipz
  4772  04FB  2CF8               	goto	u153_25
  4773  04FC  3570               	lslf	??_GetStatus,w
  4774  04FD  3E20               	addlw	32
  4775  04FE  00F1               	movwf	??_GetStatus+1
  4776  04FF  0871               	movf	??_GetStatus+1,w
  4777  0500  00FD               	movwf	_inPtr
  4778  0501                     i1l1812:	
  4779                           
  4780                           ;Source/Usb.c: 414:         if (endpointDir)
  4781  0501  0873               	movf	GetStatus@endpointDir,w
  4782  0502  1903               	btfsc	3,2
  4783  0503  2D05               	goto	u154_21
  4784  0504  2D06               	goto	u154_20
  4785  0505                     u154_21:	
  4786  0505  2D0A               	goto	i1l1816
  4787  0506                     u154_20:	
  4788  0506                     i1l1814:	
  4789                           
  4790                           ;Source/Usb.c: 415:             inPtr += 4;
  4791  0506  3004               	movlw	4
  4792  0507  00F0               	movwf	??_GetStatus
  4793  0508  0870               	movf	??_GetStatus,w
  4794  0509  07FD               	addwf	_inPtr,f
  4795  050A                     i1l1816:	
  4796                           
  4797                           ;Source/Usb.c: 416:         if(*inPtr & 0x04)
  4798  050A  087D               	movf	_inPtr,w
  4799  050B  0086               	movwf	6
  4800  050C  0187               	clrf	7
  4801  050D  1D01               	btfss	1,2
  4802  050E  2D10               	goto	u155_21
  4803  050F  2D11               	goto	u155_20
  4804  0510                     u155_21:	
  4805  0510  2D15               	goto	i1l1820
  4806  0511                     u155_20:	
  4807  0511                     i1l1818:	
  4808                           
  4809                           ;Source/Usb.c: 417:             ControlTransferBuffer[0] = 0x01;
  4810  0511  3001               	movlw	1
  4811  0512  00F0               	movwf	??_GetStatus
  4812  0513  0870               	movf	??_GetStatus,w
  4813  0514  00C9               	movwf	_ControlTransferBuffer	;volatile
  4814  0515                     i1l1820:	
  4815                           
  4816                           ;Source/Usb.c: 420:     if (RequestHandled)
  4817  0515  0838               	movf	_RequestHandled,w
  4818  0516  1903               	btfsc	3,2
  4819  0517  2D19               	goto	u156_21
  4820  0518  2D1A               	goto	u156_20
  4821  0519                     u156_21:	
  4822  0519  2D23               	goto	i1l277
  4823  051A                     u156_20:	
  4824  051A                     i1l1822:	
  4825                           
  4826                           ;Source/Usb.c: 421:     {;Source/Usb.c: 422:         outPtr = (uint8_t *)&ControlTransfe
      +                          rBuffer;
  4827  051A  3049               	movlw	(low (_ControlTransferBuffer| 0))& (0+255)
  4828  051B  00F0               	movwf	??_GetStatus
  4829  051C  0870               	movf	??_GetStatus,w
  4830  051D  00B6               	movwf	_outPtr
  4831                           
  4832                           ;Source/Usb.c: 423:         wCount = 2;
  4833  051E  3002               	movlw	2
  4834  051F  00B0               	movwf	_wCount
  4835  0520  3000               	movlw	0
  4836  0521  00B1               	movwf	_wCount+1
  4837  0522                     i1l1824:	
  4838                           
  4839                           ;Source/Usb.c: 424:   transferType=0;
  4840  0522  01B5               	clrf	_transferType
  4841  0523                     i1l277:	
  4842  0523  0008               	return
  4843  0524                     __end_of_GetStatus:	
  4844                           
  4845                           	psect	text28
  4846  0524                     __ptext28:	
  4847 ;; *************** function _GetDescriptor *****************
  4848 ;; Defined at:
  4849 ;;		line 343 in file "Source/Usb.c"
  4850 ;; Parameters:    Size  Location     Type
  4851 ;;		None
  4852 ;; Auto vars:     Size  Location     Type
  4853 ;;  descriptorTy    1    4[COMMON] unsigned char 
  4854 ;;  descriptorIn    1    3[COMMON] unsigned char 
  4855 ;; Return value:  Size  Location     Type
  4856 ;;                  1    wreg      void 
  4857 ;; Registers used:
  4858 ;;		wreg, fsr0l, fsr0h, status,2, status,0, pclath
  4859 ;; Tracked objects:
  4860 ;;		On entry : 0/0
  4861 ;;		On exit  : 0/0
  4862 ;;		Unchanged: 0/0
  4863 ;; Data sizes:     COMMON   BANK0   BANK1   BANK2   BANK3   BANK4   BANK5   BANK6   BANK7   BANK8   BANK9  BANK10  BANK1
      +1  BANK12
  4864 ;;      Params:         0       0       0       0       0       0       0       0       0       0       0       0       
      +0       0
  4865 ;;      Locals:         2       0       0       0       0       0       0       0       0       0       0       0       
      +0       0
  4866 ;;      Temps:          3       0       0       0       0       0       0       0       0       0       0       0       
      +0       0
  4867 ;;      Totals:         5       0       0       0       0       0       0       0       0       0       0       0       
      +0       0
  4868 ;;Total ram usage:        5 bytes
  4869 ;; Hardware stack levels used:    1
  4870 ;; This function calls:
  4871 ;;		Nothing
  4872 ;; This function is called by:
  4873 ;;		_ProcessStandardRequest
  4874 ;; This function uses a non-reentrant model
  4875 ;;
  4876                           
  4877                           
  4878                           ;psect for function _GetDescriptor
  4879  0524                     _GetDescriptor:	
  4880  0524                     i1l1748:	
  4881                           ;incstack = 0
  4882                           ; Regs used in _GetDescriptor: [wreg-fsr0h+status,2+status,0+pclath]
  4883                           
  4884                           
  4885                           ;Source/Usb.c: 345:     if(SetupPacket.bmRequestType == 0x80)
  4886  0524  3080               	movlw	128
  4887  0525  0020               	movlb	0	; select bank0
  4888  0526  0640               	xorwf	_SetupPacket,w	;volatile
  4889  0527  1D03               	btfss	3,2
  4890  0528  2D2A               	goto	u143_21
  4891  0529  2D2B               	goto	u143_20
  4892  052A                     u143_21:	
  4893  052A  2D84               	goto	i1l264
  4894  052B                     u143_20:	
  4895  052B                     i1l1750:	
  4896                           
  4897                           ;Source/Usb.c: 346:     {;Source/Usb.c: 347:         uint8_t descriptorType = SetupPacke
      +                          t.wValue1;
  4898  052B  0843               	movf	_SetupPacket+3,w	;volatile
  4899  052C  00F0               	movwf	??_GetDescriptor
  4900  052D  0870               	movf	??_GetDescriptor,w
  4901  052E  00F4               	movwf	GetDescriptor@descriptorType
  4902                           
  4903                           ;Source/Usb.c: 348:         uint8_t descriptorIndex = SetupPacket.wValue0;
  4904  052F  0842               	movf	_SetupPacket+2,w	;volatile
  4905  0530  00F0               	movwf	??_GetDescriptor
  4906  0531  0870               	movf	??_GetDescriptor,w
  4907  0532  00F3               	movwf	GetDescriptor@descriptorIndex
  4908  0533                     i1l1752:	
  4909                           
  4910                           ;Source/Usb.c: 350:         if (descriptorType == 0x01)
  4911  0533  0374               	decf	GetDescriptor@descriptorType,w
  4912  0534  1D03               	btfss	3,2
  4913  0535  2D37               	goto	u144_21
  4914  0536  2D38               	goto	u144_20
  4915  0537                     u144_21:	
  4916  0537  2D45               	goto	i1l1760
  4917  0538                     u144_20:	
  4918  0538                     i1l1754:	
  4919                           
  4920                           ;Source/Usb.c: 351:         {;Source/Usb.c: 352:                 RequestHandled = 1;
  4921  0538  01B8               	clrf	_RequestHandled
  4922  0539  0AB8               	incf	_RequestHandled,f
  4923  053A                     i1l1756:	
  4924                           
  4925                           ;Source/Usb.c: 353:                 ROMoutPtr = (const uint8_t *) & DeviceDescriptor;
  4926  053A  3000               	movlw	low (_DeviceDescriptor| (0+32768))
  4927  053B  00B2               	movwf	_ROMoutPtr
  4928  053C  3090               	movlw	high (_DeviceDescriptor| (0+32768))
  4929  053D  00B3               	movwf	_ROMoutPtr+1
  4930                           
  4931                           ;Source/Usb.c: 354:                 wCount = sizeof(DeviceDescriptor);
  4932  053E  3012               	movlw	18
  4933  053F  00B0               	movwf	_wCount
  4934  0540  3000               	movlw	0
  4935  0541  00B1               	movwf	_wCount+1
  4936  0542                     i1l1758:	
  4937                           
  4938                           ;Source/Usb.c: 355:                 transferType=1;
  4939  0542  01B5               	clrf	_transferType
  4940  0543  0AB5               	incf	_transferType,f
  4941                           
  4942                           ;Source/Usb.c: 356:         }
  4943  0544  2D84               	goto	i1l264
  4944  0545                     i1l1760:	
  4945  0545  3002               	movlw	2
  4946  0546  0674               	xorwf	GetDescriptor@descriptorType,w
  4947  0547  1D03               	btfss	3,2
  4948  0548  2D4A               	goto	u145_21
  4949  0549  2D4B               	goto	u145_20
  4950  054A                     u145_21:	
  4951  054A  2D56               	goto	i1l1768
  4952  054B                     u145_20:	
  4953  054B                     i1l1762:	
  4954                           
  4955                           ;Source/Usb.c: 358:         {;Source/Usb.c: 359:                 RequestHandled = 1;
  4956  054B  01B8               	clrf	_RequestHandled
  4957  054C  0AB8               	incf	_RequestHandled,f
  4958  054D                     i1l1764:	
  4959                           
  4960                           ;Source/Usb.c: 360:                 ROMoutPtr = (const uint8_t*)&ConfigurationDescriptor
      +                          ;
  4961  054D  303E               	movlw	low (_ConfigurationDescriptor| (0+32768))
  4962  054E  00B2               	movwf	_ROMoutPtr
  4963  054F  3087               	movlw	high (_ConfigurationDescriptor| (0+32768))
  4964  0550  00B3               	movwf	_ROMoutPtr+1
  4965                           
  4966                           ;Source/Usb.c: 361:                 wCount = sizeof(ConfigurationDescriptor);
  4967  0551  3029               	movlw	41
  4968  0552  00B0               	movwf	_wCount
  4969  0553  3000               	movlw	0
  4970  0554  00B1               	movwf	_wCount+1
  4971  0555  2D42               	goto	i1l1758
  4972  0556                     i1l1768:	
  4973  0556  3003               	movlw	3
  4974  0557  0674               	xorwf	GetDescriptor@descriptorType,w
  4975  0558  1D03               	btfss	3,2
  4976  0559  2D5B               	goto	u146_21
  4977  055A  2D5C               	goto	u146_20
  4978  055B                     u146_21:	
  4979  055B  2D84               	goto	i1l257
  4980  055C                     u146_20:	
  4981  055C                     i1l1770:	
  4982                           
  4983                           ;Source/Usb.c: 365:         {;Source/Usb.c: 366:                 RequestHandled = 1;
  4984  055C  01B8               	clrf	_RequestHandled
  4985  055D  0AB8               	incf	_RequestHandled,f
  4986  055E                     i1l1772:	
  4987                           
  4988                           ;Source/Usb.c: 367:                 if(descriptorIndex >= 0x03)
  4989  055E  3003               	movlw	3
  4990  055F  0273               	subwf	GetDescriptor@descriptorIndex,w
  4991  0560  1C03               	skipc
  4992  0561  2D63               	goto	u147_21
  4993  0562  2D64               	goto	u147_20
  4994  0563                     u147_21:	
  4995  0563  2D69               	goto	i1l1776
  4996  0564                     u147_20:	
  4997  0564                     i1l1774:	
  4998                           
  4999                           ;Source/Usb.c: 368:                     ROMoutPtr = (const uint8_t*)&StringDescriptor0;
  5000  0564  3018               	movlw	low (_StringDescriptor0| (0+32768))
  5001  0565  00B2               	movwf	_ROMoutPtr
  5002  0566  3090               	movlw	high (_StringDescriptor0| (0+32768))
  5003  0567  00B3               	movwf	_ROMoutPtr+1
  5004  0568  2D78               	goto	i1l1778
  5005  0569                     i1l1776:	
  5006                           
  5007                           ;Source/Usb.c: 370:                     ROMoutPtr = *(StringDescriptorPointers + descrip
      +                          torIndex);
  5008  0569  0873               	movf	GetDescriptor@descriptorIndex,w
  5009  056A  00F0               	movwf	??_GetDescriptor
  5010  056B  01F1               	clrf	??_GetDescriptor+1
  5011  056C  35F0               	lslf	??_GetDescriptor,f
  5012  056D  0DF1               	rlf	??_GetDescriptor+1,f
  5013  056E  3012               	movlw	low (_StringDescriptorPointers| (0+32768))
  5014  056F  0770               	addwf	??_GetDescriptor,w
  5015  0570  0084               	movwf	4
  5016  0571  3090               	movlw	high (_StringDescriptorPointers| (0+32768))
  5017  0572  3D71               	addwfc	??_GetDescriptor+1,w
  5018  0573  0085               	movwf	5
  5019  0574  3F00               	moviw [0]fsr0
  5020  0575  00B2               	movwf	_ROMoutPtr
  5021  0576  3F01               	moviw [1]fsr0
  5022  0577  00B3               	movwf	_ROMoutPtr+1
  5023  0578                     i1l1778:	
  5024                           
  5025                           ;Source/Usb.c: 372:                 wCount = *ROMoutPtr;
  5026  0578  0832               	movf	_ROMoutPtr,w
  5027  0579  0084               	movwf	4
  5028  057A  0833               	movf	_ROMoutPtr+1,w
  5029  057B  0085               	movwf	5
  5030  057C  0800               	movf	0,w	;code access
  5031  057D  00F0               	movwf	??_GetDescriptor
  5032  057E  01F1               	clrf	??_GetDescriptor+1
  5033  057F  0870               	movf	??_GetDescriptor,w
  5034  0580  00B0               	movwf	_wCount
  5035  0581  0871               	movf	??_GetDescriptor+1,w
  5036  0582  00B1               	movwf	_wCount+1
  5037  0583  2D42               	goto	i1l1758
  5038  0584                     i1l257:	
  5039  0584                     i1l264:	
  5040  0584  0008               	return
  5041  0585                     __end_of_GetDescriptor:	
  5042                           
  5043                           	psect	text29
  5044  003F                     __ptext29:	
  5045 ;; *************** function _ProcessHIDRequest *****************
  5046 ;; Defined at:
  5047 ;;		line 258 in file "Source/Usb.c"
  5048 ;; Parameters:    Size  Location     Type
  5049 ;;		None
  5050 ;; Auto vars:     Size  Location     Type
  5051 ;;  descriptorTy    1    1[COMMON] unsigned char 
  5052 ;;  bRequest        1    2[COMMON] unsigned char 
  5053 ;; Return value:  Size  Location     Type
  5054 ;;                  1    wreg      void 
  5055 ;; Registers used:
  5056 ;;		wreg, status,2, status,0
  5057 ;; Tracked objects:
  5058 ;;		On entry : 0/0
  5059 ;;		On exit  : 0/0
  5060 ;;		Unchanged: 0/0
  5061 ;; Data sizes:     COMMON   BANK0   BANK1   BANK2   BANK3   BANK4   BANK5   BANK6   BANK7   BANK8   BANK9  BANK10  BANK1
      +1  BANK12
  5062 ;;      Params:         0       0       0       0       0       0       0       0       0       0       0       0       
      +0       0
  5063 ;;      Locals:         2       0       0       0       0       0       0       0       0       0       0       0       
      +0       0
  5064 ;;      Temps:          1       0       0       0       0       0       0       0       0       0       0       0       
      +0       0
  5065 ;;      Totals:         3       0       0       0       0       0       0       0       0       0       0       0       
      +0       0
  5066 ;;Total ram usage:        3 bytes
  5067 ;; Hardware stack levels used:    1
  5068 ;; This function calls:
  5069 ;;		Nothing
  5070 ;; This function is called by:
  5071 ;;		_SetupStage
  5072 ;; This function uses a non-reentrant model
  5073 ;;
  5074                           
  5075                           
  5076                           ;psect for function _ProcessHIDRequest
  5077  003F                     _ProcessHIDRequest:	
  5078  003F                     i1l1864:	
  5079                           ;incstack = 0
  5080                           ; Regs used in _ProcessHIDRequest: [wreg+status,2+status,0]
  5081                           
  5082                           
  5083                           ;Source/Usb.c: 260:     uint8_t bRequest;;Source/Usb.c: 263:     if((SetupPacket.bmReque
      +                          stType & 0x1F) != 0x01 || (SetupPacket.wIndex0 != 0x00)) return;
  5084  003F  301F               	movlw	31
  5085  0040  0020               	movlb	0	; select bank0
  5086  0041  0540               	andwf	_SetupPacket,w	;volatile
  5087  0042  00F0               	movwf	??_ProcessHIDRequest
  5088  0043  0370               	decf	??_ProcessHIDRequest,w
  5089  0044  1D03               	btfss	3,2
  5090  0045  2847               	goto	u167_21
  5091  0046  2848               	goto	u167_20
  5092  0047                     u167_21:	
  5093  0047  28D8               	goto	i1l232
  5094  0048                     u167_20:	
  5095  0048                     i1l1866:	
  5096  0048  0844               	movf	_SetupPacket+4,w	;volatile
  5097  0049  1903               	btfsc	3,2
  5098  004A  284C               	goto	u168_21
  5099  004B  284D               	goto	u168_20
  5100  004C                     u168_21:	
  5101  004C  284F               	goto	i1l1868
  5102  004D                     u168_20:	
  5103  004D  28D8               	goto	i1l232
  5104  004E                     i1l231:	
  5105  004E  28D8               	goto	i1l232
  5106  004F                     i1l1868:	
  5107                           
  5108                           ;Source/Usb.c: 265:     bRequest = SetupPacket.bRequest;
  5109  004F  0841               	movf	_SetupPacket+1,w	;volatile
  5110  0050  00F0               	movwf	??_ProcessHIDRequest
  5111  0051  0870               	movf	??_ProcessHIDRequest,w
  5112  0052  00F2               	movwf	ProcessHIDRequest@bRequest
  5113  0053                     i1l1870:	
  5114                           
  5115                           ;Source/Usb.c: 267:     if (bRequest == 0x06)
  5116  0053  3006               	movlw	6
  5117  0054  0672               	xorwf	ProcessHIDRequest@bRequest,w
  5118  0055  1D03               	btfss	3,2
  5119  0056  2858               	goto	u169_21
  5120  0057  2859               	goto	u169_20
  5121  0058                     u169_21:	
  5122  0058  2881               	goto	i1l1894
  5123  0059                     u169_20:	
  5124  0059                     i1l1872:	
  5125                           
  5126                           ;Source/Usb.c: 268:     {;Source/Usb.c: 270:         uint8_t descriptorType = SetupPacke
      +                          t.wValue1;
  5127  0059  0843               	movf	_SetupPacket+3,w	;volatile
  5128  005A  00F0               	movwf	??_ProcessHIDRequest
  5129  005B  0870               	movf	??_ProcessHIDRequest,w
  5130  005C  00F1               	movwf	ProcessHIDRequest@descriptorType
  5131  005D                     i1l1874:	
  5132                           
  5133                           ;Source/Usb.c: 271:         if (descriptorType == 0x21)
  5134  005D  3021               	movlw	33
  5135  005E  0671               	xorwf	ProcessHIDRequest@descriptorType,w
  5136  005F  1D03               	btfss	3,2
  5137  0060  2862               	goto	u170_21
  5138  0061  2863               	goto	u170_20
  5139  0062                     u170_21:	
  5140  0062  2870               	goto	i1l1882
  5141  0063                     u170_20:	
  5142  0063                     i1l1876:	
  5143                           
  5144                           ;Source/Usb.c: 272:         {;Source/Usb.c: 273:             RequestHandled = 1;
  5145  0063  01B8               	clrf	_RequestHandled
  5146  0064  0AB8               	incf	_RequestHandled,f
  5147  0065                     i1l1878:	
  5148                           
  5149                           ;Source/Usb.c: 274:             ROMoutPtr = (const uint8_t*)&ConfigurationDescriptor.HID
      +                          Descriptor;
  5150  0065  3047               	movlw	low ((_ConfigurationDescriptor| (0+32768)+9))
  5151  0066  00B2               	movwf	_ROMoutPtr
  5152  0067  3087               	movlw	high ((_ConfigurationDescriptor| (0+32768)+9))
  5153  0068  00B3               	movwf	_ROMoutPtr+1
  5154                           
  5155                           ;Source/Usb.c: 275:             wCount = sizeof(ConfigurationDescriptor.HIDDescriptor);
  5156  0069  3020               	movlw	32
  5157  006A  00B0               	movwf	_wCount
  5158  006B  3000               	movlw	0
  5159  006C  00B1               	movwf	_wCount+1
  5160  006D                     i1l1880:	
  5161                           
  5162                           ;Source/Usb.c: 276:             transferType=1;
  5163  006D  01B5               	clrf	_transferType
  5164  006E  0AB5               	incf	_transferType,f
  5165                           
  5166                           ;Source/Usb.c: 277:         }
  5167  006F  2881               	goto	i1l1894
  5168  0070                     i1l1882:	
  5169  0070  3022               	movlw	34
  5170  0071  0671               	xorwf	ProcessHIDRequest@descriptorType,w
  5171  0072  1D03               	btfss	3,2
  5172  0073  2875               	goto	u171_21
  5173  0074  2876               	goto	u171_20
  5174  0075                     u171_21:	
  5175  0075  2881               	goto	i1l1890
  5176  0076                     u171_20:	
  5177  0076                     i1l1884:	
  5178                           
  5179                           ;Source/Usb.c: 279:         {;Source/Usb.c: 280:             RequestHandled = 1;
  5180  0076  01B8               	clrf	_RequestHandled
  5181  0077  0AB8               	incf	_RequestHandled,f
  5182  0078                     i1l1886:	
  5183                           
  5184                           ;Source/Usb.c: 281:             ROMoutPtr = (const uint8_t*)HIDReport;
  5185  0078  303A               	movlw	low (_HIDReport| (0+32768))
  5186  0079  00B2               	movwf	_ROMoutPtr
  5187  007A  3086               	movlw	high (_HIDReport| (0+32768))
  5188  007B  00B3               	movwf	_ROMoutPtr+1
  5189                           
  5190                           ;Source/Usb.c: 282:             wCount = sizeof(HIDReport);
  5191  007C  303F               	movlw	63
  5192  007D  00B0               	movwf	_wCount
  5193  007E  3000               	movlw	0
  5194  007F  00B1               	movwf	_wCount+1
  5195  0080  286D               	goto	i1l1880
  5196  0081                     i1l1890:	
  5197  0081                     i1l1894:	
  5198                           
  5199                           ;Source/Usb.c: 293:     if ((SetupPacket.bmRequestType & 0x60) != 0x20)
  5200  0081  3060               	movlw	96
  5201  0082  0540               	andwf	_SetupPacket,w	;volatile
  5202  0083  00F0               	movwf	??_ProcessHIDRequest
  5203  0084  3020               	movlw	32
  5204  0085  0670               	xorwf	??_ProcessHIDRequest,w
  5205  0086  1903               	btfsc	3,2
  5206  0087  2889               	goto	u172_21
  5207  0088  288A               	goto	u172_20
  5208  0089                     u172_21:	
  5209  0089  288B               	goto	i1l1898
  5210  008A                     u172_20:	
  5211  008A  28D8               	goto	i1l232
  5212  008B                     i1l1898:	
  5213                           
  5214                           ;Source/Usb.c: 299:     if (bRequest == 0x01)
  5215  008B  0372               	decf	ProcessHIDRequest@bRequest,w
  5216  008C  1D03               	btfss	3,2
  5217  008D  288F               	goto	u173_21
  5218  008E  2890               	goto	u173_20
  5219  008F                     u173_21:	
  5220  008F  2891               	goto	i1l1902
  5221  0090                     u173_20:	
  5222  0090  28D8               	goto	i1l232
  5223  0091                     i1l1902:	
  5224  0091  3009               	movlw	9
  5225  0092  0672               	xorwf	ProcessHIDRequest@bRequest,w
  5226  0093  1D03               	btfss	3,2
  5227  0094  2896               	goto	u174_21
  5228  0095  2897               	goto	u174_20
  5229  0096                     u174_21:	
  5230  0096  289C               	goto	i1l1906
  5231  0097                     u174_20:	
  5232  0097                     i1l1904:	
  5233                           
  5234                           ;Source/Usb.c: 304:     {;Source/Usb.c: 305:         HIDPostProcess = 1;
  5235  0097  01B9               	clrf	_HIDPostProcess
  5236  0098  0AB9               	incf	_HIDPostProcess,f
  5237                           
  5238                           ;Source/Usb.c: 306:         RequestHandled = 1;
  5239  0099  01B8               	clrf	_RequestHandled
  5240  009A  0AB8               	incf	_RequestHandled,f
  5241                           
  5242                           ;Source/Usb.c: 307:     }
  5243  009B  28D8               	goto	i1l232
  5244  009C                     i1l1906:	
  5245  009C  3002               	movlw	2
  5246  009D  0672               	xorwf	ProcessHIDRequest@bRequest,w
  5247  009E  1D03               	btfss	3,2
  5248  009F  28A1               	goto	u175_21
  5249  00A0  28A2               	goto	u175_20
  5250  00A1                     u175_21:	
  5251  00A1  28AE               	goto	i1l1914
  5252  00A2                     u175_20:	
  5253  00A2                     i1l1908:	
  5254                           
  5255                           ;Source/Usb.c: 310:     {;Source/Usb.c: 311:         RequestHandled = 1;
  5256  00A2  01B8               	clrf	_RequestHandled
  5257  00A3  0AB8               	incf	_RequestHandled,f
  5258  00A4                     i1l1910:	
  5259                           
  5260                           ;Source/Usb.c: 312:         outPtr = &HidIdleRate;
  5261  00A4  305A               	movlw	(low (_HidIdleRate| 0))& (0+255)
  5262  00A5  00F0               	movwf	??_ProcessHIDRequest
  5263  00A6  0870               	movf	??_ProcessHIDRequest,w
  5264  00A7  00B6               	movwf	_outPtr
  5265                           
  5266                           ;Source/Usb.c: 313:         wCount = 1;
  5267  00A8  3001               	movlw	1
  5268  00A9  00B0               	movwf	_wCount
  5269  00AA  3000               	movlw	0
  5270  00AB  00B1               	movwf	_wCount+1
  5271  00AC                     i1l1912:	
  5272                           
  5273                           ;Source/Usb.c: 314:         transferType=0;
  5274  00AC  01B5               	clrf	_transferType
  5275                           
  5276                           ;Source/Usb.c: 315:     }
  5277  00AD  28D8               	goto	i1l232
  5278  00AE                     i1l1914:	
  5279  00AE  300A               	movlw	10
  5280  00AF  0672               	xorwf	ProcessHIDRequest@bRequest,w
  5281  00B0  1D03               	btfss	3,2
  5282  00B1  28B3               	goto	u176_21
  5283  00B2  28B4               	goto	u176_20
  5284  00B3                     u176_21:	
  5285  00B3  28BB               	goto	i1l1920
  5286  00B4                     u176_20:	
  5287  00B4                     i1l1916:	
  5288                           
  5289                           ;Source/Usb.c: 318:     {;Source/Usb.c: 319:         RequestHandled = 1;
  5290  00B4  01B8               	clrf	_RequestHandled
  5291  00B5  0AB8               	incf	_RequestHandled,f
  5292  00B6                     i1l1918:	
  5293                           
  5294                           ;Source/Usb.c: 320:         HidIdleRate = SetupPacket.wValue1;
  5295  00B6  0843               	movf	_SetupPacket+3,w	;volatile
  5296  00B7  00F0               	movwf	??_ProcessHIDRequest
  5297  00B8  0870               	movf	??_ProcessHIDRequest,w
  5298  00B9  00DA               	movwf	_HidIdleRate
  5299                           
  5300                           ;Source/Usb.c: 321:     }
  5301  00BA  28D8               	goto	i1l232
  5302  00BB                     i1l1920:	
  5303  00BB  3003               	movlw	3
  5304  00BC  0672               	xorwf	ProcessHIDRequest@bRequest,w
  5305  00BD  1D03               	btfss	3,2
  5306  00BE  28C0               	goto	u177_21
  5307  00BF  28C1               	goto	u177_20
  5308  00C0                     u177_21:	
  5309  00C0  28CC               	goto	i1l1928
  5310  00C1                     u177_20:	
  5311  00C1                     i1l1922:	
  5312                           
  5313                           ;Source/Usb.c: 324:     {;Source/Usb.c: 325:         RequestHandled = 1;
  5314  00C1  01B8               	clrf	_RequestHandled
  5315  00C2  0AB8               	incf	_RequestHandled,f
  5316  00C3                     i1l1924:	
  5317                           
  5318                           ;Source/Usb.c: 326:         outPtr = &HidProtocol;
  5319  00C3  3059               	movlw	(low (_HidProtocol| 0))& (0+255)
  5320  00C4  00F0               	movwf	??_ProcessHIDRequest
  5321  00C5  0870               	movf	??_ProcessHIDRequest,w
  5322  00C6  00B6               	movwf	_outPtr
  5323                           
  5324                           ;Source/Usb.c: 327:         wCount = 1;
  5325  00C7  3001               	movlw	1
  5326  00C8  00B0               	movwf	_wCount
  5327  00C9  3000               	movlw	0
  5328  00CA  00B1               	movwf	_wCount+1
  5329  00CB  28AC               	goto	i1l1912
  5330  00CC                     i1l1928:	
  5331  00CC  300B               	movlw	11
  5332  00CD  0672               	xorwf	ProcessHIDRequest@bRequest,w
  5333  00CE  1D03               	btfss	3,2
  5334  00CF  28D1               	goto	u178_21
  5335  00D0  28D2               	goto	u178_20
  5336  00D1                     u178_21:	
  5337  00D1  284E               	goto	i1l231
  5338  00D2                     u178_20:	
  5339  00D2                     i1l1930:	
  5340                           
  5341                           ;Source/Usb.c: 332:     {;Source/Usb.c: 333:         RequestHandled = 1;
  5342  00D2  01B8               	clrf	_RequestHandled
  5343  00D3  0AB8               	incf	_RequestHandled,f
  5344  00D4                     i1l1932:	
  5345                           
  5346                           ;Source/Usb.c: 334:         HidProtocol = SetupPacket.wValue0;
  5347  00D4  0842               	movf	_SetupPacket+2,w	;volatile
  5348  00D5  00F0               	movwf	??_ProcessHIDRequest
  5349  00D6  0870               	movf	??_ProcessHIDRequest,w
  5350  00D7  00D9               	movwf	_HidProtocol
  5351  00D8                     i1l232:	
  5352                           ;Source/Usb.c: 335:     }
  5353                           
  5354  00D8  0008               	return
  5355  00D9                     __end_of_ProcessHIDRequest:	
  5356                           
  5357                           	psect	text30
  5358  0289                     __ptext30:	
  5359 ;; *************** function _InDataStage *****************
  5360 ;; Defined at:
  5361 ;;		line 563 in file "Source/Usb.c"
  5362 ;; Parameters:    Size  Location     Type
  5363 ;;		None
  5364 ;; Auto vars:     Size  Location     Type
  5365 ;;  bufferSize      2    3[COMMON] unsigned short 
  5366 ;;  i               1    2[COMMON] unsigned char 
  5367 ;; Return value:  Size  Location     Type
  5368 ;;                  1    wreg      void 
  5369 ;; Registers used:
  5370 ;;		wreg, fsr0l, fsr0h, fsr1l, fsr1h, status,2, status,0, pclath
  5371 ;; Tracked objects:
  5372 ;;		On entry : 0/0
  5373 ;;		On exit  : 0/0
  5374 ;;		Unchanged: 0/0
  5375 ;; Data sizes:     COMMON   BANK0   BANK1   BANK2   BANK3   BANK4   BANK5   BANK6   BANK7   BANK8   BANK9  BANK10  BANK1
      +1  BANK12
  5376 ;;      Params:         0       0       0       0       0       0       0       0       0       0       0       0       
      +0       0
  5377 ;;      Locals:         3       0       0       0       0       0       0       0       0       0       0       0       
      +0       0
  5378 ;;      Temps:          2       0       0       0       0       0       0       0       0       0       0       0       
      +0       0
  5379 ;;      Totals:         5       0       0       0       0       0       0       0       0       0       0       0       
      +0       0
  5380 ;;Total ram usage:        5 bytes
  5381 ;; Hardware stack levels used:    1
  5382 ;; This function calls:
  5383 ;;		Nothing
  5384 ;; This function is called by:
  5385 ;;		_SetupStage
  5386 ;;		_ProcessControlTransfer
  5387 ;; This function uses a non-reentrant model
  5388 ;;
  5389                           
  5390                           
  5391                           ;psect for function _InDataStage
  5392  0289                     _InDataStage:	
  5393  0289                     i1l2004:	
  5394                           ;incstack = 0
  5395                           ; Regs used in _InDataStage: [wreg-fsr1h+status,2+status,0+pclath]
  5396                           
  5397                           
  5398                           ;Source/Usb.c: 565:     uint8_t i;;Source/Usb.c: 566:     uint16_t bufferSize;;Source/Us
      +                          b.c: 569:     if(wCount < 0x08)
  5399  0289  3000               	movlw	0
  5400  028A  0020               	movlb	0	; select bank0
  5401  028B  0231               	subwf	_wCount+1,w
  5402  028C  3008               	movlw	8
  5403  028D  1903               	skipnz
  5404  028E  0230               	subwf	_wCount,w
  5405  028F  1803               	skipnc
  5406  0290  2A92               	goto	u191_21
  5407  0291  2A93               	goto	u191_20
  5408  0292                     u191_21:	
  5409  0292  2A98               	goto	i1l2008
  5410  0293                     u191_20:	
  5411  0293                     i1l2006:	
  5412                           
  5413                           ;Source/Usb.c: 570:         bufferSize = wCount;
  5414  0293  0831               	movf	_wCount+1,w
  5415  0294  00F4               	movwf	InDataStage@bufferSize+1
  5416  0295  0830               	movf	_wCount,w
  5417  0296  00F3               	movwf	InDataStage@bufferSize
  5418  0297  2A9C               	goto	i1l2010
  5419  0298                     i1l2008:	
  5420                           
  5421                           ;Source/Usb.c: 572:         bufferSize = 0x08;
  5422  0298  3008               	movlw	8
  5423  0299  00F3               	movwf	InDataStage@bufferSize
  5424  029A  3000               	movlw	0
  5425  029B  00F4               	movwf	InDataStage@bufferSize+1
  5426  029C                     i1l2010:	
  5427                           
  5428                           ;Source/Usb.c: 575:     Interfaces[0].Input.Stat &= ~(0x01 | 0x02);
  5429  029C  30FC               	movlw	252
  5430  029D  00F0               	movwf	??_InDataStage
  5431  029E  0870               	movf	??_InDataStage,w
  5432  029F  05A4               	andwf	36,f	;volatile
  5433  02A0                     i1l2012:	
  5434                           
  5435                           ;Source/Usb.c: 576:     Interfaces[0].Input.Stat |= (uint8_t)((bufferSize & 0x0300) >> 8
      +                          );
  5436  02A0  0874               	movf	InDataStage@bufferSize+1,w
  5437  02A1  3903               	andlw	3
  5438  02A2  00F0               	movwf	??_InDataStage
  5439  02A3  0870               	movf	??_InDataStage,w
  5440  02A4  04A4               	iorwf	36,f	;volatile
  5441                           
  5442                           ;Source/Usb.c: 577:     Interfaces[0].Input.Cnt = (uint8_t)(bufferSize & 0xFF);
  5443  02A5  0873               	movf	InDataStage@bufferSize,w
  5444  02A6  00F0               	movwf	??_InDataStage
  5445  02A7  0870               	movf	??_InDataStage,w
  5446  02A8  00A5               	movwf	37	;volatile
  5447  02A9                     i1l2014:	
  5448                           
  5449                           ;Source/Usb.c: 578:     Interfaces[0].Input.ADDR = ((unsigned int)(((unsigned long)&Cont
      +                          rolTransferBuffer) & 0xFFFF));
  5450  02A9  3049               	movlw	low _ControlTransferBuffer
  5451  02AA  00A6               	movwf	38	;volatile
  5452  02AB  3000               	movlw	high _ControlTransferBuffer
  5453  02AC  00A7               	movwf	39	;volatile
  5454  02AD                     i1l2016:	
  5455                           
  5456                           ;Source/Usb.c: 583:     wCount = wCount - bufferSize;
  5457  02AD  0873               	movf	InDataStage@bufferSize,w
  5458  02AE  0230               	subwf	_wCount,w
  5459  02AF  00B0               	movwf	_wCount
  5460  02B0  0874               	movf	InDataStage@bufferSize+1,w
  5461  02B1  3B31               	subwfb	_wCount+1,w
  5462  02B2  00B1               	movwf	_wCount+1
  5463                           
  5464                           ;Source/Usb.c: 586:     inPtr = (uint8_t *)&ControlTransferBuffer;
  5465  02B3  3049               	movlw	(low (_ControlTransferBuffer| 0))& (0+255)
  5466  02B4  00F0               	movwf	??_InDataStage
  5467  02B5  0870               	movf	??_InDataStage,w
  5468  02B6  00FD               	movwf	_inPtr
  5469  02B7                     i1l2018:	
  5470                           
  5471                           ;Source/Usb.c: 587:  if(transferType==1) for(i=0;i<bufferSize;i++) *inPtr++ = *ROMoutPtr
      +                          ++;
  5472  02B7  0335               	decf	_transferType,w
  5473  02B8  1D03               	btfss	3,2
  5474  02B9  2ABB               	goto	u192_21
  5475  02BA  2ABC               	goto	u192_20
  5476  02BB                     u192_21:	
  5477  02BB  2AE3               	goto	i1l2032
  5478  02BC                     u192_20:	
  5479  02BC                     i1l2020:	
  5480  02BC  01F2               	clrf	InDataStage@i
  5481  02BD  2AD5               	goto	i1l2030
  5482  02BE                     i1l2022:	
  5483  02BE  0832               	movf	_ROMoutPtr,w
  5484  02BF  0084               	movwf	4
  5485  02C0  0833               	movf	_ROMoutPtr+1,w
  5486  02C1  0085               	movwf	5
  5487  02C2  0800               	movf	0,w	;code access
  5488  02C3  00F0               	movwf	??_InDataStage
  5489  02C4  087D               	movf	_inPtr,w
  5490  02C5  0086               	movwf	6
  5491  02C6  0187               	clrf	7
  5492  02C7  0870               	movf	??_InDataStage,w
  5493  02C8  0081               	movwf	1
  5494  02C9                     i1l2024:	
  5495  02C9  3001               	movlw	1
  5496  02CA  07B2               	addwf	_ROMoutPtr,f
  5497  02CB  3000               	movlw	0
  5498  02CC  3DB3               	addwfc	_ROMoutPtr+1,f
  5499  02CD                     i1l2026:	
  5500  02CD  3001               	movlw	1
  5501  02CE  00F0               	movwf	??_InDataStage
  5502  02CF  0870               	movf	??_InDataStage,w
  5503  02D0  07FD               	addwf	_inPtr,f
  5504  02D1                     i1l2028:	
  5505  02D1  3001               	movlw	1
  5506  02D2  00F0               	movwf	??_InDataStage
  5507  02D3  0870               	movf	??_InDataStage,w
  5508  02D4  07F2               	addwf	InDataStage@i,f
  5509  02D5                     i1l2030:	
  5510  02D5  0872               	movf	InDataStage@i,w
  5511  02D6  00F0               	movwf	??_InDataStage
  5512  02D7  01F1               	clrf	??_InDataStage+1
  5513  02D8  0874               	movf	InDataStage@bufferSize+1,w
  5514  02D9  0271               	subwf	??_InDataStage+1,w
  5515  02DA  1D03               	skipz
  5516  02DB  2ADE               	goto	u193_25
  5517  02DC  0873               	movf	InDataStage@bufferSize,w
  5518  02DD  0270               	subwf	??_InDataStage,w
  5519  02DE                     u193_25:	
  5520  02DE  1C03               	skipc
  5521  02DF  2AE1               	goto	u193_21
  5522  02E0  2AE2               	goto	u193_20
  5523  02E1                     u193_21:	
  5524  02E1  2ABE               	goto	i1l2022
  5525  02E2                     u193_20:	
  5526  02E2  2B08               	goto	i1l333
  5527  02E3                     i1l2032:	
  5528  02E3  01F2               	clrf	InDataStage@i
  5529  02E4  2AFB               	goto	i1l2042
  5530  02E5                     i1l2034:	
  5531  02E5  0836               	movf	_outPtr,w
  5532  02E6  0086               	movwf	6
  5533  02E7  0187               	clrf	7
  5534  02E8  0801               	movf	1,w
  5535  02E9  00F0               	movwf	??_InDataStage
  5536  02EA  087D               	movf	_inPtr,w
  5537  02EB  0086               	movwf	6
  5538  02EC  0187               	clrf	7
  5539  02ED  0870               	movf	??_InDataStage,w
  5540  02EE  0081               	movwf	1
  5541  02EF                     i1l2036:	
  5542  02EF  3001               	movlw	1
  5543  02F0  00F0               	movwf	??_InDataStage
  5544  02F1  0870               	movf	??_InDataStage,w
  5545  02F2  07B6               	addwf	_outPtr,f
  5546  02F3                     i1l2038:	
  5547  02F3  3001               	movlw	1
  5548  02F4  00F0               	movwf	??_InDataStage
  5549  02F5  0870               	movf	??_InDataStage,w
  5550  02F6  07FD               	addwf	_inPtr,f
  5551  02F7                     i1l2040:	
  5552  02F7  3001               	movlw	1
  5553  02F8  00F0               	movwf	??_InDataStage
  5554  02F9  0870               	movf	??_InDataStage,w
  5555  02FA  07F2               	addwf	InDataStage@i,f
  5556  02FB                     i1l2042:	
  5557  02FB  0872               	movf	InDataStage@i,w
  5558  02FC  00F0               	movwf	??_InDataStage
  5559  02FD  01F1               	clrf	??_InDataStage+1
  5560  02FE  0874               	movf	InDataStage@bufferSize+1,w
  5561  02FF  0271               	subwf	??_InDataStage+1,w
  5562  0300  1D03               	skipz
  5563  0301  2B04               	goto	u194_25
  5564  0302  0873               	movf	InDataStage@bufferSize,w
  5565  0303  0270               	subwf	??_InDataStage,w
  5566  0304                     u194_25:	
  5567  0304  1C03               	skipc
  5568  0305  2B07               	goto	u194_21
  5569  0306  2B08               	goto	u194_20
  5570  0307                     u194_21:	
  5571  0307  2AE5               	goto	i1l2034
  5572  0308                     u194_20:	
  5573  0308                     i1l333:	
  5574  0308  0008               	return
  5575  0309                     __end_of_InDataStage:	
  5576                           
  5577                           	psect	text31
  5578  06B3                     __ptext31:	
  5579 ;; *************** function _OutDataStage *****************
  5580 ;; Defined at:
  5581 ;;		line 592 in file "Source/Usb.c"
  5582 ;; Parameters:    Size  Location     Type
  5583 ;;		None
  5584 ;; Auto vars:     Size  Location     Type
  5585 ;;  bufferSize      2    3[COMMON] unsigned short 
  5586 ;;  i               2    1[COMMON] unsigned short 
  5587 ;; Return value:  Size  Location     Type
  5588 ;;                  1    wreg      void 
  5589 ;; Registers used:
  5590 ;;		wreg, fsr1l, fsr1h, status,2, status,0
  5591 ;; Tracked objects:
  5592 ;;		On entry : 0/0
  5593 ;;		On exit  : 0/0
  5594 ;;		Unchanged: 0/0
  5595 ;; Data sizes:     COMMON   BANK0   BANK1   BANK2   BANK3   BANK4   BANK5   BANK6   BANK7   BANK8   BANK9  BANK10  BANK1
      +1  BANK12
  5596 ;;      Params:         0       0       0       0       0       0       0       0       0       0       0       0       
      +0       0
  5597 ;;      Locals:         4       0       0       0       0       0       0       0       0       0       0       0       
      +0       0
  5598 ;;      Temps:          1       0       0       0       0       0       0       0       0       0       0       0       
      +0       0
  5599 ;;      Totals:         5       0       0       0       0       0       0       0       0       0       0       0       
      +0       0
  5600 ;;Total ram usage:        5 bytes
  5601 ;; Hardware stack levels used:    1
  5602 ;; This function calls:
  5603 ;;		Nothing
  5604 ;; This function is called by:
  5605 ;;		_ProcessControlTransfer
  5606 ;; This function uses a non-reentrant model
  5607 ;;
  5608                           
  5609                           
  5610                           ;psect for function _OutDataStage
  5611  06B3                     _OutDataStage:	
  5612  06B3                     i1l2068:	
  5613                           ;incstack = 0
  5614                           ; Regs used in _OutDataStage: [wreg+fsr1l+fsr1h+status,2+status,0]
  5615                           
  5616                           
  5617                           ;Source/Usb.c: 594:     uint16_t i, bufferSize;;Source/Usb.c: 596:     bufferSize = ((0x
      +                          03 & Interfaces[0].Output.Stat) << 8) | Interfaces[0].Output.Cnt;
  5618  06B3  3003               	movlw	3
  5619  06B4  0020               	movlb	0	; select bank0
  5620  06B5  0520               	andwf	32,w	;volatile
  5621  06B6  00F0               	movwf	??_OutDataStage
  5622  06B7  0870               	movf	??_OutDataStage,w
  5623  06B8  00F4               	movwf	OutDataStage@bufferSize+1
  5624  06B9  0821               	movf	33,w	;volatile
  5625  06BA  00F3               	movwf	OutDataStage@bufferSize
  5626                           
  5627                           ;Source/Usb.c: 599:     wCount = wCount + bufferSize;
  5628  06BB  0873               	movf	OutDataStage@bufferSize,w
  5629  06BC  0730               	addwf	_wCount,w
  5630  06BD  00B0               	movwf	_wCount
  5631  06BE  0874               	movf	OutDataStage@bufferSize+1,w
  5632  06BF  3D31               	addwfc	_wCount+1,w
  5633  06C0  00B1               	movwf	_wCount+1
  5634  06C1                     i1l2070:	
  5635                           
  5636                           ;Source/Usb.c: 601:     outPtr = (uint8_t*)&ControlTransferBuffer;
  5637  06C1  3049               	movlw	(low (_ControlTransferBuffer| 0))& (0+255)
  5638  06C2  00F0               	movwf	??_OutDataStage
  5639  06C3  0870               	movf	??_OutDataStage,w
  5640  06C4  00B6               	movwf	_outPtr
  5641  06C5                     i1l2072:	
  5642                           
  5643                           ;Source/Usb.c: 603:     for (i=0;i<bufferSize;i++)
  5644  06C5  01F1               	clrf	OutDataStage@i
  5645  06C6  01F2               	clrf	OutDataStage@i+1
  5646  06C7  2EDE               	goto	i1l2082
  5647  06C8                     i1l2074:	
  5648                           
  5649                           ;Source/Usb.c: 604:     {;Source/Usb.c: 605:         *inPtr++ = *outPtr++;
  5650  06C8  0836               	movf	_outPtr,w
  5651  06C9  0086               	movwf	6
  5652  06CA  0187               	clrf	7
  5653  06CB  0801               	movf	1,w
  5654  06CC  00F0               	movwf	??_OutDataStage
  5655  06CD  087D               	movf	_inPtr,w
  5656  06CE  0086               	movwf	6
  5657  06CF  0187               	clrf	7
  5658  06D0  0870               	movf	??_OutDataStage,w
  5659  06D1  0081               	movwf	1
  5660  06D2                     i1l2076:	
  5661  06D2  3001               	movlw	1
  5662  06D3  00F0               	movwf	??_OutDataStage
  5663  06D4  0870               	movf	??_OutDataStage,w
  5664  06D5  07B6               	addwf	_outPtr,f
  5665  06D6                     i1l2078:	
  5666  06D6  3001               	movlw	1
  5667  06D7  00F0               	movwf	??_OutDataStage
  5668  06D8  0870               	movf	??_OutDataStage,w
  5669  06D9  07FD               	addwf	_inPtr,f
  5670  06DA                     i1l2080:	
  5671                           
  5672                           ;Source/Usb.c: 606:     }
  5673  06DA  3001               	movlw	1
  5674  06DB  07F1               	addwf	OutDataStage@i,f
  5675  06DC  3000               	movlw	0
  5676  06DD  3DF2               	addwfc	OutDataStage@i+1,f
  5677  06DE                     i1l2082:	
  5678  06DE  0874               	movf	OutDataStage@bufferSize+1,w
  5679  06DF  0272               	subwf	OutDataStage@i+1,w
  5680  06E0  1D03               	skipz
  5681  06E1  2EE4               	goto	u207_25
  5682  06E2  0873               	movf	OutDataStage@bufferSize,w
  5683  06E3  0271               	subwf	OutDataStage@i,w
  5684  06E4                     u207_25:	
  5685  06E4  1C03               	skipc
  5686  06E5  2EE7               	goto	u207_21
  5687  06E6  2EE8               	goto	u207_20
  5688  06E7                     u207_21:	
  5689  06E7  2EC8               	goto	i1l2074
  5690  06E8                     u207_20:	
  5691  06E8                     i1l339:	
  5692  06E8  0008               	return
  5693  06E9                     __end_of_OutDataStage:	
  5694                           
  5695                           	psect	text32
  5696  078C                     __ptext32:	
  5697 ;; *************** function _BusReset *****************
  5698 ;; Defined at:
  5699 ;;		line 833 in file "Source/Usb.c"
  5700 ;; Parameters:    Size  Location     Type
  5701 ;;		None
  5702 ;; Auto vars:     Size  Location     Type
  5703 ;;		None
  5704 ;; Return value:  Size  Location     Type
  5705 ;;                  1    wreg      void 
  5706 ;; Registers used:
  5707 ;;		wreg, status,2, status,0, pclath, cstack
  5708 ;; Tracked objects:
  5709 ;;		On entry : 0/0
  5710 ;;		On exit  : 0/0
  5711 ;;		Unchanged: 0/0
  5712 ;; Data sizes:     COMMON   BANK0   BANK1   BANK2   BANK3   BANK4   BANK5   BANK6   BANK7   BANK8   BANK9  BANK10  BANK1
      +1  BANK12
  5713 ;;      Params:         0       0       0       0       0       0       0       0       0       0       0       0       
      +0       0
  5714 ;;      Locals:         0       0       0       0       0       0       0       0       0       0       0       0       
      +0       0
  5715 ;;      Temps:          1       0       0       0       0       0       0       0       0       0       0       0       
      +0       0
  5716 ;;      Totals:         1       0       0       0       0       0       0       0       0       0       0       0       
      +0       0
  5717 ;;Total ram usage:        1 bytes
  5718 ;; Hardware stack levels used:    1
  5719 ;; Hardware stack levels required when called:    1
  5720 ;; This function calls:
  5721 ;;		_WaitForSetupStage
  5722 ;; This function is called by:
  5723 ;;		_ProcessUSBTransactions
  5724 ;; This function uses a non-reentrant model
  5725 ;;
  5726                           
  5727                           
  5728                           ;psect for function _BusReset
  5729  078C                     _BusReset:	
  5730  078C                     i1l2302:	
  5731                           ;incstack = 0
  5732                           ; Regs used in _BusReset: [wreg+status,2+status,0+pclath+cstack]
  5733                           
  5734                           
  5735                           ;Source/Usb.c: 835:     UEIR = 0x00;
  5736  078C  003D               	movlb	29	; select bank29
  5737  078D  0193               	clrf	19	;volatile
  5738                           
  5739                           ;Source/Usb.c: 836:     UIR = 0x00;
  5740  078E  0190               	clrf	16	;volatile
  5741  078F                     i1l2304:	
  5742                           
  5743                           ;Source/Usb.c: 837:     UEIE = 0x9f;
  5744  078F  309F               	movlw	159
  5745  0790  0097               	movwf	23	;volatile
  5746  0791                     i1l2306:	
  5747                           
  5748                           ;Source/Usb.c: 838:     UIE = 0x7b;
  5749  0791  307B               	movlw	123
  5750  0792  0092               	movwf	18	;volatile
  5751                           
  5752                           ;Source/Usb.c: 839:     UADDR = 0x00;
  5753  0793  0196               	clrf	22	;volatile
  5754  0794                     i1l2308:	
  5755                           
  5756                           ;Source/Usb.c: 842:     UEP0 = 0x16;
  5757  0794  3016               	movlw	22
  5758  0795  0098               	movwf	24	;volatile
  5759                           
  5760                           ;Source/Usb.c: 845:     while (UIRbits.TRNIF == 1) UIRbits.TRNIF = 0;
  5761  0796  2F98               	goto	i1l400
  5762  0797                     i1l401:	
  5763  0797  1190               	bcf	16,3	;volatile
  5764  0798                     i1l400:	
  5765  0798  1990               	btfsc	16,3	;volatile
  5766  0799  2F9B               	goto	u241_21
  5767  079A  2F9C               	goto	u241_20
  5768  079B                     u241_21:	
  5769  079B  2F97               	goto	i1l401
  5770  079C                     u241_20:	
  5771  079C                     i1l402:	
  5772                           
  5773                           ;Source/Usb.c: 848:     UCONbits.PKTDIS = 0;
  5774  079C  120E               	bcf	14,4	;volatile
  5775  079D                     i1l2310:	
  5776                           
  5777                           ;Source/Usb.c: 851:     WaitForSetupStage();
  5778  079D  318F  2796  3187   	fcall	_WaitForSetupStage
  5779  07A0                     i1l2312:	
  5780                           
  5781                           ;Source/Usb.c: 853:     RemoteWakeup = 0;
  5782  07A0  0020               	movlb	0	; select bank0
  5783  07A1  01BD               	clrf	_RemoteWakeup
  5784  07A2                     i1l2314:	
  5785                           
  5786                           ;Source/Usb.c: 854:     SelfPowered = 0;
  5787  07A2  01BB               	clrf	_SelfPowered
  5788  07A3                     i1l2316:	
  5789                           
  5790                           ;Source/Usb.c: 855:     CurrentConfiguration = 0;
  5791  07A3  01DB               	clrf	_CurrentConfiguration
  5792  07A4                     i1l2318:	
  5793                           
  5794                           ;Source/Usb.c: 856:     DeviceState = 0x03;
  5795  07A4  3003               	movlw	3
  5796  07A5  00F1               	movwf	??_BusReset
  5797  07A6  0871               	movf	??_BusReset,w
  5798  07A7  00BF               	movwf	_DeviceState
  5799  07A8                     i1l403:	
  5800  07A8  0008               	return
  5801  07A9                     __end_of_BusReset:	
  5802                           
  5803                           	psect	text33
  5804  0F96                     __ptext33:	
  5805 ;; *************** function _WaitForSetupStage *****************
  5806 ;; Defined at:
  5807 ;;		line 680 in file "Source/Usb.c"
  5808 ;; Parameters:    Size  Location     Type
  5809 ;;		None
  5810 ;; Auto vars:     Size  Location     Type
  5811 ;;		None
  5812 ;; Return value:  Size  Location     Type
  5813 ;;                  1    wreg      void 
  5814 ;; Registers used:
  5815 ;;		wreg, status,2, status,0
  5816 ;; Tracked objects:
  5817 ;;		On entry : 0/0
  5818 ;;		On exit  : 0/0
  5819 ;;		Unchanged: 0/0
  5820 ;; Data sizes:     COMMON   BANK0   BANK1   BANK2   BANK3   BANK4   BANK5   BANK6   BANK7   BANK8   BANK9  BANK10  BANK1
      +1  BANK12
  5821 ;;      Params:         0       0       0       0       0       0       0       0       0       0       0       0       
      +0       0
  5822 ;;      Locals:         0       0       0       0       0       0       0       0       0       0       0       0       
      +0       0
  5823 ;;      Temps:          1       0       0       0       0       0       0       0       0       0       0       0       
      +0       0
  5824 ;;      Totals:         1       0       0       0       0       0       0       0       0       0       0       0       
      +0       0
  5825 ;;Total ram usage:        1 bytes
  5826 ;; Hardware stack levels used:    1
  5827 ;; This function calls:
  5828 ;;		Nothing
  5829 ;; This function is called by:
  5830 ;;		_ProcessControlTransfer
  5831 ;;		_Stall
  5832 ;;		_BusReset
  5833 ;; This function uses a non-reentrant model
  5834 ;;
  5835                           
  5836                           
  5837                           ;psect for function _WaitForSetupStage
  5838  0F96                     _WaitForSetupStage:	
  5839  0F96                     i1l2138:	
  5840                           ;incstack = 0
  5841                           ; Regs used in _WaitForSetupStage: [wreg+status,2+status,0]
  5842                           
  5843                           
  5844                           ;Source/Usb.c: 682:     CtrlTransferStage = 0x00;
  5845  0F96  0020               	movlb	0	; select bank0
  5846  0F97  01BA               	clrf	_CtrlTransferStage
  5847  0F98                     i1l2140:	
  5848                           
  5849                           ;Source/Usb.c: 683:     Interfaces[0].Output.Cnt = 0x08;
  5850  0F98  3008               	movlw	8
  5851  0F99  00A1               	movwf	33	;volatile
  5852  0F9A                     i1l2142:	
  5853                           
  5854                           ;Source/Usb.c: 684:     Interfaces[0].Output.ADDR = ((unsigned int)(((unsigned long)&Set
      +                          upPacket) & 0xFFFF));
  5855  0F9A  3040               	movlw	low _SetupPacket
  5856  0F9B  00A2               	movwf	34	;volatile
  5857  0F9C  3000               	movlw	high _SetupPacket
  5858  0F9D  00A3               	movwf	35	;volatile
  5859  0F9E                     i1l2144:	
  5860                           
  5861                           ;Source/Usb.c: 685:     Interfaces[0].Output.Stat = 0x80 | 0x08;
  5862  0F9E  3088               	movlw	136
  5863  0F9F  00F0               	movwf	??_WaitForSetupStage
  5864  0FA0  0870               	movf	??_WaitForSetupStage,w
  5865  0FA1  00A0               	movwf	32	;volatile
  5866  0FA2                     i1l2146:	
  5867                           
  5868                           ;Source/Usb.c: 686:     Interfaces[0].Input.Stat = 0x00;
  5869  0FA2  01A4               	clrf	36	;volatile
  5870  0FA3                     i1l350:	
  5871  0FA3  0008               	return
  5872  0FA4                     __end_of_WaitForSetupStage:	
  5873  007E                     btemp	set	126	;btemp
  5874  007E                     int$flags	set	126
  5875  007E                     wtemp0	set	126


Data Sizes:
    Strings     0
    Constant    198
    Data        31
    BSS         53
    Persistent  32
    Stack       0

Auto Spaces:
    Space          Size  Autos    Used
    COMMON           14     13      14
    BANK0            64     13      61
    BANK1            80      0      35
    BANK2            80      0       0
    BANK3            80      0       0
    BANK4            80      0       0
    BANK5            80      0       0
    BANK6            80      0       0
    BANK7            80      0       0
    BANK8            80      0       0
    BANK9            80      0       0
    BANK10           80      0       0
    BANK11           80      0       0
    BANK12           48      0       0

Pointer List with Targets:

    inPtr	PTR unsigned char  size(1) Largest target is 16
		 -> ControlTransferBuffer(BANK0[8]), Interfaces.Output(BANK0[4]), Interfaces(BANK0[16]), NULL(NULL[0]), 

    outPtr	PTR unsigned char  size(1) Largest target is 8
		 -> CurrentConfiguration(BANK0[1]), ControlTransferBuffer(BANK0[8]), HidProtocol(BANK0[1]), HidIdleRate(BANK0[1]), 
		 -> NULL(NULL[0]), 

    ROMoutPtr	PTR const unsigned char  size(2) Largest target is 63
		 -> DeviceDescriptor(CODE[18]), HIDReport(CODE[63]), NULL(NULL[0]), StringDescriptor2(CODE[42]), 
		 -> StringDescriptor1(CODE[24]), StringDescriptor0(CODE[4]), ConfigurationDescriptor.HIDDescriptor(CODE[32]), ConfigurationDescriptor(CODE[41]), 

    StringDescriptorPointers	const PTR const unsigned char [3] size(2) Largest target is 42
		 -> StringDescriptor2(CODE[42]), StringDescriptor1(CODE[24]), StringDescriptor0(CODE[4]), 

    S22_BufferInfo$Buffer	PTR unsigned char  size(1) Largest target is 8
		 -> HIDRxBuffer(BANK1[8]), HIDTxBuffer(BANK0[8]), 

    Buffers.Buffer	PTR unsigned char  size(1) Largest target is 8
		 -> HIDRxBuffer(BANK1[8]), HIDTxBuffer(BANK0[8]), 


Critical Paths under _main in COMMON

    None.

Critical Paths under _ISRCode in COMMON

    _ISRCode->_ProcessUSBTransactions
    _ProcessUSBTransactions->_ProcessControlTransfer
    _Stall->_WaitForSetupStage
    _ProcessControlTransfer->_SetupStage
    _SetupStage->_ProcessStandardRequest
    _ProcessStandardRequest->_SetFeature
    _BusReset->_WaitForSetupStage

Critical Paths under _main in BANK0

    _main->_ProcessIO
    _ProcessIO->_PrepareTxBuffer
    _PrepareTxBuffer->___bmul
    _CheckUsb->_ReArmInterface

Critical Paths under _ISRCode in BANK0

    None.

Critical Paths under _main in BANK1

    None.

Critical Paths under _ISRCode in BANK1

    None.

Critical Paths under _main in BANK2

    None.

Critical Paths under _ISRCode in BANK2

    None.

Critical Paths under _main in BANK3

    None.

Critical Paths under _ISRCode in BANK3

    None.

Critical Paths under _main in BANK4

    None.

Critical Paths under _ISRCode in BANK4

    None.

Critical Paths under _main in BANK5

    None.

Critical Paths under _ISRCode in BANK5

    None.

Critical Paths under _main in BANK6

    None.

Critical Paths under _ISRCode in BANK6

    None.

Critical Paths under _main in BANK7

    None.

Critical Paths under _ISRCode in BANK7

    None.

Critical Paths under _main in BANK8

    None.

Critical Paths under _ISRCode in BANK8

    None.

Critical Paths under _main in BANK9

    None.

Critical Paths under _ISRCode in BANK9

    None.

Critical Paths under _main in BANK10

    None.

Critical Paths under _ISRCode in BANK10

    None.

Critical Paths under _main in BANK11

    None.

Critical Paths under _ISRCode in BANK11

    None.

Critical Paths under _main in BANK12

    None.

Critical Paths under _ISRCode in BANK12

    None.

Call Graph Tables:

 ---------------------------------------------------------------------------------
 (Depth) Function   	        Calls       Base Space   Used Autos Params    Refs
 ---------------------------------------------------------------------------------
 (0) _main                                                 0     0      0     973
                   _EnableInterrupts
                    _EnableUSBModule
                   _InitializeSystem
                      _InitializeUSB
                _NES_GPIO_Initialize
                          _ProcessIO
 ---------------------------------------------------------------------------------
 (1) _ProcessIO                                            2     2      0     973
                                             11 BANK0      2     2      0
                           _CheckUsb
                            _HIDSend
                       _NES_read_pad
                    _PrepareTxBuffer
 ---------------------------------------------------------------------------------
 (2) _PrepareTxBuffer                                      7     7      0     484
                                              4 BANK0      7     7      0
                             ___bmul
 ---------------------------------------------------------------------------------
 (3) ___bmul                                               4     3      1     235
                                              0 BANK0      4     3      1
 ---------------------------------------------------------------------------------
 (2) _NES_read_pad                                         5     5      0      92
                                              0 BANK0      5     5      0
 ---------------------------------------------------------------------------------
 (2) _HIDSend                                              4     4      0     132
                                              0 BANK0      4     4      0
 ---------------------------------------------------------------------------------
 (2) _CheckUsb                                             0     0      0     198
                 _IsUsbDataAvaialble
               _ProcessIncommingData
                     _ReArmInterface
 ---------------------------------------------------------------------------------
 (3) _ReArmInterface                                       4     4      0     132
                                              0 BANK0      4     4      0
 ---------------------------------------------------------------------------------
 (3) _ProcessIncommingData                                 0     0      0       0
 ---------------------------------------------------------------------------------
 (3) _IsUsbDataAvaialble                                   2     2      0      66
                                              0 BANK0      2     2      0
 ---------------------------------------------------------------------------------
 (1) _NES_GPIO_Initialize                                  0     0      0       0
 ---------------------------------------------------------------------------------
 (1) _InitializeUSB                                        0     0      0       0
                     _ResetPPBuffers
 ---------------------------------------------------------------------------------
 (2) _ResetPPBuffers                                       0     0      0       0
 ---------------------------------------------------------------------------------
 (1) _InitializeSystem                                     0     0      0       0
 ---------------------------------------------------------------------------------
 (1) _EnableUSBModule                                      1     1      0       0
                                              0 BANK0      1     1      0
 ---------------------------------------------------------------------------------
 (1) _EnableInterrupts                                     0     0      0       0
 ---------------------------------------------------------------------------------
 Estimated maximum stack depth 3
 ---------------------------------------------------------------------------------
 (Depth) Function   	        Calls       Base Space   Used Autos Params    Refs
 ---------------------------------------------------------------------------------
 (4) _ISRCode                                              0     0      0    1527
             _ProcessUSBTransactions
 ---------------------------------------------------------------------------------
 (5) _ProcessUSBTransactions                               1     1      0    1527
                                             12 COMMON     1     1      0
                           _BusReset
             _ProcessControlTransfer
                              _Stall
                       _StartOfFrame
                            _Suspend
                          _UnSuspend
 ---------------------------------------------------------------------------------
 (6) _UnSuspend                                            1     1      0       0
                                              0 COMMON     1     1      0
 ---------------------------------------------------------------------------------
 (6) _Suspend                                              1     1      0       0
                                              0 COMMON     1     1      0
 ---------------------------------------------------------------------------------
 (6) _StartOfFrame                                         0     0      0       0
 ---------------------------------------------------------------------------------
 (6) _Stall                                                0     0      0       0
                  _WaitForSetupStage
 ---------------------------------------------------------------------------------
 (6) _ProcessControlTransfer                               3     3      0    1527
                                              9 COMMON     3     3      0
                        _InDataStage
                       _OutDataStage
                         _SetupStage
                  _WaitForSetupStage
 ---------------------------------------------------------------------------------
 (7) _SetupStage                                           1     1      0    1275
                                              8 COMMON     1     1      0
                        _InDataStage
                  _ProcessHIDRequest
             _ProcessStandardRequest
 ---------------------------------------------------------------------------------
 (8) _ProcessStandardRequest                               2     2      0     893
                                              6 COMMON     2     2      0
                      _GetDescriptor
                          _GetStatus
                   _HIDInitEndpoints
                         _SetFeature
 ---------------------------------------------------------------------------------
 (9) _SetFeature                                           6     6      0     180
                                              0 COMMON     6     6      0
 ---------------------------------------------------------------------------------
 (9) _HIDInitEndpoints                                     5     5      0     245
                                              0 COMMON     5     5      0
 ---------------------------------------------------------------------------------
 (9) _GetStatus                                            5     5      0     113
                                              0 COMMON     5     5      0
 ---------------------------------------------------------------------------------
 (9) _GetDescriptor                                        5     5      0     112
                                              0 COMMON     5     5      0
 ---------------------------------------------------------------------------------
 (8) _ProcessHIDRequest                                    3     3      0     222
                                              0 COMMON     3     3      0
 ---------------------------------------------------------------------------------
 (8) _InDataStage                                          5     5      0     160
                                              0 COMMON     5     5      0
 ---------------------------------------------------------------------------------
 (7) _OutDataStage                                         5     5      0      69
                                              0 COMMON     5     5      0
 ---------------------------------------------------------------------------------
 (6) _BusReset                                             1     1      0       0
                                              1 COMMON     1     1      0
                  _WaitForSetupStage
 ---------------------------------------------------------------------------------
 (7) _WaitForSetupStage                                    1     1      0       0
                                              0 COMMON     1     1      0
 ---------------------------------------------------------------------------------
 Estimated maximum stack depth 9
 ---------------------------------------------------------------------------------

 Call Graph Graphs:

 _main (ROOT)
   _EnableInterrupts
   _EnableUSBModule
   _InitializeSystem
   _InitializeUSB
     _ResetPPBuffers
   _NES_GPIO_Initialize
   _ProcessIO
     _CheckUsb
       _IsUsbDataAvaialble
       _ProcessIncommingData
       _ReArmInterface
     _HIDSend
     _NES_read_pad
     _PrepareTxBuffer
       ___bmul

 _ISRCode (ROOT)
   _ProcessUSBTransactions
     _BusReset
       _WaitForSetupStage
     _ProcessControlTransfer
       _InDataStage
       _OutDataStage
       _SetupStage
         _InDataStage
         _ProcessHIDRequest
         _ProcessStandardRequest
           _GetDescriptor
           _GetStatus
           _HIDInitEndpoints
           _SetFeature
       _WaitForSetupStage
     _Stall
       _WaitForSetupStage
     _StartOfFrame
     _Suspend
     _UnSuspend

 Address spaces:
Name               Size   Autos  Total    Cost      Usage
BIGRAM             3F0      0       0       0        0.0%
NULL                 0      0       0       0        0.0%
CODE                 0      0       0       0        0.0%
BITCOMMON            E      0       0       1        0.0%
BITSFR0              0      0       0       1        0.0%
SFR0                 0      0       0       1        0.0%
COMMON               E      D       E       2      100.0%
BITSFR1              0      0       0       2        0.0%
SFR1                 0      0       0       2        0.0%
BITSFR2              0      0       0       3        0.0%
SFR2                 0      0       0       3        0.0%
STACK                0      0       0       3        0.0%
BITBANK0            40      0       0       4        0.0%
BITSFR3              0      0       0       4        0.0%
SFR3                 0      0       0       4        0.0%
BANK0               40      D      3D       5       95.3%
BITSFR4              0      0       0       5        0.0%
SFR4                 0      0       0       5        0.0%
BITBANK1            50      0       0       6        0.0%
BITSFR5              0      0       0       6        0.0%
SFR5                 0      0       0       6        0.0%
BANK1               50      0      23       7       43.8%
BITSFR6              0      0       0       7        0.0%
SFR6                 0      0       0       7        0.0%
BITBANK2            50      0       0       8        0.0%
BITSFR7              0      0       0       8        0.0%
SFR7                 0      0       0       8        0.0%
BANK2               50      0       0       9        0.0%
BITSFR8              0      0       0       9        0.0%
SFR8                 0      0       0       9        0.0%
BITBANK3            50      0       0      10        0.0%
BITSFR9              0      0       0      10        0.0%
SFR9                 0      0       0      10        0.0%
BANK3               50      0       0      11        0.0%
BITSFR10             0      0       0      11        0.0%
SFR10                0      0       0      11        0.0%
BITBANK4            50      0       0      12        0.0%
BITSFR11             0      0       0      12        0.0%
SFR11                0      0       0      12        0.0%
BANK4               50      0       0      13        0.0%
BITSFR12             0      0       0      13        0.0%
SFR12                0      0       0      13        0.0%
BITBANK5            50      0       0      14        0.0%
BITSFR13             0      0       0      14        0.0%
SFR13                0      0       0      14        0.0%
BANK5               50      0       0      15        0.0%
BITSFR14             0      0       0      15        0.0%
SFR14                0      0       0      15        0.0%
BITBANK6            50      0       0      16        0.0%
BITSFR15             0      0       0      16        0.0%
SFR15                0      0       0      16        0.0%
BANK6               50      0       0      17        0.0%
BITSFR16             0      0       0      17        0.0%
SFR16                0      0       0      17        0.0%
BITBANK7            50      0       0      18        0.0%
BITSFR17             0      0       0      18        0.0%
SFR17                0      0       0      18        0.0%
BANK7               50      0       0      19        0.0%
BITSFR18             0      0       0      19        0.0%
SFR18                0      0       0      19        0.0%
BITSFR19             0      0       0      20        0.0%
SFR19                0      0       0      20        0.0%
ABS                  0      0      6E      20        0.0%
BITBANK8            50      0       0      21        0.0%
BITSFR20             0      0       0      21        0.0%
SFR20                0      0       0      21        0.0%
BANK8               50      0       0      22        0.0%
BITSFR21             0      0       0      22        0.0%
SFR21                0      0       0      22        0.0%
BITBANK9            50      0       0      23        0.0%
BITSFR22             0      0       0      23        0.0%
SFR22                0      0       0      23        0.0%
BANK9               50      0       0      24        0.0%
BITSFR23             0      0       0      24        0.0%
SFR23                0      0       0      24        0.0%
BITBANK10           50      0       0      25        0.0%
BITSFR24             0      0       0      25        0.0%
SFR24                0      0       0      25        0.0%
BANK10              50      0       0      26        0.0%
BITSFR25             0      0       0      26        0.0%
SFR25                0      0       0      26        0.0%
BITBANK11           50      0       0      27        0.0%
BITSFR26             0      0       0      27        0.0%
SFR26                0      0       0      27        0.0%
BANK11              50      0       0      28        0.0%
BITSFR27             0      0       0      28        0.0%
SFR27                0      0       0      28        0.0%
BITBANK12           30      0       0      29        0.0%
BITSFR28             0      0       0      29        0.0%
SFR28                0      0       0      29        0.0%
BANK12              30      0       0      30        0.0%
BITSFR29             0      0       0      30        0.0%
SFR29                0      0       0      30        0.0%
BITSFR30             0      0       0      31        0.0%
SFR30                0      0       0      31        0.0%
DATA                 0      0      6E      31        0.0%
BITSFR31             0      0       0      32        0.0%
SFR31                0      0       0      32        0.0%


Microchip Technology PIC Macro Assembler V2.10 build 88905656 
Symbol Table                                                                                   Sun Feb 23 08:39:15 2020

                  ___bmul@product 005E                       __CFG_CP$OFF 0000        __size_of_WaitForSetupStage 000E  
          __end_of_ResetPPBuffers 0F5F                                l80 07FD                                l77 0FB3  
                              l86 0401                                l94 0453                                l96 0454  
                              l99 07FE        __end_of_IsUsbDataAvaialble 078C          __end_of_EnableInterrupts 07FE  
                             l103 0FD4                               l108 0713                               l215 0639  
                             l208 078B                               l219 05DF                               l440 0679  
                             l450 06B2                               l372 0F5B                               l381 07CF  
                             l437 0F89                               l374 0F5E                               l384 07DD  
                             l544 0FFF                               l377 0FC3                               _UIE 0E92  
                             _UIR 0E90                      __CFG_BORV$LO 0000                               wreg 0009  
                    _transferType 0035                   __end_of_HIDSend 05E0                      __CFG_LVP$OFF 0000  
                            l2200 0FD0                              l2050 0770                              l2202 067B  
                            l2052 077F                              l2044 0769                              l2060 05E2  
                            l2220 069B                              l2212 0684                              l2204 067E  
                            l2046 076E                              l2062 05F1                              l2230 0587  
                            l2222 069E                              l2214 0694                              l2206 0680  
                            l2150 0FED                              l2400 0FA9                              l2064 061A  
                            l2224 06A3                              l2216 0696                              l2208 0682  
                            l2152 0FF1                              l2410 07F9                              l2402 0FAB  
                            l2066 062A                              l2234 0597                              l2226 06B0  
                            l2218 0699                              l2154 0FF5                              l2170 03F2  
                            l2162 03EC                              l2412 07FA                              l2404 0FAE  
                            l2236 05C0                              l2156 0FF7                              l2148 0FEC  
                            l2180 0407                              l2172 03F6                              l2420 06F5  
                            l2414 07FB                              l2406 0FB1                              l2238 05D0  
                            l2158 0FFE                              l2182 040C                              l2174 03FC  
                            l2430 070E                              l2422 06F8                              l2408 07F6  
                            l2440 0FBA                              l2432 0F7F                              l2184 041F  
                            l2192 043E                              l2176 0402                              l2168 03ED  
                            l2424 06FF                              l2416 06E9                              l2450 07C4  
                            l2442 0FBB                              l2434 0FB4                              l2186 0433  
                            l2194 0442                              l2178 0403                              l2418 06F0  
                            l2460 07D6                              l2452 07C9                              l2444 0FBD  
                            l2436 0FB7                              l2196 0FC4                              l2188 0437  
                            l2428 0706                              l2462 07D7                              l2454 07CB  
                            l2446 0FBE                              l2438 0FB9                              l2198 0FCD  
                            l2470 0FD5                              l2464 07D8                              l2456 07CC  
                            l2448 0FC1                              l2480 0FE4                              l2472 0FD8  
                            l2458 07D4                              l2474 0FDB                              l2476 0FDE  
                            l2398 0FA4                              l2478 0FE1                              u2000 05F1  
                            u2001 05F0                              u2110 0FF1                              u2015 05F4  
                            u2111 0FF0                              u2040 061A                              u2200 06B0  
                            u2120 0FFE                              u2041 0619                              u2025 0601  
                            u2201 06AF                              u2121 0FFD                              u2130 03FC  
                            u2035 060E                              u2131 03FB                              u2220 0596  
                            u2140 0401                              u2221 0595                              u2205 06AC  
                            u2141 0400                              u2150 041F                              u2055 061F  
                            u2215 058A                              u2151 041E                              _LATC 010E  
                            u2160 043D                              u2065 062F                              u2161 043C  
                            u2170 0452                              u2235 059A                              u2171 0451  
                            u2180 0FCD                              u2260 05C0                              u2181 0FCC  
                            u2261 05BF                              u2245 05A7                              u2255 05B4  
                            u2600 06F5                              u2601 06F4                              u2194 068E  
                            u2610 0705                              u2275 05C5                              u2195 068D  
                            u2611 0704                              u2620 07C9                              u2621 07C8  
                            u2285 05D5                              u2630 07D4                              u2631 07D3  
                            u1950 076E                              u2590 06F0                              u1951 076D  
                            u2591 06EF                              u1970 077F                              u1971 077E  
                            u1965 0773                              u2677 067C                              u2687 0697  
                            u1985 0782                              u2697 069C                              u1995 05E5  
                            i1l74 000E                              _UCFG 0E91                              _UEP0 0E98  
                            _UEIE 0E97                              _UEIR 0E93                              _UCON 0E8E  
                 __end_of_ISRCode 0010                      __CFG_WRT$OFF 0000                              _main 0FD5  
           __end_of_GetDescriptor 0585                              fsr0h 0005                              fsr1h 0007  
                            indf0 0000                              fsr0l 0004                              indf1 0001  
                            fsr1l 0006                              btemp 007E              _CurrentConfiguration 005B  
                   __CFG_BOREN$ON 0000                              start 0010                     __CFG_IESO$OFF 0000  
               ___bmul@multiplier 005F            __size_of_InitializeUSB 0010                 ??_EnableUSBModule 005C  
                _HIDInitEndpoints 01FE               _NES_GPIO_Initialize 0F7F                   ?_ResetPPBuffers 0070  
   IsUsbDataAvaialble@InterfaceNo 005D                             ?_main 0070                     __CFG_WDTE$OFF 0000  
                 __end_of_Suspend 0F77                             i1l231 004E                             i1l400 0798  
                           i1l232 00D8                             i1l401 0797                             i1l402 079C  
                           i1l226 0288                             i1l403 07A8                             i1l333 0308  
                           i1l350 0FA3                             i1l342 047E                             i1l406 0177  
                           i1l415 01EA                             i1l407 01FD                             i1l264 0584  
                           i1l344 04AB                             i1l257 0584                             i1l409 0190  
                           i1l339 06E8                             i1l347 04BE                             i1l292 037A  
                           i1l277 0523                             i1l390 0F5A                             i1l287 035B  
                           i1l296 016B                             i1l369 03E9                             i1l394 0F95  
                           i1l387 0F7E                             i1l397 0F76                             _UADDR 0E96  
                           _USTAT 0E8F                HIDSend@InterfaceNo 005F        PrepareTxBuffer@max_buttons 0062  
                  __CFG_FCMEN$OFF 0000                       _InDataStage 0289                             _Stall 0F8A  
   PrepareTxBuffer@keypad_reading 0063                             _inPtr 007D          ??_ProcessUSBTransactions 007C  
            ?_NES_GPIO_Initialize 0070                       _HidIdleRate 005A                             status 0003  
                           wtemp0 007E                  __end_of_CheckUsb 0FD5                    __CFG_MCLRE$OFF 0000  
                 __initialization 0012                  __end_of_BusReset 07A9                      __end_of_main 0FEA  
        ??_ProcessControlTransfer 0079                    __CFG_LPBOR$OFF 0000                       _DeviceState 003F  
                          ??_main 0069                       _HidProtocol 0059         __size_of_InitializeSystem 0010  
               __end_of_HIDReport 0679                        _Interfaces 0020                         ??_HIDSend 005C  
             __CFG_USBLSCLK$48MHz 0000                __size_of_GetStatus 0065                         ??_ISRCode 007D  
                      _SetFeature 0309                     _InitializeUSB 0FB4                            ?_Stall 0070  
           ??_NES_GPIO_Initialize 005C                            _ACTCON 039B                            _ANSELA 018C  
                          _ANSELC 018E                            i1l2000 016B                            i1l2010 029C  
                          i1l2020 02BC                            i1l2012 02A0                            i1l2004 0289  
                          i1l2100 046F                            i1l2022 02BE                            i1l2030 02D5  
                          i1l2014 02A9                            i1l2006 0293                            i1l2110 048C  
                          i1l2102 0471                            i1l2040 02F7                            i1l2024 02C9  
                          i1l2032 02E3                            i1l2016 02AD                            i1l2008 0298  
                          i1l2120 049E                            i1l2112 0490                            i1l2104 0475  
                          i1l2034 02E5                            i1l2042 02FB                            i1l2026 02CD  
                          i1l2018 02B7                            i1l2130 04B2                            i1l2122 04A2  
                          i1l2114 0493                            i1l2106 0479                            i1l2140 0F98  
                          i1l2036 02EF                            i1l2028 02D1                            i1l2132 04B4  
                          i1l2124 04A6                            i1l2116 0498                            i1l2108 0482  
                          i1l2300 0F75                            i1l2142 0F9A                            i1l2310 079D  
                          i1l2302 078C                            i1l2070 06C1                            i1l2038 02F3  
                          i1l2134 04B8                            i1l2126 04AD                            i1l2118 049A  
                          i1l2144 0F9E                            i1l2312 07A0                            i1l2304 078F  
                          i1l2080 06DA                            i1l2072 06C5                            i1l2128 04AE  
                          i1l2136 04BC                            i1l2240 037B                            i1l2320 016C  
                          i1l2146 0FA2                            i1l2138 0F96                            i1l2314 07A2  
                          i1l2306 0791                            i1l2074 06C8                            i1l2082 06DE  
                          i1l2090 0460                            i1l2250 039F                            i1l2242 0381  
                          i1l2330 0180                            i1l2322 0172                            i1l2316 07A3  
                          i1l2308 0794                            i1l2076 06D2                            i1l2068 06B3  
                          i1l2092 0461                            i1l2084 0455                            i1l2260 03B8  
                          i1l2252 03A4                            i1l2244 0393                            i1l2332 0183  
                          i1l2324 0174                            i1l2318 07A4                            i1l2078 06D6  
                          i1l2094 0463                            i1l2086 045E                            i1l2262 03BD  
                          i1l2270 03D1                            i1l2254 03A9                            i1l2246 0397  
                          i1l2350 01A4                            i1l2342 0194                            i1l2334 0188  
                          i1l1800 04DB                            i1l2096 0466                            i1l2088 045F  
                          i1l2272 03D8                            i1l2264 03C4                            i1l2248 039C  
                          i1l2256 03AE                            i1l2360 01B8                            i1l2352 01A8  
                          i1l2344 0198                            i1l2336 018C                            i1l2328 017C  
                          i1l1810 04F5                            i1l1802 04E0                            i1l2098 0469  
                          i1l2274 03DB                            i1l2266 03C7                            i1l2258 03B2  
                          i1l2290 0F8F                            i1l2282 0F77                            i1l2370 01CB  
                          i1l2362 01BB                            i1l2354 01AB                            i1l2346 019B  
                          i1l2338 018D                            i1l1812 0501                            i1l1804 04E3  
                          i1l1820 0515                            i1l2276 03E0                            i1l2268 03CC  
                          i1l2292 0F92                            i1l2284 0F7A                            i1l2380 01DA  
                          i1l2372 01D0                            i1l2364 01C0                            i1l2356 01B0  
                          i1l2348 01A0                            i1l1910 00A4                            i1l1902 0091  
                          i1l1750 052B                            i1l1822 051A                            i1l1814 0506  
                          i1l1806 04E9                            i1l1742 0202                            i1l1830 0313  
                          i1l2278 03E5                            i1l2294 0F94                            i1l2286 0F58  
                          i1l2390 01EF                            i1l2374 01D4                            i1l2382 01DE  
                          i1l2366 01C4                            i1l2358 01B4                            i1l1920 00BB  
                          i1l1912 00AC                            i1l1904 0097                            i1l1760 0545  
                          i1l1752 0533                            i1l1824 0522                            i1l1816 050A  
                          i1l1808 04F3                            i1l1744 027F                            i1l1736 01FE  
                          i1l1840 0328                            i1l1832 0318                            u210_20 048C  
                          i1l2288 0F8A                            i1l2296 0F6F                            i1l2392 01F3  
                          i1l2384 01E5                            i1l2376 01D8                            i1l2368 01C8  
                          u210_21 048B                            i1l1930 00D2                            i1l1922 00C1  
                          i1l1914 00AE                            i1l1906 009C                            i1l1770 055C  
                          i1l1762 054B                            i1l1754 0538                            i1l1818 0511  
                          i1l1746 0283                            i1l1850 0344                            i1l1834 031D  
                          i1l1842 032A                            i1l1826 0309                            i1l2298 0F71  
                          i1l2394 01F6                            i1l2386 01E7                            i1l2378 01D9  
                          i1l2466 0006                            i1l1932 00D4                            i1l1924 00C3  
                          i1l1916 00B4                            i1l1908 00A2                            i1l1772 055E  
                          i1l1764 054D                            i1l1756 053A                            i1l1748 0524  
                          i1l1860 036E                            i1l1852 0346                            i1l1844 0330  
                          i1l1836 031F                            i1l1828 030F                            i1l1940 00E5  
                          i1l2396 01FB                            i1l2468 000B                            u210_25 0488  
                          i1l1918 00B6                            i1l1870 0053                            i1l1774 0564  
                          i1l1758 0542                            i1l1790 04CC                            i1l1782 04BF  
                          i1l1862 0373                            i1l1854 0357                            i1l1846 033A  
                          i1l1838 0325                            i1l1950 0100                            i1l1942 00EB  
                          i1l1934 00D9                            i1l1928 00CC                            i1l1880 006D  
                          i1l1872 0059                            i1l1864 003F                            i1l1776 0569  
                          i1l1768 0556                            i1l1792 04CE                            i1l1784 04C5  
                          i1l1856 0361                            i1l1848 033F                            i1l1960 0116  
                          i1l1952 0106                            i1l1944 00ED                            i1l1936 00DE  
                          i1l1890 0081                            i1l1882 0070                            i1l1874 005D  
                          i1l1866 0048                            i1l1778 0578                            i1l1794 04D3  
                          i1l1786 04C6                            i1l1858 0369                            i1l1970 012E  
                          i1l1962 011A                            i1l1954 0108                            i1l1946 00F6  
                          i1l1884 0076                            i1l1876 0063                            i1l1868 004F  
                          i1l1796 04D4                            i1l1788 04C7                            i1l1980 0144  
                          i1l1972 0130                            i1l1956 010C                            i1l1964 011E  
                          i1l1948 00FC                            i1l1886 0078                            i1l1878 0065  
                          i1l1894 0081                            i1l1798 04D9                            i1l1990 0155  
                          i1l1982 0148                            i1l1974 0135                            i1l1966 0124  
                          i1l1958 0111                            i1l1984 014E                            i1l1992 015B  
                          i1l1976 0139                            i1l1968 0126                            i1l1898 008B  
                          i1l1994 0161                            i1l1986 0150                            i1l1978 013E  
                          i1l1996 0164                            i1l1988 0151                            u140_25 0264  
                          u141_25 0275                            u150_20 04D9                            u142_20 0288  
                          u150_21 04D8                            u142_21 0287                            u134_25 020E  
                          u230_25 0385                            u207_20 06E8                            u143_20 052B  
                          u151_20 04E0                            u231_20 0393                            u207_21 06E7  
                          u143_21 052A                            u151_21 04DF                            u231_21 0392  
                          u207_25 06E4                            u135_25 021B                            u144_20 0538  
                          u152_20 04E9                            u160_20 0330                            u208_20 046F  
                          u232_20 039C                            u240_20 0F8F                            u144_21 0537  
                          u152_21 04E8                            u160_21 032F                            u208_21 046E  
                          u232_21 039B                            u240_21 0F8E                            u136_25 0228  
                          u241_20 079C                            u145_20 054B                            u161_20 033F  
                          u209_20 0482                            u233_20 03A4                            u241_21 079B  
                          u145_21 054A                            u161_21 033E                            u209_21 0481  
                          u233_21 03A3                            u153_25 04F8                            u137_25 0237  
                          u170_20 0063                            u146_20 055C                            u154_20 0506  
                          u162_20 0344                            u234_20 03B8                            u250_20 01B4  
                          u242_20 0172                            u170_21 0062                            u146_21 055B  
                          u154_21 0505                            u162_21 0343                            u234_21 03B7  
                          u250_21 01B3                            u242_21 0171                            u138_25 0248  
                          u171_20 0076                            u147_20 0564                            u155_20 0511  
                          u235_20 03BD                            u251_20 01B8                            u243_20 017C  
                          u171_21 0075                            u147_21 0563                            u155_21 0510  
                          u235_21 03BC                            u251_21 01B7                            u243_21 017B  
                          u139_25 0255                            u163_25 0349                            u172_20 008A  
                          u156_20 051A                            u148_20 04CC                            u164_20 0357  
                          u180_20 00EB                            u236_20 03C4                            u252_20 01C4  
                          u244_20 0180                            u172_21 0089                            u156_21 0519  
                          u148_21 04CB                            u164_21 0356                            u180_21 00EA  
                          u236_21 03C3                            u252_21 01C3                            u244_21 017F  
                          u173_20 0090                            u149_20 04D3                            u165_20 0361  
                          u157_20 0318                            u181_20 00FC                            u237_20 03CC  
                          u229_20 0381                            u253_20 01C8                            u245_20 018C  
                          u173_21 008F                            u149_21 04D2                            u165_21 0360  
                          u157_21 0317                            u181_21 00FB                            u237_21 03CB  
                          u229_21 0380                            u253_21 01C7                            u245_21 018B  
                          u174_20 0097                            u166_20 036E                            u158_20 031D  
                          u190_20 016A                            u182_20 0106                            u238_20 03D8  
                          u254_20 01D4                            u246_20 0194                            u174_21 0096  
                          u166_21 036D                            u158_21 031C                            u190_21 0169  
                          u182_21 0105                            u238_21 03D7                            u254_21 01D3  
                          u246_21 0193                            u191_20 0293                            u175_20 00A2  
                          u167_20 0048                            u159_20 0325                            u183_20 0111  
                          u239_20 03E0                            u255_20 01D8                            u247_20 0198  
                          u191_21 0292                            u175_21 00A1                            u167_21 0047  
                          u159_21 0324                            u183_21 0110                            u239_21 03DF  
                          u255_21 01D7                            u247_21 0197                            u192_20 02BC  
                          u176_20 00B4                            u168_20 004D                            u184_20 0124  
                          u256_20 01E5                            u248_20 01A4                            u264_20 000B  
                          u192_21 02BB                            u176_21 00B3                            u168_21 004C  
                          u184_21 0123                            u256_21 01E4                            u248_21 01A3  
                          u264_21 000A                            u193_20 02E2                            u177_20 00C1  
                          u169_20 0059                            u185_20 0135                            u257_20 01EF  
                          u249_20 01A8                            u193_21 02E1                            u177_21 00C0  
                          u169_21 0058                            u185_21 0134                            u257_21 01EE  
                          u249_21 01A7                            u193_25 02DE                            u194_20 0308  
                          u178_20 00D2                            u186_20 013E                            u258_20 01F3  
                          u194_21 0307                            u178_21 00D1                            u186_21 013D  
                          u258_21 01F2                            u194_25 0304                            u187_20 0144  
                          u179_20 00E4                            u187_21 0143                            u179_21 00E3  
                          u188_20 014E                            u188_21 014D                            u189_20 0161  
                          u189_21 0160                            _OSCCON 0099         ProcessHIDRequest@bRequest 0072  
                  __CFG_PWRTE$OFF 0000                            ___bmul 0FEA                    __CFG_STVREN$ON 0000  
          OutDataStage@bufferSize 0073                         ??_Suspend 0070                            _wCount 0030  
                      _SetupStage 0455                            _outPtr 0036                __size_of_UnSuspend 0008  
              __size_of_ProcessIO 002B                    ?_InitializeUSB 0070          __size_of_PrepareTxBuffer 006B  
         ?_ProcessStandardRequest 0070   __size_of_ProcessUSBTransactions 0092      GetDescriptor@descriptorIndex 0073  
                  _RequestHandled 0038           __end_of__initialization 003B             SetFeature@endpointDir 0075  
             ___bmul@multiplicand 005C                 __end_of_GetStatus 0524             SetFeature@endpointNum 0074  
                  __pcstackCOMMON 0070                     __end_of_Stall 0F96                      __pidataBANK0 0F5F  
                    __pidataBANK1 07A9   __size_of_ProcessControlTransfer 006F                 ?_EnableInterrupts 0070  
                 _button_key_maps 00A0                         ?_CheckUsb 0070                ??_EnableInterrupts 005C  
    __end_of_ProcessIncommingData 07FF    __end_of_ProcessStandardRequest 016C                       ?_SetFeature 0070  
                         ??_Stall 0071           __size_of_ReArmInterface 005A                _IsUsbDataAvaialble 0767  
        __end_of_HIDInitEndpoints 0289                         ?_BusReset 0070                        __pbssBANK0 0030  
                      __pbssBANK1 00BB                   _EnableUSBModule 07C4  __end_of_StringDescriptorPointers 1018  
                   ?_OutDataStage 0070               ?_IsUsbDataAvaialble 0070                 __end_of_UnSuspend 0F7F  
               __end_of_ProcessIO 0714                     ?_NES_read_pad 0070                  ??_ResetPPBuffers 005C  
           InDataStage@bufferSize 0073                        __pmaintext 0FD5                           ?___bmul 005C  
                 __CFG_PLLMULT$3x 0000            _ProcessUSBTransactions 016C                        __pintentry 0004  
                     ?_SetupStage 0070                       _SelfPowered 003B                  _InitializeSystem 0FA4  
            ??_IsUsbDataAvaialble 005C                   ??_InitializeUSB 005C                           _HIDSend 0585  
                      ??_CheckUsb 0060                      ?_InDataStage 0070                           _ISRCode 0004  
                         _OSCTUNE 0098                           _UIEbits 0E92                        ??_BusReset 0071  
                         _UIRbits 0E90            _ProcessControlTransfer 037B                    ??_OutDataStage 0070  
               ??_PrepareTxBuffer 0060                           _Buffers 0069                    ??_NES_read_pad 005C  
             __size_of_SetFeature 0072                   __size_of___bmul 0016                           _Suspend 0F6F  
                   OutDataStage@i 0071                           __ptext1 06E9                           __ptext2 03EA  
                         __ptext3 0FEA                           __ptext4 0679                           __ptext5 0585  
                         __ptext6 0FC4                           __ptext7 05E0                           __ptext8 07FE  
                         __ptext9 0767            __size_of_GetDescriptor 0061                       _SetupPacket 0040  
         __end_of_EnableUSBModule 07DE                         _HIDReport 063A                           clrloop0 0F64  
            end_of_initialization 003B                           init_ram 0F69                           initloop 0F6A  
             __size_of_SetupStage 006A                     NES_read_pad@i 005F              _ProcessIncommingData 07FE  
       ReArmInterface@InterfaceNo 005F                     ?_StartOfFrame 0070                         _PORTAbits 000C  
                       _PORTCbits 000E       __end_of_NES_GPIO_Initialize 0F8A                  __CFG_FOSC$INTOSC 0000  
                       _TRISAbits 008C                         _TRISCbits 008E                    _ReArmInterface 05E0  
   ProcessStandardRequest@request 0077                         _ROMoutPtr 0032                     _GetDescriptor 0524  
           ?_ProcessIncommingData 0070                __CFG_PLLEN$ENABLED 0000                    ??_StartOfFrame 0070  
                    InDataStage@i 0072              GetStatus@endpointDir 0073              GetStatus@endpointNum 0072  
                  __end_of___bmul 1000                         _GetStatus 04BF   __end_of_ConfigurationDescriptor 0767  
            __end_of_OutDataStage 06E9            __end_of_ReArmInterface 063A                 _StringDescriptor0 1018  
               _StringDescriptor1 07DE                 _StringDescriptor2 0714              __end_of_NES_read_pad 06B3  
             start_initialization 0012                      ??_SetFeature 0070                  ?_EnableUSBModule 0070  
               __size_of_CheckUsb 0011              __size_of_InDataStage 0080                 ?_HIDInitEndpoints 0070  
       __size_of_EnableInterrupts 0008                     _DeviceAddress 003C                 __size_of_BusReset 001D  
              ??_HIDInitEndpoints 0070                    ?_GetDescriptor 0070          __end_of_InitializeSystem 0FB4  
         ?_ProcessUSBTransactions 0070                          ??___bmul 005D                         _UnSuspend 0F77  
              __end_of_SetFeature 037B                         _ProcessIO 06E9                        ?_GetStatus 0070  
                     __pdataBANK0 0069                       __pdataBANK1 00A0                      ??_SetupStage 0078  
               HIDInitEndpoints@i 0074         __end_of_StringDescriptor0 101C         __end_of_StringDescriptor1 07F6  
       __end_of_StringDescriptor2 073E                      _last_reading 0034       GetDescriptor@descriptorType 0074  
                        ?_HIDSend 0070                   ?_ReArmInterface 0070                   _PrepareTxBuffer 03EA  
                     __pbssCOMMON 007D                         ___latbits 0002                     __pcstackBANK0 005C  
                        ?_ISRCode 0070           ?_ProcessControlTransfer 0070    __end_of_ProcessUSBTransactions 01FE  
          ??_ProcessIncommingData 005C                __end_of_SetupStage 04BF                  PrepareTxBuffer@i 0066  
                PrepareTxBuffer@n 0065                 _ProcessHIDRequest 003F                        ?_UnSuspend 0070  
                      ?_ProcessIO 0070                          ?_Suspend 0070                ?_ProcessHIDRequest 0070  
             _last_keypad_reading 003E       __size_of_IsUsbDataAvaialble 0025               ??_ProcessHIDRequest 0070  
  __end_of_ProcessControlTransfer 03EA             __end_of_InitializeUSB 0FC4                    __size_of_Stall 000C  
            __end_of_StartOfFrame 0F5B                   ??_GetDescriptor 0070              PrepareTxBuffer@index 0064  
                        _LATCbits 010E                         clear_ram0 0F63                          _PIE2bits 0092  
                _DeviceDescriptor 1000         __end_of_ProcessHIDRequest 00D9                          _PIR2bits 0012  
                     _HIDRxBuffer 00BB                          _UEP0bits 0E98             __size_of_OutDataStage 0036  
                     _HIDTxBuffer 0051                          _UCONbits 0E8E                       ??_GetStatus 0070  
         __end_of_PrepareTxBuffer 0455          ??_ProcessStandardRequest 0076             __size_of_NES_read_pad 003A  
         __size_of_ResetPPBuffers 0004                          _CheckUsb 0FC4                      _RemoteWakeup 003D  
                __size_of_HIDSend 005B                NES_read_pad@output 005E                          _HidRxLen 0037  
                __size_of_ISRCode 000C                          _BusReset 078C                  _EnableInterrupts 07F6  
                    _OutDataStage 06B3                      _NES_read_pad 0679             _ControlTransferBuffer 0049  
               _CtrlTransferStage 003A                       ??_UnSuspend 0070                       ??_ProcessIO 0067  
                __size_of_Suspend 0008                     _EndpointFlags 0E99   ProcessHIDRequest@descriptorType 0071  
               _WaitForSetupStage 0F96                        _ANSELAbits 018C                        _ANSELCbits 018E  
              ?_WaitForSetupStage 0070                          __ptext10 0F7F                          __ptext11 0FB4  
                        __ptext20 0F58                          __ptext12 0F5B                          __ptext21 0F8A  
                        __ptext13 0FA4                          __ptext30 0289                          __ptext22 037B  
                        __ptext14 07C4                          __ptext31 06B3                          __ptext23 0455  
                        __ptext15 07F6                          __ptext32 078C                          __ptext24 00D9  
                        __ptext33 0F96                          __ptext25 0309                          __ptext17 016C  
                        __ptext26 01FE                          __ptext18 0F77                          __ptext27 04BF  
                        __ptext19 0F6F                          __ptext28 0524                          __ptext29 003F  
             ??_WaitForSetupStage 0070      __size_of_NES_GPIO_Initialize 000B               SetFeature@recipient 0072  
                   __size_of_main 0015                 ?_InitializeSystem 0070        __size_of_ProcessHIDRequest 009A  
              ??_InitializeSystem 005C                          int$flags 007E          _StringDescriptorPointers 1012  
       __size_of_HIDInitEndpoints 008B         __end_of_WaitForSetupStage 0FA4                  ??_ReArmInterface 005C  
                ?_PrepareTxBuffer 0070   __size_of_ProcessStandardRequest 0093                  ProcessIO@reading 0068  
           __size_of_StartOfFrame 0003                        _INTCONbits 000B                     ??_InDataStage 0070  
       ProcessControlTransfer@PID 007B                          intlevel1 0000                GetStatus@recipient 0074  
         _ConfigurationDescriptor 073E          __size_of_EnableUSBModule 001A                 __CFG_CLKOUTEN$OFF 0000  
                    _StartOfFrame 0F58              __CFG_CPUDIV$NOCLKDIV 0000                 SetFeature@feature 0073  
                   __pstringtext1 1012                     __pstringtext2 063A                     __pstringtext3 0714  
                   __pstringtext4 073E                     __pstringtext5 07DE                     __pstringtext6 1000  
                   __pstringtext7 1018                    _ResetPPBuffers 0F5B                    _HIDPostProcess 0039  
                      _OPTION_REG 0095          __end_of_DeviceDescriptor 1012            _ProcessStandardRequest 00D9  
             __end_of_InDataStage 0309     __size_of_ProcessIncommingData 0001  
